
build/Threads.exe:     file format pei-x86-64

Sections:
Idx Name          Size      VMA               LMA               File off  Algn
  0 .text         000077b8  0000000140001000  0000000140001000  00000600  2**4
                  CONTENTS, ALLOC, LOAD, READONLY, CODE, DATA
  1 .data         000000e0  0000000140009000  0000000140009000  00007e00  2**4
                  CONTENTS, ALLOC, LOAD, DATA
  2 .rdata        000011f0  000000014000a000  000000014000a000  00008000  2**4
                  CONTENTS, ALLOC, LOAD, READONLY, DATA
  3 .pdata        00000540  000000014000c000  000000014000c000  00009200  2**2
                  CONTENTS, ALLOC, LOAD, READONLY, DATA
  4 .xdata        00000500  000000014000d000  000000014000d000  00009800  2**2
                  CONTENTS, ALLOC, LOAD, READONLY, DATA
  5 .bss          00000fa0  000000014000e000  000000014000e000  00000000  2**4
                  ALLOC
  6 .idata        00000814  000000014000f000  000000014000f000  00009e00  2**2
                  CONTENTS, ALLOC, LOAD, DATA
  7 .CRT          00000060  0000000140010000  0000000140010000  0000a800  2**2
                  CONTENTS, ALLOC, LOAD, DATA
  8 .tls          00000010  0000000140011000  0000000140011000  0000aa00  2**2
                  CONTENTS, ALLOC, LOAD, DATA
  9 .rsrc         000004e8  0000000140012000  0000000140012000  0000ac00  2**2
                  CONTENTS, ALLOC, LOAD, DATA
 10 .reloc        00000084  0000000140013000  0000000140013000  0000b200  2**2
                  CONTENTS, ALLOC, LOAD, READONLY, DATA
 11 .debug_aranges 00000620  0000000140014000  0000000140014000  0000b400  2**0
                  CONTENTS, READONLY, DEBUGGING
 12 .debug_info   00011ee2  0000000140015000  0000000140015000  0000bc00  2**0
                  CONTENTS, READONLY, DEBUGGING
 13 .debug_abbrev 00003211  0000000140027000  0000000140027000  0001dc00  2**0
                  CONTENTS, READONLY, DEBUGGING
 14 .debug_line   0000690f  000000014002b000  000000014002b000  00021000  2**0
                  CONTENTS, READONLY, DEBUGGING
 15 .debug_frame  00002120  0000000140032000  0000000140032000  00027a00  2**0
                  CONTENTS, READONLY, DEBUGGING
 16 .debug_str    0000039d  0000000140035000  0000000140035000  00029c00  2**0
                  CONTENTS, READONLY, DEBUGGING
 17 .debug_line_str 00002997  0000000140036000  0000000140036000  0002a000  2**0
                  CONTENTS, READONLY, DEBUGGING
 18 .debug_loclists 0000787d  0000000140039000  0000000140039000  0002ca00  2**0
                  CONTENTS, READONLY, DEBUGGING
 19 .debug_rnglists 00000526  0000000140041000  0000000140041000  00034400  2**0
                  CONTENTS, READONLY, DEBUGGING

Disassembly of section .text:

0000000140001000 <__mingw_invalidParameterHandler>:
   140001000:	c3                   	ret
   140001001:	66 66 2e 0f 1f 84 00 	data16 cs nopw 0x0(%rax,%rax,1)
   140001008:	00 00 00 00 
   14000100c:	0f 1f 40 00          	nopl   0x0(%rax)

0000000140001010 <pre_c_init>:
   140001010:	48 83 ec 28          	sub    $0x28,%rsp
   140001014:	48 8b 05 b5 98 00 00 	mov    0x98b5(%rip),%rax        # 14000a8d0 <.refptr.__mingw_initltsdrot_force>
   14000101b:	31 c9                	xor    %ecx,%ecx
   14000101d:	c7 00 01 00 00 00    	movl   $0x1,(%rax)
   140001023:	48 8b 05 b6 98 00 00 	mov    0x98b6(%rip),%rax        # 14000a8e0 <.refptr.__mingw_initltsdyn_force>
   14000102a:	c7 00 01 00 00 00    	movl   $0x1,(%rax)
   140001030:	48 8b 05 b9 98 00 00 	mov    0x98b9(%rip),%rax        # 14000a8f0 <.refptr.__mingw_initltssuo_force>
   140001037:	c7 00 01 00 00 00    	movl   $0x1,(%rax)
   14000103d:	48 8b 05 3c 98 00 00 	mov    0x983c(%rip),%rax        # 14000a880 <.refptr.__image_base__>
   140001044:	66 81 38 4d 5a       	cmpw   $0x5a4d,(%rax)
   140001049:	75 0f                	jne    14000105a <pre_c_init+0x4a>
   14000104b:	48 63 50 3c          	movslq 0x3c(%rax),%rdx
   14000104f:	48 01 d0             	add    %rdx,%rax
   140001052:	81 38 50 45 00 00    	cmpl   $0x4550,(%rax)
   140001058:	74 66                	je     1400010c0 <pre_c_init+0xb0>
   14000105a:	48 8b 05 5f 98 00 00 	mov    0x985f(%rip),%rax        # 14000a8c0 <.refptr.__mingw_app_type>
   140001061:	89 0d a5 cf 00 00    	mov    %ecx,0xcfa5(%rip)        # 14000e00c <managedapp>
   140001067:	8b 00                	mov    (%rax),%eax
   140001069:	85 c0                	test   %eax,%eax
   14000106b:	74 43                	je     1400010b0 <pre_c_init+0xa0>
   14000106d:	b9 02 00 00 00       	mov    $0x2,%ecx
   140001072:	e8 91 75 00 00       	call   140008608 <__set_app_type>
   140001077:	e8 24 6f 00 00       	call   140007fa0 <__p__fmode>
   14000107c:	48 8b 15 1d 99 00 00 	mov    0x991d(%rip),%rdx        # 14000a9a0 <.refptr._fmode>
   140001083:	8b 12                	mov    (%rdx),%edx
   140001085:	89 10                	mov    %edx,(%rax)
   140001087:	e8 24 6f 00 00       	call   140007fb0 <__p__commode>
   14000108c:	48 8b 15 ed 98 00 00 	mov    0x98ed(%rip),%rdx        # 14000a980 <.refptr._commode>
   140001093:	8b 12                	mov    (%rdx),%edx
   140001095:	89 10                	mov    %edx,(%rax)
   140001097:	e8 b4 10 00 00       	call   140002150 <_setargv>
   14000109c:	48 8b 05 8d 97 00 00 	mov    0x978d(%rip),%rax        # 14000a830 <.refptr._MINGW_INSTALL_DEBUG_MATHERR>
   1400010a3:	83 38 01             	cmpl   $0x1,(%rax)
   1400010a6:	74 50                	je     1400010f8 <pre_c_init+0xe8>
   1400010a8:	31 c0                	xor    %eax,%eax
   1400010aa:	48 83 c4 28          	add    $0x28,%rsp
   1400010ae:	c3                   	ret
   1400010af:	90                   	nop
   1400010b0:	b9 01 00 00 00       	mov    $0x1,%ecx
   1400010b5:	e8 4e 75 00 00       	call   140008608 <__set_app_type>
   1400010ba:	eb bb                	jmp    140001077 <pre_c_init+0x67>
   1400010bc:	0f 1f 40 00          	nopl   0x0(%rax)
   1400010c0:	0f b7 50 18          	movzwl 0x18(%rax),%edx
   1400010c4:	66 81 fa 0b 01       	cmp    $0x10b,%dx
   1400010c9:	74 45                	je     140001110 <pre_c_init+0x100>
   1400010cb:	66 81 fa 0b 02       	cmp    $0x20b,%dx
   1400010d0:	75 88                	jne    14000105a <pre_c_init+0x4a>
   1400010d2:	83 b8 84 00 00 00 0e 	cmpl   $0xe,0x84(%rax)
   1400010d9:	0f 86 7b ff ff ff    	jbe    14000105a <pre_c_init+0x4a>
   1400010df:	8b 90 f8 00 00 00    	mov    0xf8(%rax),%edx
   1400010e5:	31 c9                	xor    %ecx,%ecx
   1400010e7:	85 d2                	test   %edx,%edx
   1400010e9:	0f 95 c1             	setne  %cl
   1400010ec:	e9 69 ff ff ff       	jmp    14000105a <pre_c_init+0x4a>
   1400010f1:	0f 1f 80 00 00 00 00 	nopl   0x0(%rax)
   1400010f8:	48 8b 0d c1 98 00 00 	mov    0x98c1(%rip),%rcx        # 14000a9c0 <.refptr._matherr>
   1400010ff:	e8 bc 17 00 00       	call   1400028c0 <__mingw_setusermatherr>
   140001104:	31 c0                	xor    %eax,%eax
   140001106:	48 83 c4 28          	add    $0x28,%rsp
   14000110a:	c3                   	ret
   14000110b:	0f 1f 44 00 00       	nopl   0x0(%rax,%rax,1)
   140001110:	83 78 74 0e          	cmpl   $0xe,0x74(%rax)
   140001114:	0f 86 40 ff ff ff    	jbe    14000105a <pre_c_init+0x4a>
   14000111a:	44 8b 80 e8 00 00 00 	mov    0xe8(%rax),%r8d
   140001121:	31 c9                	xor    %ecx,%ecx
   140001123:	45 85 c0             	test   %r8d,%r8d
   140001126:	0f 95 c1             	setne  %cl
   140001129:	e9 2c ff ff ff       	jmp    14000105a <pre_c_init+0x4a>
   14000112e:	66 90                	xchg   %ax,%ax

0000000140001130 <pre_cpp_init>:
   140001130:	48 83 ec 38          	sub    $0x38,%rsp
   140001134:	48 8b 05 95 98 00 00 	mov    0x9895(%rip),%rax        # 14000a9d0 <.refptr._newmode>
   14000113b:	4c 8d 05 d6 ce 00 00 	lea    0xced6(%rip),%r8        # 14000e018 <envp>
   140001142:	48 8d 15 d7 ce 00 00 	lea    0xced7(%rip),%rdx        # 14000e020 <argv>
   140001149:	48 8d 0d d8 ce 00 00 	lea    0xced8(%rip),%rcx        # 14000e028 <argc>
   140001150:	8b 00                	mov    (%rax),%eax
   140001152:	89 05 ac ce 00 00    	mov    %eax,0xceac(%rip)        # 14000e004 <startinfo>
   140001158:	48 8b 05 31 98 00 00 	mov    0x9831(%rip),%rax        # 14000a990 <.refptr._dowildcard>
   14000115f:	44 8b 08             	mov    (%rax),%r9d
   140001162:	48 8d 05 9b ce 00 00 	lea    0xce9b(%rip),%rax        # 14000e004 <startinfo>
   140001169:	48 89 44 24 20       	mov    %rax,0x20(%rsp)
   14000116e:	e8 85 74 00 00       	call   1400085f8 <__getmainargs>
   140001173:	90                   	nop
   140001174:	48 83 c4 38          	add    $0x38,%rsp
   140001178:	c3                   	ret
   140001179:	0f 1f 80 00 00 00 00 	nopl   0x0(%rax)

0000000140001180 <__tmainCRTStartup>:
   140001180:	41 54                	push   %r12
   140001182:	55                   	push   %rbp
   140001183:	57                   	push   %rdi
   140001184:	56                   	push   %rsi
   140001185:	53                   	push   %rbx
   140001186:	48 83 ec 20          	sub    $0x20,%rsp
   14000118a:	48 8b 1d 7f 97 00 00 	mov    0x977f(%rip),%rbx        # 14000a910 <.refptr.__native_startup_lock>
   140001191:	48 8b 2d e0 e0 00 00 	mov    0xe0e0(%rip),%rbp        # 14000f278 <__imp_Sleep>
   140001198:	31 ff                	xor    %edi,%edi
   14000119a:	65 48 8b 04 25 30 00 	mov    %gs:0x30,%rax
   1400011a1:	00 00 
   1400011a3:	48 8b 70 08          	mov    0x8(%rax),%rsi
   1400011a7:	eb 17                	jmp    1400011c0 <__tmainCRTStartup+0x40>
   1400011a9:	0f 1f 80 00 00 00 00 	nopl   0x0(%rax)
   1400011b0:	48 39 c6             	cmp    %rax,%rsi
   1400011b3:	0f 84 67 01 00 00    	je     140001320 <__tmainCRTStartup+0x1a0>
   1400011b9:	b9 e8 03 00 00       	mov    $0x3e8,%ecx
   1400011be:	ff d5                	call   *%rbp
   1400011c0:	48 89 f8             	mov    %rdi,%rax
   1400011c3:	f0 48 0f b1 33       	lock cmpxchg %rsi,(%rbx)
   1400011c8:	48 85 c0             	test   %rax,%rax
   1400011cb:	75 e3                	jne    1400011b0 <__tmainCRTStartup+0x30>
   1400011cd:	48 8b 35 4c 97 00 00 	mov    0x974c(%rip),%rsi        # 14000a920 <.refptr.__native_startup_state>
   1400011d4:	31 ff                	xor    %edi,%edi
   1400011d6:	8b 06                	mov    (%rsi),%eax
   1400011d8:	83 f8 01             	cmp    $0x1,%eax
   1400011db:	0f 84 56 01 00 00    	je     140001337 <__tmainCRTStartup+0x1b7>
   1400011e1:	8b 06                	mov    (%rsi),%eax
   1400011e3:	85 c0                	test   %eax,%eax
   1400011e5:	0f 84 b5 01 00 00    	je     1400013a0 <__tmainCRTStartup+0x220>
   1400011eb:	c7 05 13 ce 00 00 01 	movl   $0x1,0xce13(%rip)        # 14000e008 <has_cctor>
   1400011f2:	00 00 00 
   1400011f5:	8b 06                	mov    (%rsi),%eax
   1400011f7:	83 f8 01             	cmp    $0x1,%eax
   1400011fa:	0f 84 4c 01 00 00    	je     14000134c <__tmainCRTStartup+0x1cc>
   140001200:	85 ff                	test   %edi,%edi
   140001202:	0f 84 65 01 00 00    	je     14000136d <__tmainCRTStartup+0x1ed>
   140001208:	48 8b 05 61 96 00 00 	mov    0x9661(%rip),%rax        # 14000a870 <.refptr.__dyn_tls_init_callback>
   14000120f:	48 8b 00             	mov    (%rax),%rax
   140001212:	48 85 c0             	test   %rax,%rax
   140001215:	74 0c                	je     140001223 <__tmainCRTStartup+0xa3>
   140001217:	45 31 c0             	xor    %r8d,%r8d
   14000121a:	ba 02 00 00 00       	mov    $0x2,%edx
   14000121f:	31 c9                	xor    %ecx,%ecx
   140001221:	ff d0                	call   *%rax
   140001223:	e8 f8 12 00 00       	call   140002520 <_pei386_runtime_relocator>
   140001228:	48 8b 0d 81 97 00 00 	mov    0x9781(%rip),%rcx        # 14000a9b0 <.refptr._gnu_exception_handler>
   14000122f:	ff 15 3b e0 00 00    	call   *0xe03b(%rip)        # 14000f270 <__imp_SetUnhandledExceptionFilter>
   140001235:	48 8b 15 c4 96 00 00 	mov    0x96c4(%rip),%rdx        # 14000a900 <.refptr.__mingw_oldexcpt_handler>
   14000123c:	48 8d 0d bd fd ff ff 	lea    -0x243(%rip),%rcx        # 140001000 <__mingw_invalidParameterHandler>
   140001243:	48 89 02             	mov    %rax,(%rdx)
   140001246:	e8 55 6e 00 00       	call   1400080a0 <_set_invalid_parameter_handler>
   14000124b:	e8 e0 10 00 00       	call   140002330 <_fpreset>
   140001250:	8b 1d d2 cd 00 00    	mov    0xcdd2(%rip),%ebx        # 14000e028 <argc>
   140001256:	8d 7b 01             	lea    0x1(%rbx),%edi
   140001259:	48 63 ff             	movslq %edi,%rdi
   14000125c:	48 c1 e7 03          	shl    $0x3,%rdi
   140001260:	48 89 f9             	mov    %rdi,%rcx
   140001263:	e8 28 74 00 00       	call   140008690 <malloc>
   140001268:	4c 8b 25 b1 cd 00 00 	mov    0xcdb1(%rip),%r12        # 14000e020 <argv>
   14000126f:	48 89 c5             	mov    %rax,%rbp
   140001272:	85 db                	test   %ebx,%ebx
   140001274:	0f 8e 46 01 00 00    	jle    1400013c0 <__tmainCRTStartup+0x240>
   14000127a:	48 83 ef 08          	sub    $0x8,%rdi
   14000127e:	31 db                	xor    %ebx,%ebx
   140001280:	49 8b 0c 1c          	mov    (%r12,%rbx,1),%rcx
   140001284:	e8 2f 74 00 00       	call   1400086b8 <strlen>
   140001289:	48 8d 70 01          	lea    0x1(%rax),%rsi
   14000128d:	48 89 f1             	mov    %rsi,%rcx
   140001290:	e8 fb 73 00 00       	call   140008690 <malloc>
   140001295:	49 89 f0             	mov    %rsi,%r8
   140001298:	48 89 44 1d 00       	mov    %rax,0x0(%rbp,%rbx,1)
   14000129d:	49 8b 14 1c          	mov    (%r12,%rbx,1),%rdx
   1400012a1:	48 89 c1             	mov    %rax,%rcx
   1400012a4:	48 83 c3 08          	add    $0x8,%rbx
   1400012a8:	e8 eb 73 00 00       	call   140008698 <memcpy>
   1400012ad:	48 39 df             	cmp    %rbx,%rdi
   1400012b0:	75 ce                	jne    140001280 <__tmainCRTStartup+0x100>
   1400012b2:	48 01 ef             	add    %rbp,%rdi
   1400012b5:	48 c7 07 00 00 00 00 	movq   $0x0,(%rdi)
   1400012bc:	48 89 2d 5d cd 00 00 	mov    %rbp,0xcd5d(%rip)        # 14000e020 <argv>
   1400012c3:	e8 68 0e 00 00       	call   140002130 <__main>
   1400012c8:	48 8b 05 c1 95 00 00 	mov    0x95c1(%rip),%rax        # 14000a890 <.refptr.__imp___initenv>
   1400012cf:	4c 8b 05 42 cd 00 00 	mov    0xcd42(%rip),%r8        # 14000e018 <envp>
   1400012d6:	8b 0d 4c cd 00 00    	mov    0xcd4c(%rip),%ecx        # 14000e028 <argc>
   1400012dc:	48 8b 00             	mov    (%rax),%rax
   1400012df:	4c 89 00             	mov    %r8,(%rax)
   1400012e2:	48 8b 15 37 cd 00 00 	mov    0xcd37(%rip),%rdx        # 14000e020 <argv>
   1400012e9:	e8 b6 01 00 00       	call   1400014a4 <main>
   1400012ee:	8b 0d 18 cd 00 00    	mov    0xcd18(%rip),%ecx        # 14000e00c <managedapp>
   1400012f4:	89 05 16 cd 00 00    	mov    %eax,0xcd16(%rip)        # 14000e010 <mainret>
   1400012fa:	85 c9                	test   %ecx,%ecx
   1400012fc:	0f 84 c6 00 00 00    	je     1400013c8 <__tmainCRTStartup+0x248>
   140001302:	8b 15 00 cd 00 00    	mov    0xcd00(%rip),%edx        # 14000e008 <has_cctor>
   140001308:	85 d2                	test   %edx,%edx
   14000130a:	74 74                	je     140001380 <__tmainCRTStartup+0x200>
   14000130c:	48 83 c4 20          	add    $0x20,%rsp
   140001310:	5b                   	pop    %rbx
   140001311:	5e                   	pop    %rsi
   140001312:	5f                   	pop    %rdi
   140001313:	5d                   	pop    %rbp
   140001314:	41 5c                	pop    %r12
   140001316:	c3                   	ret
   140001317:	66 0f 1f 84 00 00 00 	nopw   0x0(%rax,%rax,1)
   14000131e:	00 00 
   140001320:	48 8b 35 f9 95 00 00 	mov    0x95f9(%rip),%rsi        # 14000a920 <.refptr.__native_startup_state>
   140001327:	bf 01 00 00 00       	mov    $0x1,%edi
   14000132c:	8b 06                	mov    (%rsi),%eax
   14000132e:	83 f8 01             	cmp    $0x1,%eax
   140001331:	0f 85 aa fe ff ff    	jne    1400011e1 <__tmainCRTStartup+0x61>
   140001337:	b9 1f 00 00 00       	mov    $0x1f,%ecx
   14000133c:	e8 d7 72 00 00       	call   140008618 <_amsg_exit>
   140001341:	8b 06                	mov    (%rsi),%eax
   140001343:	83 f8 01             	cmp    $0x1,%eax
   140001346:	0f 85 b4 fe ff ff    	jne    140001200 <__tmainCRTStartup+0x80>
   14000134c:	48 8b 15 fd 95 00 00 	mov    0x95fd(%rip),%rdx        # 14000a950 <.refptr.__xc_z>
   140001353:	48 8b 0d e6 95 00 00 	mov    0x95e6(%rip),%rcx        # 14000a940 <.refptr.__xc_a>
   14000135a:	e8 d1 72 00 00       	call   140008630 <_initterm>
   14000135f:	c7 06 02 00 00 00    	movl   $0x2,(%rsi)
   140001365:	85 ff                	test   %edi,%edi
   140001367:	0f 85 9b fe ff ff    	jne    140001208 <__tmainCRTStartup+0x88>
   14000136d:	31 c0                	xor    %eax,%eax
   14000136f:	48 87 03             	xchg   %rax,(%rbx)
   140001372:	e9 91 fe ff ff       	jmp    140001208 <__tmainCRTStartup+0x88>
   140001377:	66 0f 1f 84 00 00 00 	nopw   0x0(%rax,%rax,1)
   14000137e:	00 00 
   140001380:	e8 9b 72 00 00       	call   140008620 <_cexit>
   140001385:	8b 05 85 cc 00 00    	mov    0xcc85(%rip),%eax        # 14000e010 <mainret>
   14000138b:	48 83 c4 20          	add    $0x20,%rsp
   14000138f:	5b                   	pop    %rbx
   140001390:	5e                   	pop    %rsi
   140001391:	5f                   	pop    %rdi
   140001392:	5d                   	pop    %rbp
   140001393:	41 5c                	pop    %r12
   140001395:	c3                   	ret
   140001396:	66 2e 0f 1f 84 00 00 	cs nopw 0x0(%rax,%rax,1)
   14000139d:	00 00 00 
   1400013a0:	48 8b 15 c9 95 00 00 	mov    0x95c9(%rip),%rdx        # 14000a970 <.refptr.__xi_z>
   1400013a7:	48 8b 0d b2 95 00 00 	mov    0x95b2(%rip),%rcx        # 14000a960 <.refptr.__xi_a>
   1400013ae:	c7 06 01 00 00 00    	movl   $0x1,(%rsi)
   1400013b4:	e8 77 72 00 00       	call   140008630 <_initterm>
   1400013b9:	e9 37 fe ff ff       	jmp    1400011f5 <__tmainCRTStartup+0x75>
   1400013be:	66 90                	xchg   %ax,%ax
   1400013c0:	48 89 c7             	mov    %rax,%rdi
   1400013c3:	e9 ed fe ff ff       	jmp    1400012b5 <__tmainCRTStartup+0x135>
   1400013c8:	89 c1                	mov    %eax,%ecx
   1400013ca:	e8 91 72 00 00       	call   140008660 <exit>
   1400013cf:	90                   	nop

00000001400013d0 <WinMainCRTStartup>:
   1400013d0:	48 83 ec 28          	sub    $0x28,%rsp

00000001400013d4 <.l_startw>:
   1400013d4:	48 8b 05 e5 94 00 00 	mov    0x94e5(%rip),%rax        # 14000a8c0 <.refptr.__mingw_app_type>
   1400013db:	c7 00 01 00 00 00    	movl   $0x1,(%rax)
   1400013e1:	e8 9a fd ff ff       	call   140001180 <__tmainCRTStartup>
   1400013e6:	90                   	nop

00000001400013e7 <.l_endw>:
   1400013e7:	90                   	nop
   1400013e8:	48 83 c4 28          	add    $0x28,%rsp
   1400013ec:	c3                   	ret
   1400013ed:	0f 1f 00             	nopl   (%rax)

00000001400013f0 <mainCRTStartup>:
   1400013f0:	48 83 ec 28          	sub    $0x28,%rsp

00000001400013f4 <.l_start>:
   1400013f4:	48 8b 05 c5 94 00 00 	mov    0x94c5(%rip),%rax        # 14000a8c0 <.refptr.__mingw_app_type>
   1400013fb:	c7 00 00 00 00 00    	movl   $0x0,(%rax)
   140001401:	e8 7a fd ff ff       	call   140001180 <__tmainCRTStartup>
   140001406:	90                   	nop

0000000140001407 <.l_end>:
   140001407:	90                   	nop
   140001408:	48 83 c4 28          	add    $0x28,%rsp
   14000140c:	c3                   	ret
   14000140d:	0f 1f 00             	nopl   (%rax)

0000000140001410 <atexit>:
   140001410:	48 83 ec 28          	sub    $0x28,%rsp
   140001414:	e8 27 72 00 00       	call   140008640 <_onexit>
   140001419:	48 83 f8 01          	cmp    $0x1,%rax
   14000141d:	19 c0                	sbb    %eax,%eax
   14000141f:	48 83 c4 28          	add    $0x28,%rsp
   140001423:	c3                   	ret
   140001424:	90                   	nop
   140001425:	90                   	nop
   140001426:	90                   	nop
   140001427:	90                   	nop
   140001428:	90                   	nop
   140001429:	90                   	nop
   14000142a:	90                   	nop
   14000142b:	90                   	nop
   14000142c:	90                   	nop
   14000142d:	90                   	nop
   14000142e:	90                   	nop
   14000142f:	90                   	nop

0000000140001430 <__gcc_register_frame>:
   140001430:	48 8d 0d 09 00 00 00 	lea    0x9(%rip),%rcx        # 140001440 <__gcc_deregister_frame>
   140001437:	e9 d4 ff ff ff       	jmp    140001410 <atexit>
   14000143c:	0f 1f 40 00          	nopl   0x0(%rax)

0000000140001440 <__gcc_deregister_frame>:
   140001440:	c3                   	ret
   140001441:	90                   	nop
   140001442:	90                   	nop
   140001443:	90                   	nop
   140001444:	90                   	nop
   140001445:	90                   	nop
   140001446:	90                   	nop
   140001447:	90                   	nop
   140001448:	90                   	nop
   140001449:	90                   	nop
   14000144a:	90                   	nop
   14000144b:	90                   	nop
   14000144c:	90                   	nop
   14000144d:	90                   	nop
   14000144e:	90                   	nop
   14000144f:	90                   	nop

0000000140001450 <printf>:
   140001450:	55                   	push   %rbp
   140001451:	53                   	push   %rbx
   140001452:	48 83 ec 38          	sub    $0x38,%rsp
   140001456:	48 8d 6c 24 30       	lea    0x30(%rsp),%rbp
   14000145b:	48 89 4d 20          	mov    %rcx,0x20(%rbp)
   14000145f:	48 89 55 28          	mov    %rdx,0x28(%rbp)
   140001463:	4c 89 45 30          	mov    %r8,0x30(%rbp)
   140001467:	4c 89 4d 38          	mov    %r9,0x38(%rbp)
   14000146b:	48 8d 45 28          	lea    0x28(%rbp),%rax
   14000146f:	48 89 45 f0          	mov    %rax,-0x10(%rbp)
   140001473:	48 8b 5d f0          	mov    -0x10(%rbp),%rbx
   140001477:	b9 01 00 00 00       	mov    $0x1,%ecx
   14000147c:	48 8b 05 4d 7c 00 00 	mov    0x7c4d(%rip),%rax        # 1400090d0 <__imp___acrt_iob_func>
   140001483:	ff d0                	call   *%rax
   140001485:	48 89 c1             	mov    %rax,%rcx
   140001488:	48 8b 45 20          	mov    0x20(%rbp),%rax
   14000148c:	49 89 d8             	mov    %rbx,%r8
   14000148f:	48 89 c2             	mov    %rax,%rdx
   140001492:	e8 89 1c 00 00       	call   140003120 <__mingw_vfprintf>
   140001497:	89 45 fc             	mov    %eax,-0x4(%rbp)
   14000149a:	8b 45 fc             	mov    -0x4(%rbp),%eax
   14000149d:	48 83 c4 38          	add    $0x38,%rsp
   1400014a1:	5b                   	pop    %rbx
   1400014a2:	5d                   	pop    %rbp
   1400014a3:	c3                   	ret

00000001400014a4 <main>:
   1400014a4:	55                   	push   %rbp
   1400014a5:	48 89 e5             	mov    %rsp,%rbp
   1400014a8:	48 83 ec 40          	sub    $0x40,%rsp
   1400014ac:	e8 7f 0c 00 00       	call   140002130 <__main>
   1400014b1:	48 8d 05 88 cb 00 00 	lea    0xcb88(%rip),%rax        # 14000e040 <buf>
   1400014b8:	48 89 45 e8          	mov    %rax,-0x18(%rbp)
   1400014bc:	48 c7 45 f0 00 04 00 	movq   $0x400,-0x10(%rbp)
   1400014c3:	00 
   1400014c4:	48 8d 05 35 7b 00 00 	lea    0x7b35(%rip),%rax        # 140009000 <__data_start__>
   1400014cb:	48 89 45 e0          	mov    %rax,-0x20(%rbp)
   1400014cf:	48 8d 45 e0          	lea    -0x20(%rbp),%rax
   1400014d3:	48 89 c1             	mov    %rax,%rcx
   1400014d6:	e8 f9 07 00 00       	call   140001cd4 <openAndSettingSerial>
   1400014db:	48 8d 45 e0          	lea    -0x20(%rbp),%rax
   1400014df:	48 89 c1             	mov    %rax,%rcx
   1400014e2:	e8 b2 09 00 00       	call   140001e99 <SerialThread>
   1400014e7:	48 8d 05 12 8b 00 00 	lea    0x8b12(%rip),%rax        # 14000a000 <.rdata>
   1400014ee:	48 89 c1             	mov    %rax,%rcx
   1400014f1:	e8 5a ff ff ff       	call   140001450 <printf>
   1400014f6:	b8 00 00 00 00       	mov    $0x0,%eax
   1400014fb:	48 83 c4 40          	add    $0x40,%rsp
   1400014ff:	5d                   	pop    %rbp
   140001500:	c3                   	ret
   140001501:	90                   	nop
   140001502:	90                   	nop
   140001503:	90                   	nop
   140001504:	90                   	nop
   140001505:	90                   	nop
   140001506:	90                   	nop
   140001507:	90                   	nop
   140001508:	90                   	nop
   140001509:	90                   	nop
   14000150a:	90                   	nop
   14000150b:	90                   	nop
   14000150c:	90                   	nop
   14000150d:	90                   	nop
   14000150e:	90                   	nop
   14000150f:	90                   	nop

0000000140001510 <fprintf>:
   140001510:	55                   	push   %rbp
   140001511:	48 89 e5             	mov    %rsp,%rbp
   140001514:	48 83 ec 30          	sub    $0x30,%rsp
   140001518:	48 89 4d 10          	mov    %rcx,0x10(%rbp)
   14000151c:	48 89 55 18          	mov    %rdx,0x18(%rbp)
   140001520:	4c 89 45 20          	mov    %r8,0x20(%rbp)
   140001524:	4c 89 4d 28          	mov    %r9,0x28(%rbp)
   140001528:	48 8d 45 20          	lea    0x20(%rbp),%rax
   14000152c:	48 89 45 f0          	mov    %rax,-0x10(%rbp)
   140001530:	48 8b 4d f0          	mov    -0x10(%rbp),%rcx
   140001534:	48 8b 55 18          	mov    0x18(%rbp),%rdx
   140001538:	48 8b 45 10          	mov    0x10(%rbp),%rax
   14000153c:	49 89 c8             	mov    %rcx,%r8
   14000153f:	48 89 c1             	mov    %rax,%rcx
   140001542:	e8 d9 1b 00 00       	call   140003120 <__mingw_vfprintf>
   140001547:	89 45 fc             	mov    %eax,-0x4(%rbp)
   14000154a:	8b 45 fc             	mov    -0x4(%rbp),%eax
   14000154d:	48 83 c4 30          	add    $0x30,%rsp
   140001551:	5d                   	pop    %rbp
   140001552:	c3                   	ret

0000000140001553 <printf>:
   140001553:	55                   	push   %rbp
   140001554:	53                   	push   %rbx
   140001555:	48 83 ec 38          	sub    $0x38,%rsp
   140001559:	48 8d 6c 24 30       	lea    0x30(%rsp),%rbp
   14000155e:	48 89 4d 20          	mov    %rcx,0x20(%rbp)
   140001562:	48 89 55 28          	mov    %rdx,0x28(%rbp)
   140001566:	4c 89 45 30          	mov    %r8,0x30(%rbp)
   14000156a:	4c 89 4d 38          	mov    %r9,0x38(%rbp)
   14000156e:	48 8d 45 28          	lea    0x28(%rbp),%rax
   140001572:	48 89 45 f0          	mov    %rax,-0x10(%rbp)
   140001576:	48 8b 5d f0          	mov    -0x10(%rbp),%rbx
   14000157a:	b9 01 00 00 00       	mov    $0x1,%ecx
   14000157f:	48 8b 05 4a 7b 00 00 	mov    0x7b4a(%rip),%rax        # 1400090d0 <__imp___acrt_iob_func>
   140001586:	ff d0                	call   *%rax
   140001588:	48 89 c1             	mov    %rax,%rcx
   14000158b:	48 8b 45 20          	mov    0x20(%rbp),%rax
   14000158f:	49 89 d8             	mov    %rbx,%r8
   140001592:	48 89 c2             	mov    %rax,%rdx
   140001595:	e8 86 1b 00 00       	call   140003120 <__mingw_vfprintf>
   14000159a:	89 45 fc             	mov    %eax,-0x4(%rbp)
   14000159d:	8b 45 fc             	mov    -0x4(%rbp),%eax
   1400015a0:	48 83 c4 38          	add    $0x38,%rsp
   1400015a4:	5b                   	pop    %rbx
   1400015a5:	5d                   	pop    %rbp
   1400015a6:	c3                   	ret

00000001400015a7 <initQueueManagement>:
   1400015a7:	55                   	push   %rbp
   1400015a8:	48 89 e5             	mov    %rsp,%rbp
   1400015ab:	48 83 ec 20          	sub    $0x20,%rsp
   1400015af:	48 89 4d 10          	mov    %rcx,0x10(%rbp)
   1400015b3:	48 83 7d 10 00       	cmpq   $0x0,0x10(%rbp)
   1400015b8:	74 1a                	je     1400015d4 <initQueueManagement+0x2d>
   1400015ba:	48 8b 55 10          	mov    0x10(%rbp),%rdx
   1400015be:	48 89 d0             	mov    %rdx,%rax
   1400015c1:	48 01 c0             	add    %rax,%rax
   1400015c4:	48 01 d0             	add    %rdx,%rax
   1400015c7:	48 c1 e0 03          	shl    $0x3,%rax
   1400015cb:	48 89 05 76 ce 00 00 	mov    %rax,0xce76(%rip)        # 14000e448 <currentSize>
   1400015d2:	eb 08                	jmp    1400015dc <initQueueManagement+0x35>
   1400015d4:	48 c7 45 10 05 00 00 	movq   $0x5,0x10(%rbp)
   1400015db:	00 
   1400015dc:	48 8b 55 10          	mov    0x10(%rbp),%rdx
   1400015e0:	48 89 d0             	mov    %rdx,%rax
   1400015e3:	48 01 c0             	add    %rax,%rax
   1400015e6:	48 01 d0             	add    %rdx,%rax
   1400015e9:	48 c1 e0 03          	shl    $0x3,%rax
   1400015ed:	48 89 05 54 ce 00 00 	mov    %rax,0xce54(%rip)        # 14000e448 <currentSize>
   1400015f4:	48 8b 05 4d ce 00 00 	mov    0xce4d(%rip),%rax        # 14000e448 <currentSize>
   1400015fb:	48 89 c1             	mov    %rax,%rcx
   1400015fe:	e8 8d 70 00 00       	call   140008690 <malloc>
   140001603:	48 89 05 36 ce 00 00 	mov    %rax,0xce36(%rip)        # 14000e440 <arrayQueueHandels>
   14000160a:	48 8b 15 37 ce 00 00 	mov    0xce37(%rip),%rdx        # 14000e448 <currentSize>
   140001611:	48 8b 05 28 ce 00 00 	mov    0xce28(%rip),%rax        # 14000e440 <arrayQueueHandels>
   140001618:	49 89 d0             	mov    %rdx,%r8
   14000161b:	ba 00 00 00 00       	mov    $0x0,%edx
   140001620:	48 89 c1             	mov    %rax,%rcx
   140001623:	e8 78 70 00 00       	call   1400086a0 <memset>
   140001628:	48 8b 45 10          	mov    0x10(%rbp),%rax
   14000162c:	48 89 05 15 ce 00 00 	mov    %rax,0xce15(%rip)        # 14000e448 <currentSize>
   140001633:	90                   	nop
   140001634:	48 83 c4 20          	add    $0x20,%rsp
   140001638:	5d                   	pop    %rbp
   140001639:	c3                   	ret

000000014000163a <addNewQueue>:
   14000163a:	55                   	push   %rbp
   14000163b:	48 89 e5             	mov    %rsp,%rbp
   14000163e:	48 83 ec 40          	sub    $0x40,%rsp
   140001642:	48 89 4d 10          	mov    %rcx,0x10(%rbp)
   140001646:	48 c7 45 f8 00 00 00 	movq   $0x0,-0x8(%rbp)
   14000164d:	00 
   14000164e:	eb 28                	jmp    140001678 <addNewQueue+0x3e>
   140001650:	48 8b 0d e9 cd 00 00 	mov    0xcde9(%rip),%rcx        # 14000e440 <arrayQueueHandels>
   140001657:	48 8b 55 f8          	mov    -0x8(%rbp),%rdx
   14000165b:	48 89 d0             	mov    %rdx,%rax
   14000165e:	48 01 c0             	add    %rax,%rax
   140001661:	48 01 d0             	add    %rdx,%rax
   140001664:	48 c1 e0 03          	shl    $0x3,%rax
   140001668:	48 01 c8             	add    %rcx,%rax
   14000166b:	48 8b 00             	mov    (%rax),%rax
   14000166e:	48 85 c0             	test   %rax,%rax
   140001671:	74 14                	je     140001687 <addNewQueue+0x4d>
   140001673:	48 83 45 f8 01       	addq   $0x1,-0x8(%rbp)
   140001678:	48 8b 05 c9 cd 00 00 	mov    0xcdc9(%rip),%rax        # 14000e448 <currentSize>
   14000167f:	48 39 45 f8          	cmp    %rax,-0x8(%rbp)
   140001683:	72 cb                	jb     140001650 <addNewQueue+0x16>
   140001685:	eb 01                	jmp    140001688 <addNewQueue+0x4e>
   140001687:	90                   	nop
   140001688:	48 8b 05 b9 cd 00 00 	mov    0xcdb9(%rip),%rax        # 14000e448 <currentSize>
   14000168f:	48 39 45 f8          	cmp    %rax,-0x8(%rbp)
   140001693:	72 45                	jb     1400016da <addNewQueue+0xa0>
   140001695:	b9 02 00 00 00       	mov    $0x2,%ecx
   14000169a:	48 8b 05 2f 7a 00 00 	mov    0x7a2f(%rip),%rax        # 1400090d0 <__imp___acrt_iob_func>
   1400016a1:	ff d0                	call   *%rax
   1400016a3:	48 89 c1             	mov    %rax,%rcx
   1400016a6:	c7 44 24 20 29 00 00 	movl   $0x29,0x20(%rsp)
   1400016ad:	00 
   1400016ae:	4c 8d 0d e3 89 00 00 	lea    0x89e3(%rip),%r9        # 14000a098 <__func__.0>
   1400016b5:	4c 8d 05 54 89 00 00 	lea    0x8954(%rip),%r8        # 14000a010 <.rdata>
   1400016bc:	48 8d 05 5d 89 00 00 	lea    0x895d(%rip),%rax        # 14000a020 <.rdata+0x10>
   1400016c3:	48 89 c2             	mov    %rax,%rdx
   1400016c6:	e8 45 fe ff ff       	call   140001510 <fprintf>
   1400016cb:	48 8d 05 70 89 00 00 	lea    0x8970(%rip),%rax        # 14000a042 <.rdata+0x32>
   1400016d2:	48 89 c1             	mov    %rax,%rcx
   1400016d5:	e8 79 fe ff ff       	call   140001553 <printf>
   1400016da:	48 8b 0d 5f cd 00 00 	mov    0xcd5f(%rip),%rcx        # 14000e440 <arrayQueueHandels>
   1400016e1:	48 8b 55 f8          	mov    -0x8(%rbp),%rdx
   1400016e5:	48 89 d0             	mov    %rdx,%rax
   1400016e8:	48 01 c0             	add    %rax,%rax
   1400016eb:	48 01 d0             	add    %rdx,%rax
   1400016ee:	48 c1 e0 03          	shl    $0x3,%rax
   1400016f2:	48 8d 14 01          	lea    (%rcx,%rax,1),%rdx
   1400016f6:	48 8b 45 10          	mov    0x10(%rbp),%rax
   1400016fa:	48 89 10             	mov    %rdx,(%rax)
   1400016fd:	48 8b 0d 3c cd 00 00 	mov    0xcd3c(%rip),%rcx        # 14000e440 <arrayQueueHandels>
   140001704:	48 8b 55 f8          	mov    -0x8(%rbp),%rdx
   140001708:	48 89 d0             	mov    %rdx,%rax
   14000170b:	48 01 c0             	add    %rax,%rax
   14000170e:	48 01 d0             	add    %rdx,%rax
   140001711:	48 c1 e0 03          	shl    $0x3,%rax
   140001715:	48 8d 14 01          	lea    (%rcx,%rax,1),%rdx
   140001719:	48 8b 45 10          	mov    0x10(%rbp),%rax
   14000171d:	48 8b 00             	mov    (%rax),%rax
   140001720:	48 89 10             	mov    %rdx,(%rax)
   140001723:	48 8b 45 10          	mov    0x10(%rbp),%rax
   140001727:	48 8b 00             	mov    (%rax),%rax
   14000172a:	48 c7 40 08 00 00 00 	movq   $0x0,0x8(%rax)
   140001731:	00 
   140001732:	90                   	nop
   140001733:	48 83 c4 40          	add    $0x40,%rsp
   140001737:	5d                   	pop    %rbp
   140001738:	c3                   	ret

0000000140001739 <createQueue>:
   140001739:	55                   	push   %rbp
   14000173a:	48 89 e5             	mov    %rsp,%rbp
   14000173d:	48 83 ec 30          	sub    $0x30,%rsp
   140001741:	48 89 4d 10          	mov    %rcx,0x10(%rbp)
   140001745:	48 89 55 18          	mov    %rdx,0x18(%rbp)
   140001749:	4c 89 45 20          	mov    %r8,0x20(%rbp)
   14000174d:	48 8b 45 10          	mov    0x10(%rbp),%rax
   140001751:	48 8b 00             	mov    (%rax),%rax
   140001754:	48 85 c0             	test   %rax,%rax
   140001757:	75 0c                	jne    140001765 <createQueue+0x2c>
   140001759:	48 8b 45 10          	mov    0x10(%rbp),%rax
   14000175d:	48 89 c1             	mov    %rax,%rcx
   140001760:	e8 d5 fe ff ff       	call   14000163a <addNewQueue>
   140001765:	b9 20 00 00 00       	mov    $0x20,%ecx
   14000176a:	e8 21 6f 00 00       	call   140008690 <malloc>
   14000176f:	48 89 45 f8          	mov    %rax,-0x8(%rbp)
   140001773:	48 8b 45 f8          	mov    -0x8(%rbp),%rax
   140001777:	48 c7 40 18 00 00 00 	movq   $0x0,0x18(%rax)
   14000177e:	00 
   14000177f:	48 8b 45 20          	mov    0x20(%rbp),%rax
   140001783:	48 83 c0 01          	add    $0x1,%rax
   140001787:	48 89 c1             	mov    %rax,%rcx
   14000178a:	e8 01 6f 00 00       	call   140008690 <malloc>
   14000178f:	48 89 c2             	mov    %rax,%rdx
   140001792:	48 8b 45 f8          	mov    -0x8(%rbp),%rax
   140001796:	48 89 10             	mov    %rdx,(%rax)
   140001799:	48 8b 45 f8          	mov    -0x8(%rbp),%rax
   14000179d:	48 8b 55 20          	mov    0x20(%rbp),%rdx
   1400017a1:	48 89 50 08          	mov    %rdx,0x8(%rax)
   1400017a5:	48 8b 45 20          	mov    0x20(%rbp),%rax
   1400017a9:	48 8d 50 01          	lea    0x1(%rax),%rdx
   1400017ad:	48 8b 45 f8          	mov    -0x8(%rbp),%rax
   1400017b1:	48 8b 00             	mov    (%rax),%rax
   1400017b4:	49 89 d0             	mov    %rdx,%r8
   1400017b7:	ba 00 00 00 00       	mov    $0x0,%edx
   1400017bc:	48 89 c1             	mov    %rax,%rcx
   1400017bf:	e8 dc 6e 00 00       	call   1400086a0 <memset>
   1400017c4:	48 8b 45 f8          	mov    -0x8(%rbp),%rax
   1400017c8:	48 8b 00             	mov    (%rax),%rax
   1400017cb:	48 8b 4d 20          	mov    0x20(%rbp),%rcx
   1400017cf:	48 8b 55 18          	mov    0x18(%rbp),%rdx
   1400017d3:	49 89 c8             	mov    %rcx,%r8
   1400017d6:	48 89 c1             	mov    %rax,%rcx
   1400017d9:	e8 ba 6e 00 00       	call   140008698 <memcpy>
   1400017de:	48 8b 45 10          	mov    0x10(%rbp),%rax
   1400017e2:	48 8b 00             	mov    (%rax),%rax
   1400017e5:	48 8b 50 10          	mov    0x10(%rax),%rdx
   1400017e9:	48 83 c2 01          	add    $0x1,%rdx
   1400017ed:	48 89 50 10          	mov    %rdx,0x10(%rax)
   1400017f1:	48 8b 45 10          	mov    0x10(%rbp),%rax
   1400017f5:	48 8b 00             	mov    (%rax),%rax
   1400017f8:	48 8b 50 08          	mov    0x8(%rax),%rdx
   1400017fc:	48 8b 45 f8          	mov    -0x8(%rbp),%rax
   140001800:	48 89 50 10          	mov    %rdx,0x10(%rax)
   140001804:	48 8b 45 10          	mov    0x10(%rbp),%rax
   140001808:	48 8b 00             	mov    (%rax),%rax
   14000180b:	48 8b 55 f8          	mov    -0x8(%rbp),%rdx
   14000180f:	48 89 50 08          	mov    %rdx,0x8(%rax)
   140001813:	90                   	nop
   140001814:	48 83 c4 30          	add    $0x30,%rsp
   140001818:	5d                   	pop    %rbp
   140001819:	c3                   	ret

000000014000181a <delAllList>:
   14000181a:	55                   	push   %rbp
   14000181b:	48 89 e5             	mov    %rsp,%rbp
   14000181e:	48 83 ec 30          	sub    $0x30,%rsp
   140001822:	48 89 4d 10          	mov    %rcx,0x10(%rbp)
   140001826:	48 c7 45 f8 00 00 00 	movq   $0x0,-0x8(%rbp)
   14000182d:	00 
   14000182e:	eb 38                	jmp    140001868 <delAllList+0x4e>
   140001830:	48 8b 45 10          	mov    0x10(%rbp),%rax
   140001834:	48 8b 00             	mov    (%rax),%rax
   140001837:	48 89 45 f8          	mov    %rax,-0x8(%rbp)
   14000183b:	48 8b 45 10          	mov    0x10(%rbp),%rax
   14000183f:	48 8b 00             	mov    (%rax),%rax
   140001842:	48 8b 50 10          	mov    0x10(%rax),%rdx
   140001846:	48 8b 45 10          	mov    0x10(%rbp),%rax
   14000184a:	48 89 10             	mov    %rdx,(%rax)
   14000184d:	48 8b 45 f8          	mov    -0x8(%rbp),%rax
   140001851:	48 8b 00             	mov    (%rax),%rax
   140001854:	48 89 c1             	mov    %rax,%rcx
   140001857:	e8 1c 6e 00 00       	call   140008678 <free>
   14000185c:	48 8b 45 f8          	mov    -0x8(%rbp),%rax
   140001860:	48 89 c1             	mov    %rax,%rcx
   140001863:	e8 10 6e 00 00       	call   140008678 <free>
   140001868:	48 8b 45 10          	mov    0x10(%rbp),%rax
   14000186c:	48 8b 00             	mov    (%rax),%rax
   14000186f:	48 8b 40 10          	mov    0x10(%rax),%rax
   140001873:	48 85 c0             	test   %rax,%rax
   140001876:	75 b8                	jne    140001830 <delAllList+0x16>
   140001878:	48 8b 45 10          	mov    0x10(%rbp),%rax
   14000187c:	48 8b 00             	mov    (%rax),%rax
   14000187f:	48 8b 00             	mov    (%rax),%rax
   140001882:	48 89 c1             	mov    %rax,%rcx
   140001885:	e8 ee 6d 00 00       	call   140008678 <free>
   14000188a:	48 8b 45 10          	mov    0x10(%rbp),%rax
   14000188e:	48 8b 00             	mov    (%rax),%rax
   140001891:	48 89 c1             	mov    %rax,%rcx
   140001894:	e8 df 6d 00 00       	call   140008678 <free>
   140001899:	90                   	nop
   14000189a:	48 83 c4 30          	add    $0x30,%rsp
   14000189e:	5d                   	pop    %rbp
   14000189f:	c3                   	ret

00000001400018a0 <findLastItem>:
   1400018a0:	55                   	push   %rbp
   1400018a1:	48 89 e5             	mov    %rsp,%rbp
   1400018a4:	48 83 ec 10          	sub    $0x10,%rsp
   1400018a8:	48 89 4d 10          	mov    %rcx,0x10(%rbp)
   1400018ac:	48 8b 45 10          	mov    0x10(%rbp),%rax
   1400018b0:	48 89 45 f8          	mov    %rax,-0x8(%rbp)
   1400018b4:	eb 14                	jmp    1400018ca <findLastItem+0x2a>
   1400018b6:	48 8b 45 10          	mov    0x10(%rbp),%rax
   1400018ba:	48 89 45 f8          	mov    %rax,-0x8(%rbp)
   1400018be:	48 8b 45 10          	mov    0x10(%rbp),%rax
   1400018c2:	48 8b 40 10          	mov    0x10(%rax),%rax
   1400018c6:	48 89 45 10          	mov    %rax,0x10(%rbp)
   1400018ca:	48 83 7d 10 00       	cmpq   $0x0,0x10(%rbp)
   1400018cf:	75 e5                	jne    1400018b6 <findLastItem+0x16>
   1400018d1:	48 8b 45 f8          	mov    -0x8(%rbp),%rax
   1400018d5:	48 83 c4 10          	add    $0x10,%rsp
   1400018d9:	5d                   	pop    %rbp
   1400018da:	c3                   	ret

00000001400018db <addItemQueue>:
   1400018db:	55                   	push   %rbp
   1400018dc:	48 89 e5             	mov    %rsp,%rbp
   1400018df:	48 83 ec 30          	sub    $0x30,%rsp
   1400018e3:	48 89 4d 10          	mov    %rcx,0x10(%rbp)
   1400018e7:	48 89 55 18          	mov    %rdx,0x18(%rbp)
   1400018eb:	4c 89 45 20          	mov    %r8,0x20(%rbp)
   1400018ef:	48 8b 45 10          	mov    0x10(%rbp),%rax
   1400018f3:	48 8b 00             	mov    (%rax),%rax
   1400018f6:	48 85 c0             	test   %rax,%rax
   1400018f9:	74 10                	je     14000190b <addItemQueue+0x30>
   1400018fb:	48 8b 45 10          	mov    0x10(%rbp),%rax
   1400018ff:	48 8b 00             	mov    (%rax),%rax
   140001902:	48 8b 40 08          	mov    0x8(%rax),%rax
   140001906:	48 85 c0             	test   %rax,%rax
   140001909:	75 1c                	jne    140001927 <addItemQueue+0x4c>
   14000190b:	48 8b 4d 20          	mov    0x20(%rbp),%rcx
   14000190f:	48 8b 55 18          	mov    0x18(%rbp),%rdx
   140001913:	48 8b 45 10          	mov    0x10(%rbp),%rax
   140001917:	49 89 c8             	mov    %rcx,%r8
   14000191a:	48 89 c1             	mov    %rax,%rcx
   14000191d:	e8 17 fe ff ff       	call   140001739 <createQueue>
   140001922:	e9 bb 00 00 00       	jmp    1400019e2 <addItemQueue+0x107>
   140001927:	48 8b 45 10          	mov    0x10(%rbp),%rax
   14000192b:	48 8b 00             	mov    (%rax),%rax
   14000192e:	48 8b 50 10          	mov    0x10(%rax),%rdx
   140001932:	48 83 c2 01          	add    $0x1,%rdx
   140001936:	48 89 50 10          	mov    %rdx,0x10(%rax)
   14000193a:	b9 20 00 00 00       	mov    $0x20,%ecx
   14000193f:	e8 4c 6d 00 00       	call   140008690 <malloc>
   140001944:	48 89 45 f8          	mov    %rax,-0x8(%rbp)
   140001948:	48 8b 45 10          	mov    0x10(%rbp),%rax
   14000194c:	48 8b 00             	mov    (%rax),%rax
   14000194f:	48 8b 40 08          	mov    0x8(%rax),%rax
   140001953:	48 89 c1             	mov    %rax,%rcx
   140001956:	e8 45 ff ff ff       	call   1400018a0 <findLastItem>
   14000195b:	48 89 45 f0          	mov    %rax,-0x10(%rbp)
   14000195f:	48 8b 45 f8          	mov    -0x8(%rbp),%rax
   140001963:	48 8b 55 20          	mov    0x20(%rbp),%rdx
   140001967:	48 89 50 08          	mov    %rdx,0x8(%rax)
   14000196b:	48 8b 45 20          	mov    0x20(%rbp),%rax
   14000196f:	48 83 c0 01          	add    $0x1,%rax
   140001973:	48 89 c1             	mov    %rax,%rcx
   140001976:	e8 15 6d 00 00       	call   140008690 <malloc>
   14000197b:	48 89 c2             	mov    %rax,%rdx
   14000197e:	48 8b 45 f8          	mov    -0x8(%rbp),%rax
   140001982:	48 89 10             	mov    %rdx,(%rax)
   140001985:	48 8b 45 20          	mov    0x20(%rbp),%rax
   140001989:	48 8d 50 01          	lea    0x1(%rax),%rdx
   14000198d:	48 8b 45 f8          	mov    -0x8(%rbp),%rax
   140001991:	48 8b 00             	mov    (%rax),%rax
   140001994:	49 89 d0             	mov    %rdx,%r8
   140001997:	ba 00 00 00 00       	mov    $0x0,%edx
   14000199c:	48 89 c1             	mov    %rax,%rcx
   14000199f:	e8 fc 6c 00 00       	call   1400086a0 <memset>
   1400019a4:	48 8b 45 f8          	mov    -0x8(%rbp),%rax
   1400019a8:	48 8b 00             	mov    (%rax),%rax
   1400019ab:	48 8b 4d 20          	mov    0x20(%rbp),%rcx
   1400019af:	48 8b 55 18          	mov    0x18(%rbp),%rdx
   1400019b3:	49 89 c8             	mov    %rcx,%r8
   1400019b6:	48 89 c1             	mov    %rax,%rcx
   1400019b9:	e8 da 6c 00 00       	call   140008698 <memcpy>
   1400019be:	48 8b 45 f0          	mov    -0x10(%rbp),%rax
   1400019c2:	48 8b 55 f8          	mov    -0x8(%rbp),%rdx
   1400019c6:	48 89 50 10          	mov    %rdx,0x10(%rax)
   1400019ca:	48 8b 45 f8          	mov    -0x8(%rbp),%rax
   1400019ce:	48 c7 40 10 00 00 00 	movq   $0x0,0x10(%rax)
   1400019d5:	00 
   1400019d6:	48 8b 45 f8          	mov    -0x8(%rbp),%rax
   1400019da:	48 8b 55 f0          	mov    -0x10(%rbp),%rdx
   1400019de:	48 89 50 18          	mov    %rdx,0x18(%rax)
   1400019e2:	48 83 c4 30          	add    $0x30,%rsp
   1400019e6:	5d                   	pop    %rbp
   1400019e7:	c3                   	ret

00000001400019e8 <getItemQueue>:
   1400019e8:	55                   	push   %rbp
   1400019e9:	48 89 e5             	mov    %rsp,%rbp
   1400019ec:	48 83 ec 30          	sub    $0x30,%rsp
   1400019f0:	48 89 4d 10          	mov    %rcx,0x10(%rbp)
   1400019f4:	48 89 55 18          	mov    %rdx,0x18(%rbp)
   1400019f8:	4c 89 45 20          	mov    %r8,0x20(%rbp)
   1400019fc:	48 8b 45 10          	mov    0x10(%rbp),%rax
   140001a00:	48 8b 40 08          	mov    0x8(%rax),%rax
   140001a04:	48 85 c0             	test   %rax,%rax
   140001a07:	75 1b                	jne    140001a24 <getItemQueue+0x3c>
   140001a09:	48 8b 45 18          	mov    0x18(%rbp),%rax
   140001a0d:	48 c7 00 00 00 00 00 	movq   $0x0,(%rax)
   140001a14:	48 8b 45 20          	mov    0x20(%rbp),%rax
   140001a18:	48 c7 00 00 00 00 00 	movq   $0x0,(%rax)
   140001a1f:	e9 80 00 00 00       	jmp    140001aa4 <getItemQueue+0xbc>
   140001a24:	48 8b 45 10          	mov    0x10(%rbp),%rax
   140001a28:	48 8b 40 08          	mov    0x8(%rax),%rax
   140001a2c:	48 89 45 f8          	mov    %rax,-0x8(%rbp)
   140001a30:	48 8b 45 f8          	mov    -0x8(%rbp),%rax
   140001a34:	48 8b 48 08          	mov    0x8(%rax),%rcx
   140001a38:	48 8b 45 f8          	mov    -0x8(%rbp),%rax
   140001a3c:	48 8b 10             	mov    (%rax),%rdx
   140001a3f:	48 8b 45 18          	mov    0x18(%rbp),%rax
   140001a43:	48 8b 00             	mov    (%rax),%rax
   140001a46:	49 89 c8             	mov    %rcx,%r8
   140001a49:	48 89 c1             	mov    %rax,%rcx
   140001a4c:	e8 47 6c 00 00       	call   140008698 <memcpy>
   140001a51:	48 8b 45 f8          	mov    -0x8(%rbp),%rax
   140001a55:	48 8b 50 08          	mov    0x8(%rax),%rdx
   140001a59:	48 8b 45 20          	mov    0x20(%rbp),%rax
   140001a5d:	48 89 10             	mov    %rdx,(%rax)
   140001a60:	48 8b 45 10          	mov    0x10(%rbp),%rax
   140001a64:	48 8b 40 08          	mov    0x8(%rax),%rax
   140001a68:	48 8b 50 10          	mov    0x10(%rax),%rdx
   140001a6c:	48 8b 45 10          	mov    0x10(%rbp),%rax
   140001a70:	48 89 50 08          	mov    %rdx,0x8(%rax)
   140001a74:	48 8b 45 10          	mov    0x10(%rbp),%rax
   140001a78:	48 8b 40 10          	mov    0x10(%rax),%rax
   140001a7c:	48 8d 50 ff          	lea    -0x1(%rax),%rdx
   140001a80:	48 8b 45 10          	mov    0x10(%rbp),%rax
   140001a84:	48 89 50 10          	mov    %rdx,0x10(%rax)
   140001a88:	48 8b 45 f8          	mov    -0x8(%rbp),%rax
   140001a8c:	48 8b 00             	mov    (%rax),%rax
   140001a8f:	48 89 c1             	mov    %rax,%rcx
   140001a92:	e8 e1 6b 00 00       	call   140008678 <free>
   140001a97:	48 8b 45 f8          	mov    -0x8(%rbp),%rax
   140001a9b:	48 89 c1             	mov    %rax,%rcx
   140001a9e:	e8 d5 6b 00 00       	call   140008678 <free>
   140001aa3:	90                   	nop
   140001aa4:	48 83 c4 30          	add    $0x30,%rsp
   140001aa8:	5d                   	pop    %rbp
   140001aa9:	c3                   	ret

0000000140001aaa <printAllQueueHandels>:
   140001aaa:	55                   	push   %rbp
   140001aab:	48 89 e5             	mov    %rsp,%rbp
   140001aae:	48 83 ec 40          	sub    $0x40,%rsp
   140001ab2:	48 c7 45 f8 00 00 00 	movq   $0x0,-0x8(%rbp)
   140001ab9:	00 
   140001aba:	e9 23 01 00 00       	jmp    140001be2 <printAllQueueHandels+0x138>
   140001abf:	48 8b 0d 7a c9 00 00 	mov    0xc97a(%rip),%rcx        # 14000e440 <arrayQueueHandels>
   140001ac6:	48 8b 55 f8          	mov    -0x8(%rbp),%rdx
   140001aca:	48 89 d0             	mov    %rdx,%rax
   140001acd:	48 01 c0             	add    %rax,%rax
   140001ad0:	48 01 d0             	add    %rdx,%rax
   140001ad3:	48 c1 e0 03          	shl    $0x3,%rax
   140001ad7:	48 01 c8             	add    %rcx,%rax
   140001ada:	4c 8b 00             	mov    (%rax),%r8
   140001add:	48 8b 0d 5c c9 00 00 	mov    0xc95c(%rip),%rcx        # 14000e440 <arrayQueueHandels>
   140001ae4:	48 8b 55 f8          	mov    -0x8(%rbp),%rdx
   140001ae8:	48 89 d0             	mov    %rdx,%rax
   140001aeb:	48 01 c0             	add    %rax,%rax
   140001aee:	48 01 d0             	add    %rdx,%rax
   140001af1:	48 c1 e0 03          	shl    $0x3,%rax
   140001af5:	48 01 c8             	add    %rcx,%rax
   140001af8:	48 8b 48 10          	mov    0x10(%rax),%rcx
   140001afc:	4c 8b 0d 3d c9 00 00 	mov    0xc93d(%rip),%r9        # 14000e440 <arrayQueueHandels>
   140001b03:	48 8b 55 f8          	mov    -0x8(%rbp),%rdx
   140001b07:	48 89 d0             	mov    %rdx,%rax
   140001b0a:	48 01 c0             	add    %rax,%rax
   140001b0d:	48 01 d0             	add    %rdx,%rax
   140001b10:	48 c1 e0 03          	shl    $0x3,%rax
   140001b14:	4c 01 c8             	add    %r9,%rax
   140001b17:	4c 8b 50 08          	mov    0x8(%rax),%r10
   140001b1b:	4c 8b 0d 1e c9 00 00 	mov    0xc91e(%rip),%r9        # 14000e440 <arrayQueueHandels>
   140001b22:	48 8b 55 f8          	mov    -0x8(%rbp),%rdx
   140001b26:	48 89 d0             	mov    %rdx,%rax
   140001b29:	48 01 c0             	add    %rax,%rax
   140001b2c:	48 01 d0             	add    %rdx,%rax
   140001b2f:	48 c1 e0 03          	shl    $0x3,%rax
   140001b33:	49 8d 14 01          	lea    (%r9,%rax,1),%rdx
   140001b37:	48 8b 45 f8          	mov    -0x8(%rbp),%rax
   140001b3b:	4c 89 44 24 28       	mov    %r8,0x28(%rsp)
   140001b40:	48 89 4c 24 20       	mov    %rcx,0x20(%rsp)
   140001b45:	4d 89 d1             	mov    %r10,%r9
   140001b48:	49 89 d0             	mov    %rdx,%r8
   140001b4b:	48 89 c2             	mov    %rax,%rdx
   140001b4e:	48 8d 05 fb 84 00 00 	lea    0x84fb(%rip),%rax        # 14000a050 <.rdata+0x40>
   140001b55:	48 89 c1             	mov    %rax,%rcx
   140001b58:	e8 f6 f9 ff ff       	call   140001553 <printf>
   140001b5d:	48 8b 0d dc c8 00 00 	mov    0xc8dc(%rip),%rcx        # 14000e440 <arrayQueueHandels>
   140001b64:	48 8b 55 f8          	mov    -0x8(%rbp),%rdx
   140001b68:	48 89 d0             	mov    %rdx,%rax
   140001b6b:	48 01 c0             	add    %rax,%rax
   140001b6e:	48 01 d0             	add    %rdx,%rax
   140001b71:	48 c1 e0 03          	shl    $0x3,%rax
   140001b75:	48 01 c8             	add    %rcx,%rax
   140001b78:	48 8b 40 08          	mov    0x8(%rax),%rax
   140001b7c:	48 85 c0             	test   %rax,%rax
   140001b7f:	74 5c                	je     140001bdd <printAllQueueHandels+0x133>
   140001b81:	48 8b 0d b8 c8 00 00 	mov    0xc8b8(%rip),%rcx        # 14000e440 <arrayQueueHandels>
   140001b88:	48 8b 55 f8          	mov    -0x8(%rbp),%rdx
   140001b8c:	48 89 d0             	mov    %rdx,%rax
   140001b8f:	48 01 c0             	add    %rax,%rax
   140001b92:	48 01 d0             	add    %rdx,%rax
   140001b95:	48 c1 e0 03          	shl    $0x3,%rax
   140001b99:	48 01 c8             	add    %rcx,%rax
   140001b9c:	48 8b 40 08          	mov    0x8(%rax),%rax
   140001ba0:	48 89 45 f0          	mov    %rax,-0x10(%rbp)
   140001ba4:	eb 30                	jmp    140001bd6 <printAllQueueHandels+0x12c>
   140001ba6:	48 8b 45 f0          	mov    -0x10(%rbp),%rax
   140001baa:	48 8b 50 08          	mov    0x8(%rax),%rdx
   140001bae:	48 8b 45 f0          	mov    -0x10(%rbp),%rax
   140001bb2:	48 8b 00             	mov    (%rax),%rax
   140001bb5:	49 89 d0             	mov    %rdx,%r8
   140001bb8:	48 89 c2             	mov    %rax,%rdx
   140001bbb:	48 8d 05 c1 84 00 00 	lea    0x84c1(%rip),%rax        # 14000a083 <.rdata+0x73>
   140001bc2:	48 89 c1             	mov    %rax,%rcx
   140001bc5:	e8 89 f9 ff ff       	call   140001553 <printf>
   140001bca:	48 8b 45 f0          	mov    -0x10(%rbp),%rax
   140001bce:	48 8b 40 10          	mov    0x10(%rax),%rax
   140001bd2:	48 89 45 f0          	mov    %rax,-0x10(%rbp)
   140001bd6:	48 83 7d f0 00       	cmpq   $0x0,-0x10(%rbp)
   140001bdb:	75 c9                	jne    140001ba6 <printAllQueueHandels+0xfc>
   140001bdd:	48 83 45 f8 01       	addq   $0x1,-0x8(%rbp)
   140001be2:	48 8b 05 5f c8 00 00 	mov    0xc85f(%rip),%rax        # 14000e448 <currentSize>
   140001be9:	48 39 45 f8          	cmp    %rax,-0x8(%rbp)
   140001bed:	0f 82 cc fe ff ff    	jb     140001abf <printAllQueueHandels+0x15>
   140001bf3:	90                   	nop
   140001bf4:	90                   	nop
   140001bf5:	48 83 c4 40          	add    $0x40,%rsp
   140001bf9:	5d                   	pop    %rbp
   140001bfa:	c3                   	ret

0000000140001bfb <delAllQueueHandels>:
   140001bfb:	55                   	push   %rbp
   140001bfc:	48 89 e5             	mov    %rsp,%rbp
   140001bff:	48 83 ec 30          	sub    $0x30,%rsp
   140001c03:	48 c7 45 f8 00 00 00 	movq   $0x0,-0x8(%rbp)
   140001c0a:	00 
   140001c0b:	eb 50                	jmp    140001c5d <delAllQueueHandels+0x62>
   140001c0d:	48 8b 0d 2c c8 00 00 	mov    0xc82c(%rip),%rcx        # 14000e440 <arrayQueueHandels>
   140001c14:	48 8b 55 f8          	mov    -0x8(%rbp),%rdx
   140001c18:	48 89 d0             	mov    %rdx,%rax
   140001c1b:	48 01 c0             	add    %rax,%rax
   140001c1e:	48 01 d0             	add    %rdx,%rax
   140001c21:	48 c1 e0 03          	shl    $0x3,%rax
   140001c25:	48 01 c8             	add    %rcx,%rax
   140001c28:	48 8b 40 08          	mov    0x8(%rax),%rax
   140001c2c:	48 85 c0             	test   %rax,%rax
   140001c2f:	74 27                	je     140001c58 <delAllQueueHandels+0x5d>
   140001c31:	48 8b 0d 08 c8 00 00 	mov    0xc808(%rip),%rcx        # 14000e440 <arrayQueueHandels>
   140001c38:	48 8b 55 f8          	mov    -0x8(%rbp),%rdx
   140001c3c:	48 89 d0             	mov    %rdx,%rax
   140001c3f:	48 01 c0             	add    %rax,%rax
   140001c42:	48 01 d0             	add    %rdx,%rax
   140001c45:	48 c1 e0 03          	shl    $0x3,%rax
   140001c49:	48 01 c8             	add    %rcx,%rax
   140001c4c:	48 83 c0 08          	add    $0x8,%rax
   140001c50:	48 89 c1             	mov    %rax,%rcx
   140001c53:	e8 c2 fb ff ff       	call   14000181a <delAllList>
   140001c58:	48 83 45 f8 01       	addq   $0x1,-0x8(%rbp)
   140001c5d:	48 8b 05 e4 c7 00 00 	mov    0xc7e4(%rip),%rax        # 14000e448 <currentSize>
   140001c64:	48 39 45 f8          	cmp    %rax,-0x8(%rbp)
   140001c68:	72 a3                	jb     140001c0d <delAllQueueHandels+0x12>
   140001c6a:	48 8b 05 cf c7 00 00 	mov    0xc7cf(%rip),%rax        # 14000e440 <arrayQueueHandels>
   140001c71:	48 89 c1             	mov    %rax,%rcx
   140001c74:	e8 ff 69 00 00       	call   140008678 <free>
   140001c79:	90                   	nop
   140001c7a:	48 83 c4 30          	add    $0x30,%rsp
   140001c7e:	5d                   	pop    %rbp
   140001c7f:	c3                   	ret

0000000140001c80 <printf>:
   140001c80:	55                   	push   %rbp
   140001c81:	53                   	push   %rbx
   140001c82:	48 83 ec 38          	sub    $0x38,%rsp
   140001c86:	48 8d 6c 24 30       	lea    0x30(%rsp),%rbp
   140001c8b:	48 89 4d 20          	mov    %rcx,0x20(%rbp)
   140001c8f:	48 89 55 28          	mov    %rdx,0x28(%rbp)
   140001c93:	4c 89 45 30          	mov    %r8,0x30(%rbp)
   140001c97:	4c 89 4d 38          	mov    %r9,0x38(%rbp)
   140001c9b:	48 8d 45 28          	lea    0x28(%rbp),%rax
   140001c9f:	48 89 45 f0          	mov    %rax,-0x10(%rbp)
   140001ca3:	48 8b 5d f0          	mov    -0x10(%rbp),%rbx
   140001ca7:	b9 01 00 00 00       	mov    $0x1,%ecx
   140001cac:	48 8b 05 1d 74 00 00 	mov    0x741d(%rip),%rax        # 1400090d0 <__imp___acrt_iob_func>
   140001cb3:	ff d0                	call   *%rax
   140001cb5:	48 89 c1             	mov    %rax,%rcx
   140001cb8:	48 8b 45 20          	mov    0x20(%rbp),%rax
   140001cbc:	49 89 d8             	mov    %rbx,%r8
   140001cbf:	48 89 c2             	mov    %rax,%rdx
   140001cc2:	e8 59 14 00 00       	call   140003120 <__mingw_vfprintf>
   140001cc7:	89 45 fc             	mov    %eax,-0x4(%rbp)
   140001cca:	8b 45 fc             	mov    -0x4(%rbp),%eax
   140001ccd:	48 83 c4 38          	add    $0x38,%rsp
   140001cd1:	5b                   	pop    %rbx
   140001cd2:	5d                   	pop    %rbp
   140001cd3:	c3                   	ret

0000000140001cd4 <openAndSettingSerial>:
   140001cd4:	55                   	push   %rbp
   140001cd5:	48 89 e5             	mov    %rsp,%rbp
   140001cd8:	48 83 ec 40          	sub    $0x40,%rsp
   140001cdc:	48 89 4d 10          	mov    %rcx,0x10(%rbp)
   140001ce0:	48 8b 45 10          	mov    0x10(%rbp),%rax
   140001ce4:	48 8b 00             	mov    (%rax),%rax
   140001ce7:	48 c7 44 24 30 00 00 	movq   $0x0,0x30(%rsp)
   140001cee:	00 00 
   140001cf0:	c7 44 24 28 00 00 00 	movl   $0x40000000,0x28(%rsp)
   140001cf7:	40 
   140001cf8:	c7 44 24 20 03 00 00 	movl   $0x3,0x20(%rsp)
   140001cff:	00 
   140001d00:	41 b9 00 00 00 00    	mov    $0x0,%r9d
   140001d06:	41 b8 00 00 00 00    	mov    $0x0,%r8d
   140001d0c:	ba 00 00 00 c0       	mov    $0xc0000000,%edx
   140001d11:	48 89 c1             	mov    %rax,%rcx
   140001d14:	48 8b 05 05 d5 00 00 	mov    0xd505(%rip),%rax        # 14000f220 <__imp_CreateFileA>
   140001d1b:	ff d0                	call   *%rax
   140001d1d:	48 89 05 2c c7 00 00 	mov    %rax,0xc72c(%rip)        # 14000e450 <hComm>
   140001d24:	48 8b 05 25 c7 00 00 	mov    0xc725(%rip),%rax        # 14000e450 <hComm>
   140001d2b:	48 83 f8 ff          	cmp    $0xffffffffffffffff,%rax
   140001d2f:	75 07                	jne    140001d38 <openAndSettingSerial+0x64>
   140001d31:	b8 01 00 00 00       	mov    $0x1,%eax
   140001d36:	eb 05                	jmp    140001d3d <openAndSettingSerial+0x69>
   140001d38:	b8 00 00 00 00       	mov    $0x0,%eax
   140001d3d:	48 83 c4 40          	add    $0x40,%rsp
   140001d41:	5d                   	pop    %rbp
   140001d42:	c3                   	ret

0000000140001d43 <requestForRead>:
   140001d43:	55                   	push   %rbp
   140001d44:	48 89 e5             	mov    %rsp,%rbp
   140001d47:	48 83 ec 40          	sub    $0x40,%rsp
   140001d4b:	48 89 4d 10          	mov    %rcx,0x10(%rbp)
   140001d4f:	48 89 55 18          	mov    %rdx,0x18(%rbp)
   140001d53:	4c 89 45 20          	mov    %r8,0x20(%rbp)
   140001d57:	48 8b 45 18          	mov    0x18(%rbp),%rax
   140001d5b:	41 89 c2             	mov    %eax,%r10d
   140001d5e:	48 8b 05 eb c6 00 00 	mov    0xc6eb(%rip),%rax        # 14000e450 <hComm>
   140001d65:	4c 8d 45 fc          	lea    -0x4(%rbp),%r8
   140001d69:	48 8b 55 10          	mov    0x10(%rbp),%rdx
   140001d6d:	48 8b 4d 20          	mov    0x20(%rbp),%rcx
   140001d71:	48 89 4c 24 20       	mov    %rcx,0x20(%rsp)
   140001d76:	4d 89 c1             	mov    %r8,%r9
   140001d79:	45 89 d0             	mov    %r10d,%r8d
   140001d7c:	48 89 c1             	mov    %rax,%rcx
   140001d7f:	48 8b 05 e2 d4 00 00 	mov    0xd4e2(%rip),%rax        # 14000f268 <__imp_ReadFile>
   140001d86:	ff d0                	call   *%rax
   140001d88:	85 c0                	test   %eax,%eax
   140001d8a:	75 17                	jne    140001da3 <requestForRead+0x60>
   140001d8c:	48 8b 05 a5 d4 00 00 	mov    0xd4a5(%rip),%rax        # 14000f238 <__imp_GetLastError>
   140001d93:	ff d0                	call   *%rax
   140001d95:	3d e5 03 00 00       	cmp    $0x3e5,%eax
   140001d9a:	75 3b                	jne    140001dd7 <requestForRead+0x94>
   140001d9c:	b8 01 00 00 00       	mov    $0x1,%eax
   140001da1:	eb 39                	jmp    140001ddc <requestForRead+0x99>
   140001da3:	8b 55 fc             	mov    -0x4(%rbp),%edx
   140001da6:	48 8b 45 10          	mov    0x10(%rbp),%rax
   140001daa:	41 89 d0             	mov    %edx,%r8d
   140001dad:	48 89 c2             	mov    %rax,%rdx
   140001db0:	48 8d 05 f9 82 00 00 	lea    0x82f9(%rip),%rax        # 14000a0b0 <.rdata>
   140001db7:	48 89 c1             	mov    %rax,%rcx
   140001dba:	e8 c1 fe ff ff       	call   140001c80 <printf>
   140001dbf:	48 8b 55 18          	mov    0x18(%rbp),%rdx
   140001dc3:	48 8b 45 10          	mov    0x10(%rbp),%rax
   140001dc7:	49 89 d0             	mov    %rdx,%r8
   140001dca:	ba 00 00 00 00       	mov    $0x0,%edx
   140001dcf:	48 89 c1             	mov    %rax,%rcx
   140001dd2:	e8 c9 68 00 00       	call   1400086a0 <memset>
   140001dd7:	b8 00 00 00 00       	mov    $0x0,%eax
   140001ddc:	48 83 c4 40          	add    $0x40,%rsp
   140001de0:	5d                   	pop    %rbp
   140001de1:	c3                   	ret

0000000140001de2 <waitAnswerRequestRead>:
   140001de2:	55                   	push   %rbp
   140001de3:	48 89 e5             	mov    %rsp,%rbp
   140001de6:	48 83 ec 30          	sub    $0x30,%rsp
   140001dea:	48 89 4d 10          	mov    %rcx,0x10(%rbp)
   140001dee:	48 89 55 18          	mov    %rdx,0x18(%rbp)
   140001df2:	4c 89 45 20          	mov    %r8,0x20(%rbp)
   140001df6:	c7 45 fc 01 00 00 00 	movl   $0x1,-0x4(%rbp)
   140001dfd:	48 8b 45 20          	mov    0x20(%rbp),%rax
   140001e01:	48 8b 40 18          	mov    0x18(%rax),%rax
   140001e05:	ba 0a 00 00 00       	mov    $0xa,%edx
   140001e0a:	48 89 c1             	mov    %rax,%rcx
   140001e0d:	48 8b 05 84 d4 00 00 	mov    0xd484(%rip),%rax        # 14000f298 <__imp_WaitForSingleObject>
   140001e14:	ff d0                	call   *%rax
   140001e16:	89 45 f8             	mov    %eax,-0x8(%rbp)
   140001e19:	83 7d f8 00          	cmpl   $0x0,-0x8(%rbp)
   140001e1d:	74 0b                	je     140001e2a <waitAnswerRequestRead+0x48>
   140001e1f:	81 7d f8 02 01 00 00 	cmpl   $0x102,-0x8(%rbp)
   140001e26:	74 67                	je     140001e8f <waitAnswerRequestRead+0xad>
   140001e28:	eb 66                	jmp    140001e90 <waitAnswerRequestRead+0xae>
   140001e2a:	48 8b 05 1f c6 00 00 	mov    0xc61f(%rip),%rax        # 14000e450 <hComm>
   140001e31:	48 8d 4d f4          	lea    -0xc(%rbp),%rcx
   140001e35:	48 8b 55 20          	mov    0x20(%rbp),%rdx
   140001e39:	41 b9 00 00 00 00    	mov    $0x0,%r9d
   140001e3f:	49 89 c8             	mov    %rcx,%r8
   140001e42:	48 89 c1             	mov    %rax,%rcx
   140001e45:	48 8b 05 f4 d3 00 00 	mov    0xd3f4(%rip),%rax        # 14000f240 <__imp_GetOverlappedResult>
   140001e4c:	ff d0                	call   *%rax
   140001e4e:	85 c0                	test   %eax,%eax
   140001e50:	74 34                	je     140001e86 <waitAnswerRequestRead+0xa4>
   140001e52:	8b 55 f4             	mov    -0xc(%rbp),%edx
   140001e55:	48 8b 45 10          	mov    0x10(%rbp),%rax
   140001e59:	41 89 d0             	mov    %edx,%r8d
   140001e5c:	48 89 c2             	mov    %rax,%rdx
   140001e5f:	48 8d 05 72 82 00 00 	lea    0x8272(%rip),%rax        # 14000a0d8 <.rdata+0x28>
   140001e66:	48 89 c1             	mov    %rax,%rcx
   140001e69:	e8 12 fe ff ff       	call   140001c80 <printf>
   140001e6e:	48 8b 55 18          	mov    0x18(%rbp),%rdx
   140001e72:	48 8b 45 10          	mov    0x10(%rbp),%rax
   140001e76:	49 89 d0             	mov    %rdx,%r8
   140001e79:	ba 00 00 00 00       	mov    $0x0,%edx
   140001e7e:	48 89 c1             	mov    %rax,%rcx
   140001e81:	e8 1a 68 00 00       	call   1400086a0 <memset>
   140001e86:	c7 45 fc 00 00 00 00 	movl   $0x0,-0x4(%rbp)
   140001e8d:	eb 01                	jmp    140001e90 <waitAnswerRequestRead+0xae>
   140001e8f:	90                   	nop
   140001e90:	8b 45 fc             	mov    -0x4(%rbp),%eax
   140001e93:	48 83 c4 30          	add    $0x30,%rsp
   140001e97:	5d                   	pop    %rbp
   140001e98:	c3                   	ret

0000000140001e99 <SerialThread>:
   140001e99:	55                   	push   %rbp
   140001e9a:	48 89 e5             	mov    %rsp,%rbp
   140001e9d:	48 83 ec 50          	sub    $0x50,%rsp
   140001ea1:	48 89 4d 10          	mov    %rcx,0x10(%rbp)
   140001ea5:	48 8b 45 10          	mov    0x10(%rbp),%rax
   140001ea9:	48 89 45 f0          	mov    %rax,-0x10(%rbp)
   140001ead:	c7 45 fc 00 00 00 00 	movl   $0x0,-0x4(%rbp)
   140001eb4:	66 0f ef c0          	pxor   %xmm0,%xmm0
   140001eb8:	0f 11 45 d0          	movups %xmm0,-0x30(%rbp)
   140001ebc:	0f 11 45 e0          	movups %xmm0,-0x20(%rbp)
   140001ec0:	41 b9 00 00 00 00    	mov    $0x0,%r9d
   140001ec6:	41 b8 00 00 00 00    	mov    $0x0,%r8d
   140001ecc:	ba 01 00 00 00       	mov    $0x1,%edx
   140001ed1:	b9 00 00 00 00       	mov    $0x0,%ecx
   140001ed6:	48 8b 05 3b d3 00 00 	mov    0xd33b(%rip),%rax        # 14000f218 <__IAT_start__>
   140001edd:	ff d0                	call   *%rax
   140001edf:	48 89 45 e8          	mov    %rax,-0x18(%rbp)
   140001ee3:	48 8b 45 e8          	mov    -0x18(%rbp),%rax
   140001ee7:	48 85 c0             	test   %rax,%rax
   140001eea:	75 0f                	jne    140001efb <SerialThread+0x62>
   140001eec:	48 8d 05 0d 82 00 00 	lea    0x820d(%rip),%rax        # 14000a100 <.rdata+0x50>
   140001ef3:	48 89 c1             	mov    %rax,%rcx
   140001ef6:	e8 85 fd ff ff       	call   140001c80 <printf>
   140001efb:	83 7d fc 00          	cmpl   $0x0,-0x4(%rbp)
   140001eff:	74 08                	je     140001f09 <SerialThread+0x70>
   140001f01:	83 7d fc 01          	cmpl   $0x1,-0x4(%rbp)
   140001f05:	74 26                	je     140001f2d <SerialThread+0x94>
   140001f07:	eb 47                	jmp    140001f50 <SerialThread+0xb7>
   140001f09:	48 8b 45 f0          	mov    -0x10(%rbp),%rax
   140001f0d:	48 8b 50 10          	mov    0x10(%rax),%rdx
   140001f11:	48 8b 45 f0          	mov    -0x10(%rbp),%rax
   140001f15:	48 8b 40 08          	mov    0x8(%rax),%rax
   140001f19:	48 8d 4d d0          	lea    -0x30(%rbp),%rcx
   140001f1d:	49 89 c8             	mov    %rcx,%r8
   140001f20:	48 89 c1             	mov    %rax,%rcx
   140001f23:	e8 1b fe ff ff       	call   140001d43 <requestForRead>
   140001f28:	89 45 fc             	mov    %eax,-0x4(%rbp)
   140001f2b:	eb 23                	jmp    140001f50 <SerialThread+0xb7>
   140001f2d:	48 8b 45 f0          	mov    -0x10(%rbp),%rax
   140001f31:	48 8b 50 10          	mov    0x10(%rax),%rdx
   140001f35:	48 8b 45 f0          	mov    -0x10(%rbp),%rax
   140001f39:	48 8b 40 08          	mov    0x8(%rax),%rax
   140001f3d:	48 8d 4d d0          	lea    -0x30(%rbp),%rcx
   140001f41:	49 89 c8             	mov    %rcx,%r8
   140001f44:	48 89 c1             	mov    %rax,%rcx
   140001f47:	e8 96 fe ff ff       	call   140001de2 <waitAnswerRequestRead>
   140001f4c:	89 45 fc             	mov    %eax,-0x4(%rbp)
   140001f4f:	90                   	nop
   140001f50:	eb a9                	jmp    140001efb <SerialThread+0x62>
   140001f52:	90                   	nop
   140001f53:	90                   	nop
   140001f54:	90                   	nop
   140001f55:	90                   	nop
   140001f56:	90                   	nop
   140001f57:	90                   	nop
   140001f58:	90                   	nop
   140001f59:	90                   	nop
   140001f5a:	90                   	nop
   140001f5b:	90                   	nop
   140001f5c:	90                   	nop
   140001f5d:	90                   	nop
   140001f5e:	90                   	nop
   140001f5f:	90                   	nop

0000000140001f60 <printf>:
   140001f60:	55                   	push   %rbp
   140001f61:	53                   	push   %rbx
   140001f62:	48 83 ec 38          	sub    $0x38,%rsp
   140001f66:	48 8d 6c 24 30       	lea    0x30(%rsp),%rbp
   140001f6b:	48 89 4d 20          	mov    %rcx,0x20(%rbp)
   140001f6f:	48 89 55 28          	mov    %rdx,0x28(%rbp)
   140001f73:	4c 89 45 30          	mov    %r8,0x30(%rbp)
   140001f77:	4c 89 4d 38          	mov    %r9,0x38(%rbp)
   140001f7b:	48 8d 45 28          	lea    0x28(%rbp),%rax
   140001f7f:	48 89 45 f0          	mov    %rax,-0x10(%rbp)
   140001f83:	48 8b 5d f0          	mov    -0x10(%rbp),%rbx
   140001f87:	b9 01 00 00 00       	mov    $0x1,%ecx
   140001f8c:	48 8b 05 3d 71 00 00 	mov    0x713d(%rip),%rax        # 1400090d0 <__imp___acrt_iob_func>
   140001f93:	ff d0                	call   *%rax
   140001f95:	48 89 c1             	mov    %rax,%rcx
   140001f98:	48 8b 45 20          	mov    0x20(%rbp),%rax
   140001f9c:	49 89 d8             	mov    %rbx,%r8
   140001f9f:	48 89 c2             	mov    %rax,%rdx
   140001fa2:	e8 79 11 00 00       	call   140003120 <__mingw_vfprintf>
   140001fa7:	89 45 fc             	mov    %eax,-0x4(%rbp)
   140001faa:	8b 45 fc             	mov    -0x4(%rbp),%eax
   140001fad:	48 83 c4 38          	add    $0x38,%rsp
   140001fb1:	5b                   	pop    %rbx
   140001fb2:	5d                   	pop    %rbp
   140001fb3:	c3                   	ret

0000000140001fb4 <printThread>:
   140001fb4:	55                   	push   %rbp
   140001fb5:	48 89 e5             	mov    %rsp,%rbp
   140001fb8:	48 83 ec 60          	sub    $0x60,%rsp
   140001fbc:	48 89 4d 10          	mov    %rcx,0x10(%rbp)
   140001fc0:	48 8b 45 10          	mov    0x10(%rbp),%rax
   140001fc4:	48 89 45 f8          	mov    %rax,-0x8(%rbp)
   140001fc8:	c7 45 f4 00 00 00 00 	movl   $0x0,-0xc(%rbp)
   140001fcf:	48 c7 45 e0 00 00 00 	movq   $0x0,-0x20(%rbp)
   140001fd6:	00 
   140001fd7:	c7 45 e8 00 00 00 00 	movl   $0x0,-0x18(%rbp)
   140001fde:	48 c7 45 e0 01 00 00 	movq   $0x1,-0x20(%rbp)
   140001fe5:	00 
   140001fe6:	c7 45 e8 00 65 cd 1d 	movl   $0x1dcd6500,-0x18(%rbp)
   140001fed:	b9 0a 00 00 00       	mov    $0xa,%ecx
   140001ff2:	e8 99 66 00 00       	call   140008690 <malloc>
   140001ff7:	48 89 45 d0          	mov    %rax,-0x30(%rbp)
   140001ffb:	48 8b 45 d0          	mov    -0x30(%rbp),%rax
   140001fff:	48 83 c0 04          	add    $0x4,%rax
   140002003:	c6 00 00             	movb   $0x0,(%rax)
   140002006:	e8 65 67 00 00       	call   140008770 <pthread_testcancel>
   14000200b:	48 8b 45 d0          	mov    -0x30(%rbp),%rax
   14000200f:	48 89 45 c8          	mov    %rax,-0x38(%rbp)
   140002013:	48 8d 45 d0          	lea    -0x30(%rbp),%rax
   140002017:	48 8d 48 08          	lea    0x8(%rax),%rcx
   14000201b:	48 8d 55 c8          	lea    -0x38(%rbp),%rdx
   14000201f:	48 8b 45 f8          	mov    -0x8(%rbp),%rax
   140002023:	49 89 c8             	mov    %rcx,%r8
   140002026:	48 89 c1             	mov    %rax,%rcx
   140002029:	e8 ba f9 ff ff       	call   1400019e8 <getItemQueue>
   14000202e:	48 8b 45 c8          	mov    -0x38(%rbp),%rax
   140002032:	48 85 c0             	test   %rax,%rax
   140002035:	74 1d                	je     140002054 <printThread+0xa0>
   140002037:	48 8b 55 d8          	mov    -0x28(%rbp),%rdx
   14000203b:	48 8b 45 d0          	mov    -0x30(%rbp),%rax
   14000203f:	49 89 d0             	mov    %rdx,%r8
   140002042:	48 89 c2             	mov    %rax,%rdx
   140002045:	48 8d 05 e4 80 00 00 	lea    0x80e4(%rip),%rax        # 14000a130 <.rdata>
   14000204c:	48 89 c1             	mov    %rax,%rcx
   14000204f:	e8 0c ff ff ff       	call   140001f60 <printf>
   140002054:	48 8d 45 e0          	lea    -0x20(%rbp),%rax
   140002058:	48 89 c1             	mov    %rax,%rcx
   14000205b:	e8 18 67 00 00       	call   140008778 <pthread_delay_np>
   140002060:	89 45 f4             	mov    %eax,-0xc(%rbp)
   140002063:	83 7d f4 00          	cmpl   $0x0,-0xc(%rbp)
   140002067:	74 9d                	je     140002006 <printThread+0x52>
   140002069:	48 8d 05 cf 80 00 00 	lea    0x80cf(%rip),%rax        # 14000a13f <.rdata+0xf>
   140002070:	48 89 c1             	mov    %rax,%rcx
   140002073:	e8 e8 fe ff ff       	call   140001f60 <printf>
   140002078:	eb 8c                	jmp    140002006 <printThread+0x52>
   14000207a:	90                   	nop
   14000207b:	90                   	nop
   14000207c:	90                   	nop
   14000207d:	90                   	nop
   14000207e:	90                   	nop
   14000207f:	90                   	nop

0000000140002080 <__do_global_dtors>:
   140002080:	48 83 ec 28          	sub    $0x28,%rsp
   140002084:	48 8b 05 85 6f 00 00 	mov    0x6f85(%rip),%rax        # 140009010 <p.0>
   14000208b:	48 8b 00             	mov    (%rax),%rax
   14000208e:	48 85 c0             	test   %rax,%rax
   140002091:	74 22                	je     1400020b5 <__do_global_dtors+0x35>
   140002093:	0f 1f 44 00 00       	nopl   0x0(%rax,%rax,1)
   140002098:	ff d0                	call   *%rax
   14000209a:	48 8b 05 6f 6f 00 00 	mov    0x6f6f(%rip),%rax        # 140009010 <p.0>
   1400020a1:	48 8d 50 08          	lea    0x8(%rax),%rdx
   1400020a5:	48 8b 40 08          	mov    0x8(%rax),%rax
   1400020a9:	48 89 15 60 6f 00 00 	mov    %rdx,0x6f60(%rip)        # 140009010 <p.0>
   1400020b0:	48 85 c0             	test   %rax,%rax
   1400020b3:	75 e3                	jne    140002098 <__do_global_dtors+0x18>
   1400020b5:	48 83 c4 28          	add    $0x28,%rsp
   1400020b9:	c3                   	ret
   1400020ba:	66 0f 1f 44 00 00    	nopw   0x0(%rax,%rax,1)

00000001400020c0 <__do_global_ctors>:
   1400020c0:	56                   	push   %rsi
   1400020c1:	53                   	push   %rbx
   1400020c2:	48 83 ec 28          	sub    $0x28,%rsp
   1400020c6:	48 8b 15 73 87 00 00 	mov    0x8773(%rip),%rdx        # 14000a840 <.refptr.__CTOR_LIST__>
   1400020cd:	48 8b 02             	mov    (%rdx),%rax
   1400020d0:	89 c1                	mov    %eax,%ecx
   1400020d2:	83 f8 ff             	cmp    $0xffffffff,%eax
   1400020d5:	74 39                	je     140002110 <__do_global_ctors+0x50>
   1400020d7:	85 c9                	test   %ecx,%ecx
   1400020d9:	74 20                	je     1400020fb <__do_global_ctors+0x3b>
   1400020db:	89 c8                	mov    %ecx,%eax
   1400020dd:	83 e9 01             	sub    $0x1,%ecx
   1400020e0:	48 8d 1c c2          	lea    (%rdx,%rax,8),%rbx
   1400020e4:	48 29 c8             	sub    %rcx,%rax
   1400020e7:	48 8d 74 c2 f8       	lea    -0x8(%rdx,%rax,8),%rsi
   1400020ec:	0f 1f 40 00          	nopl   0x0(%rax)
   1400020f0:	ff 13                	call   *(%rbx)
   1400020f2:	48 83 eb 08          	sub    $0x8,%rbx
   1400020f6:	48 39 f3             	cmp    %rsi,%rbx
   1400020f9:	75 f5                	jne    1400020f0 <__do_global_ctors+0x30>
   1400020fb:	48 8d 0d 7e ff ff ff 	lea    -0x82(%rip),%rcx        # 140002080 <__do_global_dtors>
   140002102:	48 83 c4 28          	add    $0x28,%rsp
   140002106:	5b                   	pop    %rbx
   140002107:	5e                   	pop    %rsi
   140002108:	e9 03 f3 ff ff       	jmp    140001410 <atexit>
   14000210d:	0f 1f 00             	nopl   (%rax)
   140002110:	31 c0                	xor    %eax,%eax
   140002112:	66 0f 1f 44 00 00    	nopw   0x0(%rax,%rax,1)
   140002118:	44 8d 40 01          	lea    0x1(%rax),%r8d
   14000211c:	89 c1                	mov    %eax,%ecx
   14000211e:	4a 83 3c c2 00       	cmpq   $0x0,(%rdx,%r8,8)
   140002123:	4c 89 c0             	mov    %r8,%rax
   140002126:	75 f0                	jne    140002118 <__do_global_ctors+0x58>
   140002128:	eb ad                	jmp    1400020d7 <__do_global_ctors+0x17>
   14000212a:	66 0f 1f 44 00 00    	nopw   0x0(%rax,%rax,1)

0000000140002130 <__main>:
   140002130:	8b 05 2a c3 00 00    	mov    0xc32a(%rip),%eax        # 14000e460 <initialized>
   140002136:	85 c0                	test   %eax,%eax
   140002138:	74 06                	je     140002140 <__main+0x10>
   14000213a:	c3                   	ret
   14000213b:	0f 1f 44 00 00       	nopl   0x0(%rax,%rax,1)
   140002140:	c7 05 16 c3 00 00 01 	movl   $0x1,0xc316(%rip)        # 14000e460 <initialized>
   140002147:	00 00 00 
   14000214a:	e9 71 ff ff ff       	jmp    1400020c0 <__do_global_ctors>
   14000214f:	90                   	nop

0000000140002150 <_setargv>:
   140002150:	31 c0                	xor    %eax,%eax
   140002152:	c3                   	ret
   140002153:	90                   	nop
   140002154:	90                   	nop
   140002155:	90                   	nop
   140002156:	90                   	nop
   140002157:	90                   	nop
   140002158:	90                   	nop
   140002159:	90                   	nop
   14000215a:	90                   	nop
   14000215b:	90                   	nop
   14000215c:	90                   	nop
   14000215d:	90                   	nop
   14000215e:	90                   	nop
   14000215f:	90                   	nop

0000000140002160 <__dyn_tls_dtor>:
   140002160:	48 83 ec 28          	sub    $0x28,%rsp
   140002164:	83 fa 03             	cmp    $0x3,%edx
   140002167:	74 17                	je     140002180 <__dyn_tls_dtor+0x20>
   140002169:	85 d2                	test   %edx,%edx
   14000216b:	74 13                	je     140002180 <__dyn_tls_dtor+0x20>
   14000216d:	b8 01 00 00 00       	mov    $0x1,%eax
   140002172:	48 83 c4 28          	add    $0x28,%rsp
   140002176:	c3                   	ret
   140002177:	66 0f 1f 84 00 00 00 	nopw   0x0(%rax,%rax,1)
   14000217e:	00 00 
   140002180:	e8 5b 0a 00 00       	call   140002be0 <__mingw_TLScallback>
   140002185:	b8 01 00 00 00       	mov    $0x1,%eax
   14000218a:	48 83 c4 28          	add    $0x28,%rsp
   14000218e:	c3                   	ret
   14000218f:	90                   	nop

0000000140002190 <__dyn_tls_init>:
   140002190:	56                   	push   %rsi
   140002191:	53                   	push   %rbx
   140002192:	48 83 ec 28          	sub    $0x28,%rsp
   140002196:	48 8b 05 83 86 00 00 	mov    0x8683(%rip),%rax        # 14000a820 <.refptr._CRT_MT>
   14000219d:	83 38 02             	cmpl   $0x2,(%rax)
   1400021a0:	74 06                	je     1400021a8 <__dyn_tls_init+0x18>
   1400021a2:	c7 00 02 00 00 00    	movl   $0x2,(%rax)
   1400021a8:	83 fa 02             	cmp    $0x2,%edx
   1400021ab:	74 13                	je     1400021c0 <__dyn_tls_init+0x30>
   1400021ad:	83 fa 01             	cmp    $0x1,%edx
   1400021b0:	74 4e                	je     140002200 <__dyn_tls_init+0x70>
   1400021b2:	b8 01 00 00 00       	mov    $0x1,%eax
   1400021b7:	48 83 c4 28          	add    $0x28,%rsp
   1400021bb:	5b                   	pop    %rbx
   1400021bc:	5e                   	pop    %rsi
   1400021bd:	c3                   	ret
   1400021be:	66 90                	xchg   %ax,%ax
   1400021c0:	48 8d 1d 91 de 00 00 	lea    0xde91(%rip),%rbx        # 140010058 <__xd_z>
   1400021c7:	48 8d 35 8a de 00 00 	lea    0xde8a(%rip),%rsi        # 140010058 <__xd_z>
   1400021ce:	48 39 de             	cmp    %rbx,%rsi
   1400021d1:	74 df                	je     1400021b2 <__dyn_tls_init+0x22>
   1400021d3:	0f 1f 44 00 00       	nopl   0x0(%rax,%rax,1)
   1400021d8:	48 8b 03             	mov    (%rbx),%rax
   1400021db:	48 85 c0             	test   %rax,%rax
   1400021de:	74 02                	je     1400021e2 <__dyn_tls_init+0x52>
   1400021e0:	ff d0                	call   *%rax
   1400021e2:	48 83 c3 08          	add    $0x8,%rbx
   1400021e6:	48 39 de             	cmp    %rbx,%rsi
   1400021e9:	75 ed                	jne    1400021d8 <__dyn_tls_init+0x48>
   1400021eb:	b8 01 00 00 00       	mov    $0x1,%eax
   1400021f0:	48 83 c4 28          	add    $0x28,%rsp
   1400021f4:	5b                   	pop    %rbx
   1400021f5:	5e                   	pop    %rsi
   1400021f6:	c3                   	ret
   1400021f7:	66 0f 1f 84 00 00 00 	nopw   0x0(%rax,%rax,1)
   1400021fe:	00 00 
   140002200:	e8 db 09 00 00       	call   140002be0 <__mingw_TLScallback>
   140002205:	b8 01 00 00 00       	mov    $0x1,%eax
   14000220a:	48 83 c4 28          	add    $0x28,%rsp
   14000220e:	5b                   	pop    %rbx
   14000220f:	5e                   	pop    %rsi
   140002210:	c3                   	ret
   140002211:	66 66 2e 0f 1f 84 00 	data16 cs nopw 0x0(%rax,%rax,1)
   140002218:	00 00 00 00 
   14000221c:	0f 1f 40 00          	nopl   0x0(%rax)

0000000140002220 <__tlregdtor>:
   140002220:	31 c0                	xor    %eax,%eax
   140002222:	c3                   	ret
   140002223:	90                   	nop
   140002224:	90                   	nop
   140002225:	90                   	nop
   140002226:	90                   	nop
   140002227:	90                   	nop
   140002228:	90                   	nop
   140002229:	90                   	nop
   14000222a:	90                   	nop
   14000222b:	90                   	nop
   14000222c:	90                   	nop
   14000222d:	90                   	nop
   14000222e:	90                   	nop
   14000222f:	90                   	nop

0000000140002230 <_matherr>:
   140002230:	56                   	push   %rsi
   140002231:	53                   	push   %rbx
   140002232:	48 83 ec 78          	sub    $0x78,%rsp
   140002236:	0f 11 74 24 40       	movups %xmm6,0x40(%rsp)
   14000223b:	0f 11 7c 24 50       	movups %xmm7,0x50(%rsp)
   140002240:	44 0f 11 44 24 60    	movups %xmm8,0x60(%rsp)
   140002246:	83 39 06             	cmpl   $0x6,(%rcx)
   140002249:	0f 87 cd 00 00 00    	ja     14000231c <_matherr+0xec>
   14000224f:	8b 01                	mov    (%rcx),%eax
   140002251:	48 8d 15 8c 80 00 00 	lea    0x808c(%rip),%rdx        # 14000a2e4 <.rdata+0x124>
   140002258:	48 63 04 82          	movslq (%rdx,%rax,4),%rax
   14000225c:	48 01 d0             	add    %rdx,%rax
   14000225f:	ff e0                	jmp    *%rax
   140002261:	0f 1f 80 00 00 00 00 	nopl   0x0(%rax)
   140002268:	48 8d 1d 70 7f 00 00 	lea    0x7f70(%rip),%rbx        # 14000a1df <.rdata+0x1f>
   14000226f:	f2 44 0f 10 41 20    	movsd  0x20(%rcx),%xmm8
   140002275:	f2 0f 10 79 18       	movsd  0x18(%rcx),%xmm7
   14000227a:	f2 0f 10 71 10       	movsd  0x10(%rcx),%xmm6
   14000227f:	48 8b 71 08          	mov    0x8(%rcx),%rsi
   140002283:	b9 02 00 00 00       	mov    $0x2,%ecx
   140002288:	e8 23 5e 00 00       	call   1400080b0 <__acrt_iob_func>
   14000228d:	f2 44 0f 11 44 24 30 	movsd  %xmm8,0x30(%rsp)
   140002294:	49 89 d8             	mov    %rbx,%r8
   140002297:	48 8d 15 1a 80 00 00 	lea    0x801a(%rip),%rdx        # 14000a2b8 <.rdata+0xf8>
   14000229e:	f2 0f 11 7c 24 28    	movsd  %xmm7,0x28(%rsp)
   1400022a4:	48 89 c1             	mov    %rax,%rcx
   1400022a7:	49 89 f1             	mov    %rsi,%r9
   1400022aa:	f2 0f 11 74 24 20    	movsd  %xmm6,0x20(%rsp)
   1400022b0:	e8 b3 63 00 00       	call   140008668 <fprintf>
   1400022b5:	90                   	nop
   1400022b6:	0f 10 74 24 40       	movups 0x40(%rsp),%xmm6
   1400022bb:	0f 10 7c 24 50       	movups 0x50(%rsp),%xmm7
   1400022c0:	31 c0                	xor    %eax,%eax
   1400022c2:	44 0f 10 44 24 60    	movups 0x60(%rsp),%xmm8
   1400022c8:	48 83 c4 78          	add    $0x78,%rsp
   1400022cc:	5b                   	pop    %rbx
   1400022cd:	5e                   	pop    %rsi
   1400022ce:	c3                   	ret
   1400022cf:	90                   	nop
   1400022d0:	48 8d 1d e9 7e 00 00 	lea    0x7ee9(%rip),%rbx        # 14000a1c0 <.rdata>
   1400022d7:	eb 96                	jmp    14000226f <_matherr+0x3f>
   1400022d9:	0f 1f 80 00 00 00 00 	nopl   0x0(%rax)
   1400022e0:	48 8d 1d 39 7f 00 00 	lea    0x7f39(%rip),%rbx        # 14000a220 <.rdata+0x60>
   1400022e7:	eb 86                	jmp    14000226f <_matherr+0x3f>
   1400022e9:	0f 1f 80 00 00 00 00 	nopl   0x0(%rax)
   1400022f0:	48 8d 1d 09 7f 00 00 	lea    0x7f09(%rip),%rbx        # 14000a200 <.rdata+0x40>
   1400022f7:	e9 73 ff ff ff       	jmp    14000226f <_matherr+0x3f>
   1400022fc:	0f 1f 40 00          	nopl   0x0(%rax)
   140002300:	48 8d 1d 69 7f 00 00 	lea    0x7f69(%rip),%rbx        # 14000a270 <.rdata+0xb0>
   140002307:	e9 63 ff ff ff       	jmp    14000226f <_matherr+0x3f>
   14000230c:	0f 1f 40 00          	nopl   0x0(%rax)
   140002310:	48 8d 1d 31 7f 00 00 	lea    0x7f31(%rip),%rbx        # 14000a248 <.rdata+0x88>
   140002317:	e9 53 ff ff ff       	jmp    14000226f <_matherr+0x3f>
   14000231c:	48 8d 1d 83 7f 00 00 	lea    0x7f83(%rip),%rbx        # 14000a2a6 <.rdata+0xe6>
   140002323:	e9 47 ff ff ff       	jmp    14000226f <_matherr+0x3f>
   140002328:	90                   	nop
   140002329:	90                   	nop
   14000232a:	90                   	nop
   14000232b:	90                   	nop
   14000232c:	90                   	nop
   14000232d:	90                   	nop
   14000232e:	90                   	nop
   14000232f:	90                   	nop

0000000140002330 <_fpreset>:
   140002330:	db e3                	fninit
   140002332:	c3                   	ret
   140002333:	90                   	nop
   140002334:	90                   	nop
   140002335:	90                   	nop
   140002336:	90                   	nop
   140002337:	90                   	nop
   140002338:	90                   	nop
   140002339:	90                   	nop
   14000233a:	90                   	nop
   14000233b:	90                   	nop
   14000233c:	90                   	nop
   14000233d:	90                   	nop
   14000233e:	90                   	nop
   14000233f:	90                   	nop

0000000140002340 <__report_error>:
   140002340:	56                   	push   %rsi
   140002341:	53                   	push   %rbx
   140002342:	48 83 ec 38          	sub    $0x38,%rsp
   140002346:	48 89 cb             	mov    %rcx,%rbx
   140002349:	48 8d 44 24 58       	lea    0x58(%rsp),%rax
   14000234e:	b9 02 00 00 00       	mov    $0x2,%ecx
   140002353:	48 89 54 24 58       	mov    %rdx,0x58(%rsp)
   140002358:	4c 89 44 24 60       	mov    %r8,0x60(%rsp)
   14000235d:	4c 89 4c 24 68       	mov    %r9,0x68(%rsp)
   140002362:	48 89 44 24 28       	mov    %rax,0x28(%rsp)
   140002367:	e8 44 5d 00 00       	call   1400080b0 <__acrt_iob_func>
   14000236c:	41 b8 1b 00 00 00    	mov    $0x1b,%r8d
   140002372:	ba 01 00 00 00       	mov    $0x1,%edx
   140002377:	48 8d 0d 82 7f 00 00 	lea    0x7f82(%rip),%rcx        # 14000a300 <.rdata>
   14000237e:	49 89 c1             	mov    %rax,%r9
   140002381:	e8 fa 62 00 00       	call   140008680 <fwrite>
   140002386:	48 8b 74 24 28       	mov    0x28(%rsp),%rsi
   14000238b:	b9 02 00 00 00       	mov    $0x2,%ecx
   140002390:	e8 1b 5d 00 00       	call   1400080b0 <__acrt_iob_func>
   140002395:	48 89 da             	mov    %rbx,%rdx
   140002398:	48 89 c1             	mov    %rax,%rcx
   14000239b:	49 89 f0             	mov    %rsi,%r8
   14000239e:	e8 25 63 00 00       	call   1400086c8 <vfprintf>
   1400023a3:	e8 a8 62 00 00       	call   140008650 <abort>
   1400023a8:	90                   	nop
   1400023a9:	0f 1f 80 00 00 00 00 	nopl   0x0(%rax)

00000001400023b0 <mark_section_writable>:
   1400023b0:	57                   	push   %rdi
   1400023b1:	56                   	push   %rsi
   1400023b2:	53                   	push   %rbx
   1400023b3:	48 83 ec 50          	sub    $0x50,%rsp
   1400023b7:	48 63 35 06 c1 00 00 	movslq 0xc106(%rip),%rsi        # 14000e4c4 <maxSections>
   1400023be:	48 89 cb             	mov    %rcx,%rbx
   1400023c1:	85 f6                	test   %esi,%esi
   1400023c3:	0f 8e 17 01 00 00    	jle    1400024e0 <mark_section_writable+0x130>
   1400023c9:	48 8b 05 f8 c0 00 00 	mov    0xc0f8(%rip),%rax        # 14000e4c8 <the_secs>
   1400023d0:	45 31 c9             	xor    %r9d,%r9d
   1400023d3:	48 83 c0 18          	add    $0x18,%rax
   1400023d7:	66 0f 1f 84 00 00 00 	nopw   0x0(%rax,%rax,1)
   1400023de:	00 00 
   1400023e0:	4c 8b 00             	mov    (%rax),%r8
   1400023e3:	4c 39 c3             	cmp    %r8,%rbx
   1400023e6:	72 13                	jb     1400023fb <mark_section_writable+0x4b>
   1400023e8:	48 8b 50 08          	mov    0x8(%rax),%rdx
   1400023ec:	8b 52 08             	mov    0x8(%rdx),%edx
   1400023ef:	49 01 d0             	add    %rdx,%r8
   1400023f2:	4c 39 c3             	cmp    %r8,%rbx
   1400023f5:	0f 82 8a 00 00 00    	jb     140002485 <mark_section_writable+0xd5>
   1400023fb:	41 83 c1 01          	add    $0x1,%r9d
   1400023ff:	48 83 c0 28          	add    $0x28,%rax
   140002403:	41 39 f1             	cmp    %esi,%r9d
   140002406:	75 d8                	jne    1400023e0 <mark_section_writable+0x30>
   140002408:	48 89 d9             	mov    %rbx,%rcx
   14000240b:	e8 f0 09 00 00       	call   140002e00 <__mingw_GetSectionForAddress>
   140002410:	48 89 c7             	mov    %rax,%rdi
   140002413:	48 85 c0             	test   %rax,%rax
   140002416:	0f 84 e6 00 00 00    	je     140002502 <mark_section_writable+0x152>
   14000241c:	48 8b 05 a5 c0 00 00 	mov    0xc0a5(%rip),%rax        # 14000e4c8 <the_secs>
   140002423:	48 8d 1c b6          	lea    (%rsi,%rsi,4),%rbx
   140002427:	48 c1 e3 03          	shl    $0x3,%rbx
   14000242b:	48 01 d8             	add    %rbx,%rax
   14000242e:	48 89 78 20          	mov    %rdi,0x20(%rax)
   140002432:	c7 00 00 00 00 00    	movl   $0x0,(%rax)
   140002438:	e8 03 0b 00 00       	call   140002f40 <_GetPEImageBase>
   14000243d:	8b 57 0c             	mov    0xc(%rdi),%edx
   140002440:	41 b8 30 00 00 00    	mov    $0x30,%r8d
   140002446:	48 8d 0c 10          	lea    (%rax,%rdx,1),%rcx
   14000244a:	48 8b 05 77 c0 00 00 	mov    0xc077(%rip),%rax        # 14000e4c8 <the_secs>
   140002451:	48 8d 54 24 20       	lea    0x20(%rsp),%rdx
   140002456:	48 89 4c 18 18       	mov    %rcx,0x18(%rax,%rbx,1)
   14000245b:	ff 15 2f ce 00 00    	call   *0xce2f(%rip)        # 14000f290 <__imp_VirtualQuery>
   140002461:	48 85 c0             	test   %rax,%rax
   140002464:	0f 84 7d 00 00 00    	je     1400024e7 <mark_section_writable+0x137>
   14000246a:	8b 44 24 44          	mov    0x44(%rsp),%eax
   14000246e:	8d 50 c0             	lea    -0x40(%rax),%edx
   140002471:	83 e2 bf             	and    $0xffffffbf,%edx
   140002474:	74 08                	je     14000247e <mark_section_writable+0xce>
   140002476:	8d 50 fc             	lea    -0x4(%rax),%edx
   140002479:	83 e2 fb             	and    $0xfffffffb,%edx
   14000247c:	75 12                	jne    140002490 <mark_section_writable+0xe0>
   14000247e:	83 05 3f c0 00 00 01 	addl   $0x1,0xc03f(%rip)        # 14000e4c4 <maxSections>
   140002485:	48 83 c4 50          	add    $0x50,%rsp
   140002489:	5b                   	pop    %rbx
   14000248a:	5e                   	pop    %rsi
   14000248b:	5f                   	pop    %rdi
   14000248c:	c3                   	ret
   14000248d:	0f 1f 00             	nopl   (%rax)
   140002490:	83 f8 02             	cmp    $0x2,%eax
   140002493:	48 8b 4c 24 20       	mov    0x20(%rsp),%rcx
   140002498:	48 8b 54 24 38       	mov    0x38(%rsp),%rdx
   14000249d:	41 b8 40 00 00 00    	mov    $0x40,%r8d
   1400024a3:	b8 04 00 00 00       	mov    $0x4,%eax
   1400024a8:	44 0f 44 c0          	cmove  %eax,%r8d
   1400024ac:	48 03 1d 15 c0 00 00 	add    0xc015(%rip),%rbx        # 14000e4c8 <the_secs>
   1400024b3:	48 89 4b 08          	mov    %rcx,0x8(%rbx)
   1400024b7:	49 89 d9             	mov    %rbx,%r9
   1400024ba:	48 89 53 10          	mov    %rdx,0x10(%rbx)
   1400024be:	ff 15 c4 cd 00 00    	call   *0xcdc4(%rip)        # 14000f288 <__imp_VirtualProtect>
   1400024c4:	85 c0                	test   %eax,%eax
   1400024c6:	75 b6                	jne    14000247e <mark_section_writable+0xce>
   1400024c8:	ff 15 6a cd 00 00    	call   *0xcd6a(%rip)        # 14000f238 <__imp_GetLastError>
   1400024ce:	48 8d 0d a3 7e 00 00 	lea    0x7ea3(%rip),%rcx        # 14000a378 <.rdata+0x78>
   1400024d5:	89 c2                	mov    %eax,%edx
   1400024d7:	e8 64 fe ff ff       	call   140002340 <__report_error>
   1400024dc:	0f 1f 40 00          	nopl   0x0(%rax)
   1400024e0:	31 f6                	xor    %esi,%esi
   1400024e2:	e9 21 ff ff ff       	jmp    140002408 <mark_section_writable+0x58>
   1400024e7:	48 8b 05 da bf 00 00 	mov    0xbfda(%rip),%rax        # 14000e4c8 <the_secs>
   1400024ee:	8b 57 08             	mov    0x8(%rdi),%edx
   1400024f1:	48 8d 0d 48 7e 00 00 	lea    0x7e48(%rip),%rcx        # 14000a340 <.rdata+0x40>
   1400024f8:	4c 8b 44 18 18       	mov    0x18(%rax,%rbx,1),%r8
   1400024fd:	e8 3e fe ff ff       	call   140002340 <__report_error>
   140002502:	48 89 da             	mov    %rbx,%rdx
   140002505:	48 8d 0d 14 7e 00 00 	lea    0x7e14(%rip),%rcx        # 14000a320 <.rdata+0x20>
   14000250c:	e8 2f fe ff ff       	call   140002340 <__report_error>
   140002511:	90                   	nop
   140002512:	66 66 2e 0f 1f 84 00 	data16 cs nopw 0x0(%rax,%rax,1)
   140002519:	00 00 00 00 
   14000251d:	0f 1f 00             	nopl   (%rax)

0000000140002520 <_pei386_runtime_relocator>:
   140002520:	55                   	push   %rbp
   140002521:	41 57                	push   %r15
   140002523:	41 56                	push   %r14
   140002525:	41 55                	push   %r13
   140002527:	41 54                	push   %r12
   140002529:	57                   	push   %rdi
   14000252a:	56                   	push   %rsi
   14000252b:	53                   	push   %rbx
   14000252c:	48 83 ec 48          	sub    $0x48,%rsp
   140002530:	48 8d 6c 24 40       	lea    0x40(%rsp),%rbp
   140002535:	44 8b 25 84 bf 00 00 	mov    0xbf84(%rip),%r12d        # 14000e4c0 <was_init.0>
   14000253c:	45 85 e4             	test   %r12d,%r12d
   14000253f:	74 17                	je     140002558 <_pei386_runtime_relocator+0x38>
   140002541:	48 8d 65 08          	lea    0x8(%rbp),%rsp
   140002545:	5b                   	pop    %rbx
   140002546:	5e                   	pop    %rsi
   140002547:	5f                   	pop    %rdi
   140002548:	41 5c                	pop    %r12
   14000254a:	41 5d                	pop    %r13
   14000254c:	41 5e                	pop    %r14
   14000254e:	41 5f                	pop    %r15
   140002550:	5d                   	pop    %rbp
   140002551:	c3                   	ret
   140002552:	66 0f 1f 44 00 00    	nopw   0x0(%rax,%rax,1)
   140002558:	c7 05 5e bf 00 00 01 	movl   $0x1,0xbf5e(%rip)        # 14000e4c0 <was_init.0>
   14000255f:	00 00 00 
   140002562:	e8 19 09 00 00       	call   140002e80 <__mingw_GetSectionCount>
   140002567:	48 98                	cltq
   140002569:	48 8d 04 80          	lea    (%rax,%rax,4),%rax
   14000256d:	48 8d 04 c5 0f 00 00 	lea    0xf(,%rax,8),%rax
   140002574:	00 
   140002575:	48 83 e0 f0          	and    $0xfffffffffffffff0,%rax
   140002579:	e8 62 0b 00 00       	call   1400030e0 <___chkstk_ms>
   14000257e:	4c 8b 2d cb 82 00 00 	mov    0x82cb(%rip),%r13        # 14000a850 <.refptr.__RUNTIME_PSEUDO_RELOC_LIST_END__>
   140002585:	48 8b 1d d4 82 00 00 	mov    0x82d4(%rip),%rbx        # 14000a860 <.refptr.__RUNTIME_PSEUDO_RELOC_LIST__>
   14000258c:	c7 05 2e bf 00 00 00 	movl   $0x0,0xbf2e(%rip)        # 14000e4c4 <maxSections>
   140002593:	00 00 00 
   140002596:	48 29 c4             	sub    %rax,%rsp
   140002599:	48 8d 44 24 30       	lea    0x30(%rsp),%rax
   14000259e:	48 89 05 23 bf 00 00 	mov    %rax,0xbf23(%rip)        # 14000e4c8 <the_secs>
   1400025a5:	4c 89 e8             	mov    %r13,%rax
   1400025a8:	48 29 d8             	sub    %rbx,%rax
   1400025ab:	48 83 f8 07          	cmp    $0x7,%rax
   1400025af:	7e 90                	jle    140002541 <_pei386_runtime_relocator+0x21>
   1400025b1:	8b 13                	mov    (%rbx),%edx
   1400025b3:	48 83 f8 0b          	cmp    $0xb,%rax
   1400025b7:	0f 8f 7b 01 00 00    	jg     140002738 <_pei386_runtime_relocator+0x218>
   1400025bd:	8b 03                	mov    (%rbx),%eax
   1400025bf:	85 c0                	test   %eax,%eax
   1400025c1:	0f 85 69 02 00 00    	jne    140002830 <_pei386_runtime_relocator+0x310>
   1400025c7:	8b 43 04             	mov    0x4(%rbx),%eax
   1400025ca:	85 c0                	test   %eax,%eax
   1400025cc:	0f 85 5e 02 00 00    	jne    140002830 <_pei386_runtime_relocator+0x310>
   1400025d2:	8b 53 08             	mov    0x8(%rbx),%edx
   1400025d5:	83 fa 01             	cmp    $0x1,%edx
   1400025d8:	0f 85 90 02 00 00    	jne    14000286e <_pei386_runtime_relocator+0x34e>
   1400025de:	48 83 c3 0c          	add    $0xc,%rbx
   1400025e2:	4c 39 eb             	cmp    %r13,%rbx
   1400025e5:	0f 83 56 ff ff ff    	jae    140002541 <_pei386_runtime_relocator+0x21>
   1400025eb:	4c 8b 35 8e 82 00 00 	mov    0x828e(%rip),%r14        # 14000a880 <.refptr.__image_base__>
   1400025f2:	49 bf ff ff ff 7f ff 	movabs $0xffffffff7fffffff,%r15
   1400025f9:	ff ff ff 
   1400025fc:	eb 54                	jmp    140002652 <_pei386_runtime_relocator+0x132>
   1400025fe:	66 90                	xchg   %ax,%ax
   140002600:	0f b6 37             	movzbl (%rdi),%esi
   140002603:	81 e1 c0 00 00 00    	and    $0xc0,%ecx
   140002609:	40 84 f6             	test   %sil,%sil
   14000260c:	0f 89 06 02 00 00    	jns    140002818 <_pei386_runtime_relocator+0x2f8>
   140002612:	48 81 ce 00 ff ff ff 	or     $0xffffffffffffff00,%rsi
   140002619:	48 29 c6             	sub    %rax,%rsi
   14000261c:	4c 01 ce             	add    %r9,%rsi
   14000261f:	85 c9                	test   %ecx,%ecx
   140002621:	75 17                	jne    14000263a <_pei386_runtime_relocator+0x11a>
   140002623:	48 81 fe ff 00 00 00 	cmp    $0xff,%rsi
   14000262a:	0f 8f 4f 01 00 00    	jg     14000277f <_pei386_runtime_relocator+0x25f>
   140002630:	48 83 fe 80          	cmp    $0xffffffffffffff80,%rsi
   140002634:	0f 8c 45 01 00 00    	jl     14000277f <_pei386_runtime_relocator+0x25f>
   14000263a:	48 89 f9             	mov    %rdi,%rcx
   14000263d:	e8 6e fd ff ff       	call   1400023b0 <mark_section_writable>
   140002642:	40 88 37             	mov    %sil,(%rdi)
   140002645:	48 83 c3 0c          	add    $0xc,%rbx
   140002649:	4c 39 eb             	cmp    %r13,%rbx
   14000264c:	0f 83 8e 00 00 00    	jae    1400026e0 <_pei386_runtime_relocator+0x1c0>
   140002652:	8b 03                	mov    (%rbx),%eax
   140002654:	8b 4b 08             	mov    0x8(%rbx),%ecx
   140002657:	8b 7b 04             	mov    0x4(%rbx),%edi
   14000265a:	4c 01 f0             	add    %r14,%rax
   14000265d:	0f b6 d1             	movzbl %cl,%edx
   140002660:	4c 8b 08             	mov    (%rax),%r9
   140002663:	4c 01 f7             	add    %r14,%rdi
   140002666:	83 fa 20             	cmp    $0x20,%edx
   140002669:	0f 84 29 01 00 00    	je     140002798 <_pei386_runtime_relocator+0x278>
   14000266f:	0f 87 eb 00 00 00    	ja     140002760 <_pei386_runtime_relocator+0x240>
   140002675:	83 fa 08             	cmp    $0x8,%edx
   140002678:	74 86                	je     140002600 <_pei386_runtime_relocator+0xe0>
   14000267a:	83 fa 10             	cmp    $0x10,%edx
   14000267d:	0f 85 df 01 00 00    	jne    140002862 <_pei386_runtime_relocator+0x342>
   140002683:	0f b7 37             	movzwl (%rdi),%esi
   140002686:	81 e1 c0 00 00 00    	and    $0xc0,%ecx
   14000268c:	66 85 f6             	test   %si,%si
   14000268f:	0f 89 6b 01 00 00    	jns    140002800 <_pei386_runtime_relocator+0x2e0>
   140002695:	48 81 ce 00 00 ff ff 	or     $0xffffffffffff0000,%rsi
   14000269c:	48 29 c6             	sub    %rax,%rsi
   14000269f:	4c 01 ce             	add    %r9,%rsi
   1400026a2:	85 c9                	test   %ecx,%ecx
   1400026a4:	75 1a                	jne    1400026c0 <_pei386_runtime_relocator+0x1a0>
   1400026a6:	48 81 fe 00 80 ff ff 	cmp    $0xffffffffffff8000,%rsi
   1400026ad:	0f 8c cc 00 00 00    	jl     14000277f <_pei386_runtime_relocator+0x25f>
   1400026b3:	48 81 fe ff ff 00 00 	cmp    $0xffff,%rsi
   1400026ba:	0f 8f bf 00 00 00    	jg     14000277f <_pei386_runtime_relocator+0x25f>
   1400026c0:	48 89 f9             	mov    %rdi,%rcx
   1400026c3:	48 83 c3 0c          	add    $0xc,%rbx
   1400026c7:	e8 e4 fc ff ff       	call   1400023b0 <mark_section_writable>
   1400026cc:	66 89 37             	mov    %si,(%rdi)
   1400026cf:	4c 39 eb             	cmp    %r13,%rbx
   1400026d2:	0f 82 7a ff ff ff    	jb     140002652 <_pei386_runtime_relocator+0x132>
   1400026d8:	0f 1f 84 00 00 00 00 	nopl   0x0(%rax,%rax,1)
   1400026df:	00 
   1400026e0:	8b 15 de bd 00 00    	mov    0xbdde(%rip),%edx        # 14000e4c4 <maxSections>
   1400026e6:	85 d2                	test   %edx,%edx
   1400026e8:	0f 8e 53 fe ff ff    	jle    140002541 <_pei386_runtime_relocator+0x21>
   1400026ee:	48 8b 35 93 cb 00 00 	mov    0xcb93(%rip),%rsi        # 14000f288 <__imp_VirtualProtect>
   1400026f5:	31 db                	xor    %ebx,%ebx
   1400026f7:	48 8d 7d fc          	lea    -0x4(%rbp),%rdi
   1400026fb:	0f 1f 44 00 00       	nopl   0x0(%rax,%rax,1)
   140002700:	48 8b 05 c1 bd 00 00 	mov    0xbdc1(%rip),%rax        # 14000e4c8 <the_secs>
   140002707:	48 01 d8             	add    %rbx,%rax
   14000270a:	44 8b 00             	mov    (%rax),%r8d
   14000270d:	45 85 c0             	test   %r8d,%r8d
   140002710:	74 0d                	je     14000271f <_pei386_runtime_relocator+0x1ff>
   140002712:	48 8b 50 10          	mov    0x10(%rax),%rdx
   140002716:	48 8b 48 08          	mov    0x8(%rax),%rcx
   14000271a:	49 89 f9             	mov    %rdi,%r9
   14000271d:	ff d6                	call   *%rsi
   14000271f:	41 83 c4 01          	add    $0x1,%r12d
   140002723:	48 83 c3 28          	add    $0x28,%rbx
   140002727:	44 3b 25 96 bd 00 00 	cmp    0xbd96(%rip),%r12d        # 14000e4c4 <maxSections>
   14000272e:	7c d0                	jl     140002700 <_pei386_runtime_relocator+0x1e0>
   140002730:	e9 0c fe ff ff       	jmp    140002541 <_pei386_runtime_relocator+0x21>
   140002735:	0f 1f 00             	nopl   (%rax)
   140002738:	85 d2                	test   %edx,%edx
   14000273a:	0f 85 f0 00 00 00    	jne    140002830 <_pei386_runtime_relocator+0x310>
   140002740:	8b 43 04             	mov    0x4(%rbx),%eax
   140002743:	89 c2                	mov    %eax,%edx
   140002745:	0b 53 08             	or     0x8(%rbx),%edx
   140002748:	0f 85 7c fe ff ff    	jne    1400025ca <_pei386_runtime_relocator+0xaa>
   14000274e:	48 83 c3 0c          	add    $0xc,%rbx
   140002752:	e9 66 fe ff ff       	jmp    1400025bd <_pei386_runtime_relocator+0x9d>
   140002757:	66 0f 1f 84 00 00 00 	nopw   0x0(%rax,%rax,1)
   14000275e:	00 00 
   140002760:	83 fa 40             	cmp    $0x40,%edx
   140002763:	0f 85 f9 00 00 00    	jne    140002862 <_pei386_runtime_relocator+0x342>
   140002769:	48 8b 37             	mov    (%rdi),%rsi
   14000276c:	48 29 c6             	sub    %rax,%rsi
   14000276f:	4c 01 ce             	add    %r9,%rsi
   140002772:	81 e1 c0 00 00 00    	and    $0xc0,%ecx
   140002778:	75 66                	jne    1400027e0 <_pei386_runtime_relocator+0x2c0>
   14000277a:	48 85 f6             	test   %rsi,%rsi
   14000277d:	78 61                	js     1400027e0 <_pei386_runtime_relocator+0x2c0>
   14000277f:	48 89 74 24 20       	mov    %rsi,0x20(%rsp)
   140002784:	49 89 f8             	mov    %rdi,%r8
   140002787:	48 8d 0d 7a 7c 00 00 	lea    0x7c7a(%rip),%rcx        # 14000a408 <.rdata+0x108>
   14000278e:	e8 ad fb ff ff       	call   140002340 <__report_error>
   140002793:	0f 1f 44 00 00       	nopl   0x0(%rax,%rax,1)
   140002798:	8b 37                	mov    (%rdi),%esi
   14000279a:	81 e1 c0 00 00 00    	and    $0xc0,%ecx
   1400027a0:	85 f6                	test   %esi,%esi
   1400027a2:	79 4c                	jns    1400027f0 <_pei386_runtime_relocator+0x2d0>
   1400027a4:	49 bb 00 00 00 00 ff 	movabs $0xffffffff00000000,%r11
   1400027ab:	ff ff ff 
   1400027ae:	4c 09 de             	or     %r11,%rsi
   1400027b1:	48 29 c6             	sub    %rax,%rsi
   1400027b4:	4c 01 ce             	add    %r9,%rsi
   1400027b7:	85 c9                	test   %ecx,%ecx
   1400027b9:	75 0f                	jne    1400027ca <_pei386_runtime_relocator+0x2aa>
   1400027bb:	4c 39 fe             	cmp    %r15,%rsi
   1400027be:	7e bf                	jle    14000277f <_pei386_runtime_relocator+0x25f>
   1400027c0:	b8 ff ff ff ff       	mov    $0xffffffff,%eax
   1400027c5:	48 39 c6             	cmp    %rax,%rsi
   1400027c8:	7f b5                	jg     14000277f <_pei386_runtime_relocator+0x25f>
   1400027ca:	48 89 f9             	mov    %rdi,%rcx
   1400027cd:	e8 de fb ff ff       	call   1400023b0 <mark_section_writable>
   1400027d2:	89 37                	mov    %esi,(%rdi)
   1400027d4:	e9 6c fe ff ff       	jmp    140002645 <_pei386_runtime_relocator+0x125>
   1400027d9:	0f 1f 80 00 00 00 00 	nopl   0x0(%rax)
   1400027e0:	48 89 f9             	mov    %rdi,%rcx
   1400027e3:	e8 c8 fb ff ff       	call   1400023b0 <mark_section_writable>
   1400027e8:	48 89 37             	mov    %rsi,(%rdi)
   1400027eb:	e9 55 fe ff ff       	jmp    140002645 <_pei386_runtime_relocator+0x125>
   1400027f0:	48 29 c6             	sub    %rax,%rsi
   1400027f3:	4c 01 ce             	add    %r9,%rsi
   1400027f6:	85 c9                	test   %ecx,%ecx
   1400027f8:	74 c1                	je     1400027bb <_pei386_runtime_relocator+0x29b>
   1400027fa:	eb ce                	jmp    1400027ca <_pei386_runtime_relocator+0x2aa>
   1400027fc:	0f 1f 40 00          	nopl   0x0(%rax)
   140002800:	48 29 c6             	sub    %rax,%rsi
   140002803:	4c 01 ce             	add    %r9,%rsi
   140002806:	85 c9                	test   %ecx,%ecx
   140002808:	0f 84 98 fe ff ff    	je     1400026a6 <_pei386_runtime_relocator+0x186>
   14000280e:	e9 ad fe ff ff       	jmp    1400026c0 <_pei386_runtime_relocator+0x1a0>
   140002813:	0f 1f 44 00 00       	nopl   0x0(%rax,%rax,1)
   140002818:	48 29 c6             	sub    %rax,%rsi
   14000281b:	4c 01 ce             	add    %r9,%rsi
   14000281e:	85 c9                	test   %ecx,%ecx
   140002820:	0f 84 fd fd ff ff    	je     140002623 <_pei386_runtime_relocator+0x103>
   140002826:	e9 0f fe ff ff       	jmp    14000263a <_pei386_runtime_relocator+0x11a>
   14000282b:	0f 1f 44 00 00       	nopl   0x0(%rax,%rax,1)
   140002830:	4c 39 eb             	cmp    %r13,%rbx
   140002833:	0f 83 08 fd ff ff    	jae    140002541 <_pei386_runtime_relocator+0x21>
   140002839:	4c 8b 35 40 80 00 00 	mov    0x8040(%rip),%r14        # 14000a880 <.refptr.__image_base__>
   140002840:	8b 73 04             	mov    0x4(%rbx),%esi
   140002843:	8b 3b                	mov    (%rbx),%edi
   140002845:	48 83 c3 08          	add    $0x8,%rbx
   140002849:	4c 01 f6             	add    %r14,%rsi
   14000284c:	03 3e                	add    (%rsi),%edi
   14000284e:	48 89 f1             	mov    %rsi,%rcx
   140002851:	e8 5a fb ff ff       	call   1400023b0 <mark_section_writable>
   140002856:	89 3e                	mov    %edi,(%rsi)
   140002858:	4c 39 eb             	cmp    %r13,%rbx
   14000285b:	72 e3                	jb     140002840 <_pei386_runtime_relocator+0x320>
   14000285d:	e9 7e fe ff ff       	jmp    1400026e0 <_pei386_runtime_relocator+0x1c0>
   140002862:	48 8d 0d 6f 7b 00 00 	lea    0x7b6f(%rip),%rcx        # 14000a3d8 <.rdata+0xd8>
   140002869:	e8 d2 fa ff ff       	call   140002340 <__report_error>
   14000286e:	48 8d 0d 2b 7b 00 00 	lea    0x7b2b(%rip),%rcx        # 14000a3a0 <.rdata+0xa0>
   140002875:	e8 c6 fa ff ff       	call   140002340 <__report_error>
   14000287a:	90                   	nop
   14000287b:	90                   	nop
   14000287c:	90                   	nop
   14000287d:	90                   	nop
   14000287e:	90                   	nop
   14000287f:	90                   	nop

0000000140002880 <__mingw_raise_matherr>:
   140002880:	48 83 ec 58          	sub    $0x58,%rsp
   140002884:	48 8b 05 45 bc 00 00 	mov    0xbc45(%rip),%rax        # 14000e4d0 <stUserMathErr>
   14000288b:	66 0f 14 d3          	unpcklpd %xmm3,%xmm2
   14000288f:	48 85 c0             	test   %rax,%rax
   140002892:	74 25                	je     1400028b9 <__mingw_raise_matherr+0x39>
   140002894:	f2 0f 10 84 24 80 00 	movsd  0x80(%rsp),%xmm0
   14000289b:	00 00 
   14000289d:	89 4c 24 20          	mov    %ecx,0x20(%rsp)
   1400028a1:	48 8d 4c 24 20       	lea    0x20(%rsp),%rcx
   1400028a6:	48 89 54 24 28       	mov    %rdx,0x28(%rsp)
   1400028ab:	0f 11 54 24 30       	movups %xmm2,0x30(%rsp)
   1400028b0:	f2 0f 11 44 24 40    	movsd  %xmm0,0x40(%rsp)
   1400028b6:	ff d0                	call   *%rax
   1400028b8:	90                   	nop
   1400028b9:	48 83 c4 58          	add    $0x58,%rsp
   1400028bd:	c3                   	ret
   1400028be:	66 90                	xchg   %ax,%ax

00000001400028c0 <__mingw_setusermatherr>:
   1400028c0:	48 89 0d 09 bc 00 00 	mov    %rcx,0xbc09(%rip)        # 14000e4d0 <stUserMathErr>
   1400028c7:	e9 44 5d 00 00       	jmp    140008610 <__setusermatherr>
   1400028cc:	90                   	nop
   1400028cd:	90                   	nop
   1400028ce:	90                   	nop
   1400028cf:	90                   	nop

00000001400028d0 <_gnu_exception_handler>:
   1400028d0:	53                   	push   %rbx
   1400028d1:	48 83 ec 20          	sub    $0x20,%rsp
   1400028d5:	48 8b 11             	mov    (%rcx),%rdx
   1400028d8:	8b 02                	mov    (%rdx),%eax
   1400028da:	48 89 cb             	mov    %rcx,%rbx
   1400028dd:	89 c1                	mov    %eax,%ecx
   1400028df:	81 e1 ff ff ff 20    	and    $0x20ffffff,%ecx
   1400028e5:	81 f9 43 43 47 20    	cmp    $0x20474343,%ecx
   1400028eb:	0f 84 9f 00 00 00    	je     140002990 <_gnu_exception_handler+0xc0>
   1400028f1:	3d 96 00 00 c0       	cmp    $0xc0000096,%eax
   1400028f6:	77 77                	ja     14000296f <_gnu_exception_handler+0x9f>
   1400028f8:	3d 8b 00 00 c0       	cmp    $0xc000008b,%eax
   1400028fd:	76 21                	jbe    140002920 <_gnu_exception_handler+0x50>
   1400028ff:	05 73 ff ff 3f       	add    $0x3fffff73,%eax
   140002904:	83 f8 09             	cmp    $0x9,%eax
   140002907:	77 54                	ja     14000295d <_gnu_exception_handler+0x8d>
   140002909:	48 8d 15 50 7b 00 00 	lea    0x7b50(%rip),%rdx        # 14000a460 <.rdata>
   140002910:	48 63 04 82          	movslq (%rdx,%rax,4),%rax
   140002914:	48 01 d0             	add    %rdx,%rax
   140002917:	ff e0                	jmp    *%rax
   140002919:	0f 1f 80 00 00 00 00 	nopl   0x0(%rax)
   140002920:	3d 05 00 00 c0       	cmp    $0xc0000005,%eax
   140002925:	0f 84 d5 00 00 00    	je     140002a00 <_gnu_exception_handler+0x130>
   14000292b:	76 3b                	jbe    140002968 <_gnu_exception_handler+0x98>
   14000292d:	3d 08 00 00 c0       	cmp    $0xc0000008,%eax
   140002932:	74 29                	je     14000295d <_gnu_exception_handler+0x8d>
   140002934:	3d 1d 00 00 c0       	cmp    $0xc000001d,%eax
   140002939:	75 34                	jne    14000296f <_gnu_exception_handler+0x9f>
   14000293b:	31 d2                	xor    %edx,%edx
   14000293d:	b9 04 00 00 00       	mov    $0x4,%ecx
   140002942:	e8 61 5d 00 00       	call   1400086a8 <signal>
   140002947:	48 83 f8 01          	cmp    $0x1,%rax
   14000294b:	0f 84 d6 00 00 00    	je     140002a27 <_gnu_exception_handler+0x157>
   140002951:	48 85 c0             	test   %rax,%rax
   140002954:	74 19                	je     14000296f <_gnu_exception_handler+0x9f>
   140002956:	b9 04 00 00 00       	mov    $0x4,%ecx
   14000295b:	ff d0                	call   *%rax
   14000295d:	b8 ff ff ff ff       	mov    $0xffffffff,%eax
   140002962:	48 83 c4 20          	add    $0x20,%rsp
   140002966:	5b                   	pop    %rbx
   140002967:	c3                   	ret
   140002968:	3d 02 00 00 80       	cmp    $0x80000002,%eax
   14000296d:	74 ee                	je     14000295d <_gnu_exception_handler+0x8d>
   14000296f:	48 8b 05 7a bb 00 00 	mov    0xbb7a(%rip),%rax        # 14000e4f0 <__mingw_oldexcpt_handler>
   140002976:	48 85 c0             	test   %rax,%rax
   140002979:	74 25                	je     1400029a0 <_gnu_exception_handler+0xd0>
   14000297b:	48 89 d9             	mov    %rbx,%rcx
   14000297e:	48 83 c4 20          	add    $0x20,%rsp
   140002982:	5b                   	pop    %rbx
   140002983:	48 ff e0             	rex.W jmp *%rax
   140002986:	66 2e 0f 1f 84 00 00 	cs nopw 0x0(%rax,%rax,1)
   14000298d:	00 00 00 
   140002990:	f6 42 04 01          	testb  $0x1,0x4(%rdx)
   140002994:	0f 85 57 ff ff ff    	jne    1400028f1 <_gnu_exception_handler+0x21>
   14000299a:	eb c1                	jmp    14000295d <_gnu_exception_handler+0x8d>
   14000299c:	0f 1f 40 00          	nopl   0x0(%rax)
   1400029a0:	31 c0                	xor    %eax,%eax
   1400029a2:	48 83 c4 20          	add    $0x20,%rsp
   1400029a6:	5b                   	pop    %rbx
   1400029a7:	c3                   	ret
   1400029a8:	0f 1f 84 00 00 00 00 	nopl   0x0(%rax,%rax,1)
   1400029af:	00 
   1400029b0:	31 d2                	xor    %edx,%edx
   1400029b2:	b9 08 00 00 00       	mov    $0x8,%ecx
   1400029b7:	e8 ec 5c 00 00       	call   1400086a8 <signal>
   1400029bc:	48 83 f8 01          	cmp    $0x1,%rax
   1400029c0:	0f 84 89 00 00 00    	je     140002a4f <_gnu_exception_handler+0x17f>
   1400029c6:	48 85 c0             	test   %rax,%rax
   1400029c9:	74 a4                	je     14000296f <_gnu_exception_handler+0x9f>
   1400029cb:	b9 08 00 00 00       	mov    $0x8,%ecx
   1400029d0:	ff d0                	call   *%rax
   1400029d2:	eb 89                	jmp    14000295d <_gnu_exception_handler+0x8d>
   1400029d4:	0f 1f 40 00          	nopl   0x0(%rax)
   1400029d8:	31 d2                	xor    %edx,%edx
   1400029da:	b9 08 00 00 00       	mov    $0x8,%ecx
   1400029df:	e8 c4 5c 00 00       	call   1400086a8 <signal>
   1400029e4:	48 83 f8 01          	cmp    $0x1,%rax
   1400029e8:	75 dc                	jne    1400029c6 <_gnu_exception_handler+0xf6>
   1400029ea:	ba 01 00 00 00       	mov    $0x1,%edx
   1400029ef:	b9 08 00 00 00       	mov    $0x8,%ecx
   1400029f4:	e8 af 5c 00 00       	call   1400086a8 <signal>
   1400029f9:	e9 5f ff ff ff       	jmp    14000295d <_gnu_exception_handler+0x8d>
   1400029fe:	66 90                	xchg   %ax,%ax
   140002a00:	31 d2                	xor    %edx,%edx
   140002a02:	b9 0b 00 00 00       	mov    $0xb,%ecx
   140002a07:	e8 9c 5c 00 00       	call   1400086a8 <signal>
   140002a0c:	48 83 f8 01          	cmp    $0x1,%rax
   140002a10:	74 29                	je     140002a3b <_gnu_exception_handler+0x16b>
   140002a12:	48 85 c0             	test   %rax,%rax
   140002a15:	0f 84 54 ff ff ff    	je     14000296f <_gnu_exception_handler+0x9f>
   140002a1b:	b9 0b 00 00 00       	mov    $0xb,%ecx
   140002a20:	ff d0                	call   *%rax
   140002a22:	e9 36 ff ff ff       	jmp    14000295d <_gnu_exception_handler+0x8d>
   140002a27:	ba 01 00 00 00       	mov    $0x1,%edx
   140002a2c:	b9 04 00 00 00       	mov    $0x4,%ecx
   140002a31:	e8 72 5c 00 00       	call   1400086a8 <signal>
   140002a36:	e9 22 ff ff ff       	jmp    14000295d <_gnu_exception_handler+0x8d>
   140002a3b:	ba 01 00 00 00       	mov    $0x1,%edx
   140002a40:	b9 0b 00 00 00       	mov    $0xb,%ecx
   140002a45:	e8 5e 5c 00 00       	call   1400086a8 <signal>
   140002a4a:	e9 0e ff ff ff       	jmp    14000295d <_gnu_exception_handler+0x8d>
   140002a4f:	ba 01 00 00 00       	mov    $0x1,%edx
   140002a54:	b9 08 00 00 00       	mov    $0x8,%ecx
   140002a59:	e8 4a 5c 00 00       	call   1400086a8 <signal>
   140002a5e:	e8 cd f8 ff ff       	call   140002330 <_fpreset>
   140002a63:	e9 f5 fe ff ff       	jmp    14000295d <_gnu_exception_handler+0x8d>
   140002a68:	90                   	nop
   140002a69:	90                   	nop
   140002a6a:	90                   	nop
   140002a6b:	90                   	nop
   140002a6c:	90                   	nop
   140002a6d:	90                   	nop
   140002a6e:	90                   	nop
   140002a6f:	90                   	nop

0000000140002a70 <__mingwthr_run_key_dtors.part.0>:
   140002a70:	41 54                	push   %r12
   140002a72:	55                   	push   %rbp
   140002a73:	57                   	push   %rdi
   140002a74:	56                   	push   %rsi
   140002a75:	53                   	push   %rbx
   140002a76:	48 83 ec 20          	sub    $0x20,%rsp
   140002a7a:	4c 8d 25 9f ba 00 00 	lea    0xba9f(%rip),%r12        # 14000e520 <__mingwthr_cs>
   140002a81:	4c 89 e1             	mov    %r12,%rcx
   140002a84:	ff 15 a6 c7 00 00    	call   *0xc7a6(%rip)        # 14000f230 <__imp_EnterCriticalSection>
   140002a8a:	48 8b 1d 6f ba 00 00 	mov    0xba6f(%rip),%rbx        # 14000e500 <key_dtor_list>
   140002a91:	48 85 db             	test   %rbx,%rbx
   140002a94:	74 36                	je     140002acc <__mingwthr_run_key_dtors.part.0+0x5c>
   140002a96:	48 8b 2d e3 c7 00 00 	mov    0xc7e3(%rip),%rbp        # 14000f280 <__imp_TlsGetValue>
   140002a9d:	48 8b 3d 94 c7 00 00 	mov    0xc794(%rip),%rdi        # 14000f238 <__imp_GetLastError>
   140002aa4:	0f 1f 40 00          	nopl   0x0(%rax)
   140002aa8:	8b 0b                	mov    (%rbx),%ecx
   140002aaa:	ff d5                	call   *%rbp
   140002aac:	48 89 c6             	mov    %rax,%rsi
   140002aaf:	ff d7                	call   *%rdi
   140002ab1:	85 c0                	test   %eax,%eax
   140002ab3:	75 0e                	jne    140002ac3 <__mingwthr_run_key_dtors.part.0+0x53>
   140002ab5:	48 85 f6             	test   %rsi,%rsi
   140002ab8:	74 09                	je     140002ac3 <__mingwthr_run_key_dtors.part.0+0x53>
   140002aba:	48 8b 43 08          	mov    0x8(%rbx),%rax
   140002abe:	48 89 f1             	mov    %rsi,%rcx
   140002ac1:	ff d0                	call   *%rax
   140002ac3:	48 8b 5b 10          	mov    0x10(%rbx),%rbx
   140002ac7:	48 85 db             	test   %rbx,%rbx
   140002aca:	75 dc                	jne    140002aa8 <__mingwthr_run_key_dtors.part.0+0x38>
   140002acc:	4c 89 e1             	mov    %r12,%rcx
   140002acf:	48 83 c4 20          	add    $0x20,%rsp
   140002ad3:	5b                   	pop    %rbx
   140002ad4:	5e                   	pop    %rsi
   140002ad5:	5f                   	pop    %rdi
   140002ad6:	5d                   	pop    %rbp
   140002ad7:	41 5c                	pop    %r12
   140002ad9:	48 ff 25 78 c7 00 00 	rex.W jmp *0xc778(%rip)        # 14000f258 <__imp_LeaveCriticalSection>

0000000140002ae0 <___w64_mingwthr_add_key_dtor>:
   140002ae0:	57                   	push   %rdi
   140002ae1:	56                   	push   %rsi
   140002ae2:	53                   	push   %rbx
   140002ae3:	48 83 ec 20          	sub    $0x20,%rsp
   140002ae7:	8b 05 1b ba 00 00    	mov    0xba1b(%rip),%eax        # 14000e508 <__mingwthr_cs_init>
   140002aed:	89 cf                	mov    %ecx,%edi
   140002aef:	48 89 d6             	mov    %rdx,%rsi
   140002af2:	85 c0                	test   %eax,%eax
   140002af4:	75 0a                	jne    140002b00 <___w64_mingwthr_add_key_dtor+0x20>
   140002af6:	31 c0                	xor    %eax,%eax
   140002af8:	48 83 c4 20          	add    $0x20,%rsp
   140002afc:	5b                   	pop    %rbx
   140002afd:	5e                   	pop    %rsi
   140002afe:	5f                   	pop    %rdi
   140002aff:	c3                   	ret
   140002b00:	ba 18 00 00 00       	mov    $0x18,%edx
   140002b05:	b9 01 00 00 00       	mov    $0x1,%ecx
   140002b0a:	e8 49 5b 00 00       	call   140008658 <calloc>
   140002b0f:	48 89 c3             	mov    %rax,%rbx
   140002b12:	48 85 c0             	test   %rax,%rax
   140002b15:	74 33                	je     140002b4a <___w64_mingwthr_add_key_dtor+0x6a>
   140002b17:	48 89 70 08          	mov    %rsi,0x8(%rax)
   140002b1b:	48 8d 35 fe b9 00 00 	lea    0xb9fe(%rip),%rsi        # 14000e520 <__mingwthr_cs>
   140002b22:	89 38                	mov    %edi,(%rax)
   140002b24:	48 89 f1             	mov    %rsi,%rcx
   140002b27:	ff 15 03 c7 00 00    	call   *0xc703(%rip)        # 14000f230 <__imp_EnterCriticalSection>
   140002b2d:	48 8b 05 cc b9 00 00 	mov    0xb9cc(%rip),%rax        # 14000e500 <key_dtor_list>
   140002b34:	48 89 f1             	mov    %rsi,%rcx
   140002b37:	48 89 1d c2 b9 00 00 	mov    %rbx,0xb9c2(%rip)        # 14000e500 <key_dtor_list>
   140002b3e:	48 89 43 10          	mov    %rax,0x10(%rbx)
   140002b42:	ff 15 10 c7 00 00    	call   *0xc710(%rip)        # 14000f258 <__imp_LeaveCriticalSection>
   140002b48:	eb ac                	jmp    140002af6 <___w64_mingwthr_add_key_dtor+0x16>
   140002b4a:	83 c8 ff             	or     $0xffffffff,%eax
   140002b4d:	eb a9                	jmp    140002af8 <___w64_mingwthr_add_key_dtor+0x18>
   140002b4f:	90                   	nop

0000000140002b50 <___w64_mingwthr_remove_key_dtor>:
   140002b50:	56                   	push   %rsi
   140002b51:	53                   	push   %rbx
   140002b52:	48 83 ec 28          	sub    $0x28,%rsp
   140002b56:	8b 05 ac b9 00 00    	mov    0xb9ac(%rip),%eax        # 14000e508 <__mingwthr_cs_init>
   140002b5c:	89 cb                	mov    %ecx,%ebx
   140002b5e:	85 c0                	test   %eax,%eax
   140002b60:	75 0e                	jne    140002b70 <___w64_mingwthr_remove_key_dtor+0x20>
   140002b62:	31 c0                	xor    %eax,%eax
   140002b64:	48 83 c4 28          	add    $0x28,%rsp
   140002b68:	5b                   	pop    %rbx
   140002b69:	5e                   	pop    %rsi
   140002b6a:	c3                   	ret
   140002b6b:	0f 1f 44 00 00       	nopl   0x0(%rax,%rax,1)
   140002b70:	48 8d 35 a9 b9 00 00 	lea    0xb9a9(%rip),%rsi        # 14000e520 <__mingwthr_cs>
   140002b77:	48 89 f1             	mov    %rsi,%rcx
   140002b7a:	ff 15 b0 c6 00 00    	call   *0xc6b0(%rip)        # 14000f230 <__imp_EnterCriticalSection>
   140002b80:	48 8b 0d 79 b9 00 00 	mov    0xb979(%rip),%rcx        # 14000e500 <key_dtor_list>
   140002b87:	48 85 c9             	test   %rcx,%rcx
   140002b8a:	74 27                	je     140002bb3 <___w64_mingwthr_remove_key_dtor+0x63>
   140002b8c:	31 d2                	xor    %edx,%edx
   140002b8e:	eb 0b                	jmp    140002b9b <___w64_mingwthr_remove_key_dtor+0x4b>
   140002b90:	48 89 ca             	mov    %rcx,%rdx
   140002b93:	48 85 c0             	test   %rax,%rax
   140002b96:	74 1b                	je     140002bb3 <___w64_mingwthr_remove_key_dtor+0x63>
   140002b98:	48 89 c1             	mov    %rax,%rcx
   140002b9b:	8b 01                	mov    (%rcx),%eax
   140002b9d:	39 d8                	cmp    %ebx,%eax
   140002b9f:	48 8b 41 10          	mov    0x10(%rcx),%rax
   140002ba3:	75 eb                	jne    140002b90 <___w64_mingwthr_remove_key_dtor+0x40>
   140002ba5:	48 85 d2             	test   %rdx,%rdx
   140002ba8:	74 1e                	je     140002bc8 <___w64_mingwthr_remove_key_dtor+0x78>
   140002baa:	48 89 42 10          	mov    %rax,0x10(%rdx)
   140002bae:	e8 c5 5a 00 00       	call   140008678 <free>
   140002bb3:	48 89 f1             	mov    %rsi,%rcx
   140002bb6:	ff 15 9c c6 00 00    	call   *0xc69c(%rip)        # 14000f258 <__imp_LeaveCriticalSection>
   140002bbc:	31 c0                	xor    %eax,%eax
   140002bbe:	48 83 c4 28          	add    $0x28,%rsp
   140002bc2:	5b                   	pop    %rbx
   140002bc3:	5e                   	pop    %rsi
   140002bc4:	c3                   	ret
   140002bc5:	0f 1f 00             	nopl   (%rax)
   140002bc8:	48 89 05 31 b9 00 00 	mov    %rax,0xb931(%rip)        # 14000e500 <key_dtor_list>
   140002bcf:	eb dd                	jmp    140002bae <___w64_mingwthr_remove_key_dtor+0x5e>
   140002bd1:	66 66 2e 0f 1f 84 00 	data16 cs nopw 0x0(%rax,%rax,1)
   140002bd8:	00 00 00 00 
   140002bdc:	0f 1f 40 00          	nopl   0x0(%rax)

0000000140002be0 <__mingw_TLScallback>:
   140002be0:	53                   	push   %rbx
   140002be1:	48 83 ec 20          	sub    $0x20,%rsp
   140002be5:	83 fa 02             	cmp    $0x2,%edx
   140002be8:	0f 84 b2 00 00 00    	je     140002ca0 <__mingw_TLScallback+0xc0>
   140002bee:	77 30                	ja     140002c20 <__mingw_TLScallback+0x40>
   140002bf0:	85 d2                	test   %edx,%edx
   140002bf2:	74 4c                	je     140002c40 <__mingw_TLScallback+0x60>
   140002bf4:	8b 05 0e b9 00 00    	mov    0xb90e(%rip),%eax        # 14000e508 <__mingwthr_cs_init>
   140002bfa:	85 c0                	test   %eax,%eax
   140002bfc:	0f 84 be 00 00 00    	je     140002cc0 <__mingw_TLScallback+0xe0>
   140002c02:	c7 05 fc b8 00 00 01 	movl   $0x1,0xb8fc(%rip)        # 14000e508 <__mingwthr_cs_init>
   140002c09:	00 00 00 
   140002c0c:	b8 01 00 00 00       	mov    $0x1,%eax
   140002c11:	48 83 c4 20          	add    $0x20,%rsp
   140002c15:	5b                   	pop    %rbx
   140002c16:	c3                   	ret
   140002c17:	66 0f 1f 84 00 00 00 	nopw   0x0(%rax,%rax,1)
   140002c1e:	00 00 
   140002c20:	83 fa 03             	cmp    $0x3,%edx
   140002c23:	75 e7                	jne    140002c0c <__mingw_TLScallback+0x2c>
   140002c25:	8b 05 dd b8 00 00    	mov    0xb8dd(%rip),%eax        # 14000e508 <__mingwthr_cs_init>
   140002c2b:	85 c0                	test   %eax,%eax
   140002c2d:	74 dd                	je     140002c0c <__mingw_TLScallback+0x2c>
   140002c2f:	e8 3c fe ff ff       	call   140002a70 <__mingwthr_run_key_dtors.part.0>
   140002c34:	eb d6                	jmp    140002c0c <__mingw_TLScallback+0x2c>
   140002c36:	66 2e 0f 1f 84 00 00 	cs nopw 0x0(%rax,%rax,1)
   140002c3d:	00 00 00 
   140002c40:	8b 05 c2 b8 00 00    	mov    0xb8c2(%rip),%eax        # 14000e508 <__mingwthr_cs_init>
   140002c46:	85 c0                	test   %eax,%eax
   140002c48:	75 66                	jne    140002cb0 <__mingw_TLScallback+0xd0>
   140002c4a:	8b 05 b8 b8 00 00    	mov    0xb8b8(%rip),%eax        # 14000e508 <__mingwthr_cs_init>
   140002c50:	83 f8 01             	cmp    $0x1,%eax
   140002c53:	75 b7                	jne    140002c0c <__mingw_TLScallback+0x2c>
   140002c55:	48 8b 1d a4 b8 00 00 	mov    0xb8a4(%rip),%rbx        # 14000e500 <key_dtor_list>
   140002c5c:	48 85 db             	test   %rbx,%rbx
   140002c5f:	74 18                	je     140002c79 <__mingw_TLScallback+0x99>
   140002c61:	0f 1f 80 00 00 00 00 	nopl   0x0(%rax)
   140002c68:	48 89 d9             	mov    %rbx,%rcx
   140002c6b:	48 8b 5b 10          	mov    0x10(%rbx),%rbx
   140002c6f:	e8 04 5a 00 00       	call   140008678 <free>
   140002c74:	48 85 db             	test   %rbx,%rbx
   140002c77:	75 ef                	jne    140002c68 <__mingw_TLScallback+0x88>
   140002c79:	48 8d 0d a0 b8 00 00 	lea    0xb8a0(%rip),%rcx        # 14000e520 <__mingwthr_cs>
   140002c80:	48 c7 05 75 b8 00 00 	movq   $0x0,0xb875(%rip)        # 14000e500 <key_dtor_list>
   140002c87:	00 00 00 00 
   140002c8b:	c7 05 73 b8 00 00 00 	movl   $0x0,0xb873(%rip)        # 14000e508 <__mingwthr_cs_init>
   140002c92:	00 00 00 
   140002c95:	ff 15 8d c5 00 00    	call   *0xc58d(%rip)        # 14000f228 <__imp_DeleteCriticalSection>
   140002c9b:	e9 6c ff ff ff       	jmp    140002c0c <__mingw_TLScallback+0x2c>
   140002ca0:	e8 8b f6 ff ff       	call   140002330 <_fpreset>
   140002ca5:	b8 01 00 00 00       	mov    $0x1,%eax
   140002caa:	48 83 c4 20          	add    $0x20,%rsp
   140002cae:	5b                   	pop    %rbx
   140002caf:	c3                   	ret
   140002cb0:	e8 bb fd ff ff       	call   140002a70 <__mingwthr_run_key_dtors.part.0>
   140002cb5:	eb 93                	jmp    140002c4a <__mingw_TLScallback+0x6a>
   140002cb7:	66 0f 1f 84 00 00 00 	nopw   0x0(%rax,%rax,1)
   140002cbe:	00 00 
   140002cc0:	48 8d 0d 59 b8 00 00 	lea    0xb859(%rip),%rcx        # 14000e520 <__mingwthr_cs>
   140002cc7:	ff 15 7b c5 00 00    	call   *0xc57b(%rip)        # 14000f248 <__imp_InitializeCriticalSection>
   140002ccd:	e9 30 ff ff ff       	jmp    140002c02 <__mingw_TLScallback+0x22>
   140002cd2:	90                   	nop
   140002cd3:	90                   	nop
   140002cd4:	90                   	nop
   140002cd5:	90                   	nop
   140002cd6:	90                   	nop
   140002cd7:	90                   	nop
   140002cd8:	90                   	nop
   140002cd9:	90                   	nop
   140002cda:	90                   	nop
   140002cdb:	90                   	nop
   140002cdc:	90                   	nop
   140002cdd:	90                   	nop
   140002cde:	90                   	nop
   140002cdf:	90                   	nop

0000000140002ce0 <_ValidateImageBase>:
   140002ce0:	31 c0                	xor    %eax,%eax
   140002ce2:	66 81 39 4d 5a       	cmpw   $0x5a4d,(%rcx)
   140002ce7:	75 0f                	jne    140002cf8 <_ValidateImageBase+0x18>
   140002ce9:	48 63 51 3c          	movslq 0x3c(%rcx),%rdx
   140002ced:	48 01 d1             	add    %rdx,%rcx
   140002cf0:	81 39 50 45 00 00    	cmpl   $0x4550,(%rcx)
   140002cf6:	74 08                	je     140002d00 <_ValidateImageBase+0x20>
   140002cf8:	c3                   	ret
   140002cf9:	0f 1f 80 00 00 00 00 	nopl   0x0(%rax)
   140002d00:	31 c0                	xor    %eax,%eax
   140002d02:	66 81 79 18 0b 02    	cmpw   $0x20b,0x18(%rcx)
   140002d08:	0f 94 c0             	sete   %al
   140002d0b:	c3                   	ret
   140002d0c:	0f 1f 40 00          	nopl   0x0(%rax)

0000000140002d10 <_FindPESection>:
   140002d10:	48 63 41 3c          	movslq 0x3c(%rcx),%rax
   140002d14:	48 01 c1             	add    %rax,%rcx
   140002d17:	0f b7 41 14          	movzwl 0x14(%rcx),%eax
   140002d1b:	44 0f b7 41 06       	movzwl 0x6(%rcx),%r8d
   140002d20:	48 8d 44 01 18       	lea    0x18(%rcx,%rax,1),%rax
   140002d25:	66 45 85 c0          	test   %r8w,%r8w
   140002d29:	74 32                	je     140002d5d <_FindPESection+0x4d>
   140002d2b:	41 8d 48 ff          	lea    -0x1(%r8),%ecx
   140002d2f:	48 8d 0c 89          	lea    (%rcx,%rcx,4),%rcx
   140002d33:	4c 8d 4c c8 28       	lea    0x28(%rax,%rcx,8),%r9
   140002d38:	0f 1f 84 00 00 00 00 	nopl   0x0(%rax,%rax,1)
   140002d3f:	00 
   140002d40:	44 8b 40 0c          	mov    0xc(%rax),%r8d
   140002d44:	4c 89 c1             	mov    %r8,%rcx
   140002d47:	4c 39 c2             	cmp    %r8,%rdx
   140002d4a:	72 08                	jb     140002d54 <_FindPESection+0x44>
   140002d4c:	03 48 08             	add    0x8(%rax),%ecx
   140002d4f:	48 39 ca             	cmp    %rcx,%rdx
   140002d52:	72 0b                	jb     140002d5f <_FindPESection+0x4f>
   140002d54:	48 83 c0 28          	add    $0x28,%rax
   140002d58:	4c 39 c8             	cmp    %r9,%rax
   140002d5b:	75 e3                	jne    140002d40 <_FindPESection+0x30>
   140002d5d:	31 c0                	xor    %eax,%eax
   140002d5f:	c3                   	ret

0000000140002d60 <_FindPESectionByName>:
   140002d60:	57                   	push   %rdi
   140002d61:	56                   	push   %rsi
   140002d62:	53                   	push   %rbx
   140002d63:	48 83 ec 20          	sub    $0x20,%rsp
   140002d67:	48 89 ce             	mov    %rcx,%rsi
   140002d6a:	e8 49 59 00 00       	call   1400086b8 <strlen>
   140002d6f:	48 83 f8 08          	cmp    $0x8,%rax
   140002d73:	77 7b                	ja     140002df0 <_FindPESectionByName+0x90>
   140002d75:	48 8b 15 04 7b 00 00 	mov    0x7b04(%rip),%rdx        # 14000a880 <.refptr.__image_base__>
   140002d7c:	31 db                	xor    %ebx,%ebx
   140002d7e:	66 81 3a 4d 5a       	cmpw   $0x5a4d,(%rdx)
   140002d83:	75 59                	jne    140002dde <_FindPESectionByName+0x7e>
   140002d85:	48 63 42 3c          	movslq 0x3c(%rdx),%rax
   140002d89:	48 01 d0             	add    %rdx,%rax
   140002d8c:	81 38 50 45 00 00    	cmpl   $0x4550,(%rax)
   140002d92:	75 4a                	jne    140002dde <_FindPESectionByName+0x7e>
   140002d94:	66 81 78 18 0b 02    	cmpw   $0x20b,0x18(%rax)
   140002d9a:	75 42                	jne    140002dde <_FindPESectionByName+0x7e>
   140002d9c:	0f b7 50 14          	movzwl 0x14(%rax),%edx
   140002da0:	48 8d 5c 10 18       	lea    0x18(%rax,%rdx,1),%rbx
   140002da5:	0f b7 50 06          	movzwl 0x6(%rax),%edx
   140002da9:	66 85 d2             	test   %dx,%dx
   140002dac:	74 42                	je     140002df0 <_FindPESectionByName+0x90>
   140002dae:	8d 42 ff             	lea    -0x1(%rdx),%eax
   140002db1:	48 8d 04 80          	lea    (%rax,%rax,4),%rax
   140002db5:	48 8d 7c c3 28       	lea    0x28(%rbx,%rax,8),%rdi
   140002dba:	eb 0d                	jmp    140002dc9 <_FindPESectionByName+0x69>
   140002dbc:	0f 1f 40 00          	nopl   0x0(%rax)
   140002dc0:	48 83 c3 28          	add    $0x28,%rbx
   140002dc4:	48 39 fb             	cmp    %rdi,%rbx
   140002dc7:	74 27                	je     140002df0 <_FindPESectionByName+0x90>
   140002dc9:	41 b8 08 00 00 00    	mov    $0x8,%r8d
   140002dcf:	48 89 f2             	mov    %rsi,%rdx
   140002dd2:	48 89 d9             	mov    %rbx,%rcx
   140002dd5:	e8 e6 58 00 00       	call   1400086c0 <strncmp>
   140002dda:	85 c0                	test   %eax,%eax
   140002ddc:	75 e2                	jne    140002dc0 <_FindPESectionByName+0x60>
   140002dde:	48 89 d8             	mov    %rbx,%rax
   140002de1:	48 83 c4 20          	add    $0x20,%rsp
   140002de5:	5b                   	pop    %rbx
   140002de6:	5e                   	pop    %rsi
   140002de7:	5f                   	pop    %rdi
   140002de8:	c3                   	ret
   140002de9:	0f 1f 80 00 00 00 00 	nopl   0x0(%rax)
   140002df0:	31 db                	xor    %ebx,%ebx
   140002df2:	48 89 d8             	mov    %rbx,%rax
   140002df5:	48 83 c4 20          	add    $0x20,%rsp
   140002df9:	5b                   	pop    %rbx
   140002dfa:	5e                   	pop    %rsi
   140002dfb:	5f                   	pop    %rdi
   140002dfc:	c3                   	ret
   140002dfd:	0f 1f 00             	nopl   (%rax)

0000000140002e00 <__mingw_GetSectionForAddress>:
   140002e00:	48 8b 15 79 7a 00 00 	mov    0x7a79(%rip),%rdx        # 14000a880 <.refptr.__image_base__>
   140002e07:	31 c0                	xor    %eax,%eax
   140002e09:	66 81 3a 4d 5a       	cmpw   $0x5a4d,(%rdx)
   140002e0e:	75 10                	jne    140002e20 <__mingw_GetSectionForAddress+0x20>
   140002e10:	4c 63 42 3c          	movslq 0x3c(%rdx),%r8
   140002e14:	49 01 d0             	add    %rdx,%r8
   140002e17:	41 81 38 50 45 00 00 	cmpl   $0x4550,(%r8)
   140002e1e:	74 08                	je     140002e28 <__mingw_GetSectionForAddress+0x28>
   140002e20:	c3                   	ret
   140002e21:	0f 1f 80 00 00 00 00 	nopl   0x0(%rax)
   140002e28:	66 41 81 78 18 0b 02 	cmpw   $0x20b,0x18(%r8)
   140002e2f:	75 ef                	jne    140002e20 <__mingw_GetSectionForAddress+0x20>
   140002e31:	41 0f b7 40 14       	movzwl 0x14(%r8),%eax
   140002e36:	48 29 d1             	sub    %rdx,%rcx
   140002e39:	49 8d 44 00 18       	lea    0x18(%r8,%rax,1),%rax
   140002e3e:	45 0f b7 40 06       	movzwl 0x6(%r8),%r8d
   140002e43:	66 45 85 c0          	test   %r8w,%r8w
   140002e47:	74 34                	je     140002e7d <__mingw_GetSectionForAddress+0x7d>
   140002e49:	41 8d 50 ff          	lea    -0x1(%r8),%edx
   140002e4d:	48 8d 14 92          	lea    (%rdx,%rdx,4),%rdx
   140002e51:	4c 8d 4c d0 28       	lea    0x28(%rax,%rdx,8),%r9
   140002e56:	66 2e 0f 1f 84 00 00 	cs nopw 0x0(%rax,%rax,1)
   140002e5d:	00 00 00 
   140002e60:	44 8b 40 0c          	mov    0xc(%rax),%r8d
   140002e64:	4c 89 c2             	mov    %r8,%rdx
   140002e67:	4c 39 c1             	cmp    %r8,%rcx
   140002e6a:	72 08                	jb     140002e74 <__mingw_GetSectionForAddress+0x74>
   140002e6c:	03 50 08             	add    0x8(%rax),%edx
   140002e6f:	48 39 d1             	cmp    %rdx,%rcx
   140002e72:	72 ac                	jb     140002e20 <__mingw_GetSectionForAddress+0x20>
   140002e74:	48 83 c0 28          	add    $0x28,%rax
   140002e78:	4c 39 c8             	cmp    %r9,%rax
   140002e7b:	75 e3                	jne    140002e60 <__mingw_GetSectionForAddress+0x60>
   140002e7d:	31 c0                	xor    %eax,%eax
   140002e7f:	c3                   	ret

0000000140002e80 <__mingw_GetSectionCount>:
   140002e80:	48 8b 05 f9 79 00 00 	mov    0x79f9(%rip),%rax        # 14000a880 <.refptr.__image_base__>
   140002e87:	31 c9                	xor    %ecx,%ecx
   140002e89:	66 81 38 4d 5a       	cmpw   $0x5a4d,(%rax)
   140002e8e:	75 0f                	jne    140002e9f <__mingw_GetSectionCount+0x1f>
   140002e90:	48 63 50 3c          	movslq 0x3c(%rax),%rdx
   140002e94:	48 01 d0             	add    %rdx,%rax
   140002e97:	81 38 50 45 00 00    	cmpl   $0x4550,(%rax)
   140002e9d:	74 09                	je     140002ea8 <__mingw_GetSectionCount+0x28>
   140002e9f:	89 c8                	mov    %ecx,%eax
   140002ea1:	c3                   	ret
   140002ea2:	66 0f 1f 44 00 00    	nopw   0x0(%rax,%rax,1)
   140002ea8:	66 81 78 18 0b 02    	cmpw   $0x20b,0x18(%rax)
   140002eae:	75 ef                	jne    140002e9f <__mingw_GetSectionCount+0x1f>
   140002eb0:	0f b7 48 06          	movzwl 0x6(%rax),%ecx
   140002eb4:	89 c8                	mov    %ecx,%eax
   140002eb6:	c3                   	ret
   140002eb7:	66 0f 1f 84 00 00 00 	nopw   0x0(%rax,%rax,1)
   140002ebe:	00 00 

0000000140002ec0 <_FindPESectionExec>:
   140002ec0:	4c 8b 05 b9 79 00 00 	mov    0x79b9(%rip),%r8        # 14000a880 <.refptr.__image_base__>
   140002ec7:	31 c0                	xor    %eax,%eax
   140002ec9:	66 41 81 38 4d 5a    	cmpw   $0x5a4d,(%r8)
   140002ecf:	75 0f                	jne    140002ee0 <_FindPESectionExec+0x20>
   140002ed1:	49 63 50 3c          	movslq 0x3c(%r8),%rdx
   140002ed5:	4c 01 c2             	add    %r8,%rdx
   140002ed8:	81 3a 50 45 00 00    	cmpl   $0x4550,(%rdx)
   140002ede:	74 08                	je     140002ee8 <_FindPESectionExec+0x28>
   140002ee0:	c3                   	ret
   140002ee1:	0f 1f 80 00 00 00 00 	nopl   0x0(%rax)
   140002ee8:	66 81 7a 18 0b 02    	cmpw   $0x20b,0x18(%rdx)
   140002eee:	75 f0                	jne    140002ee0 <_FindPESectionExec+0x20>
   140002ef0:	0f b7 42 14          	movzwl 0x14(%rdx),%eax
   140002ef4:	44 0f b7 42 06       	movzwl 0x6(%rdx),%r8d
   140002ef9:	48 8d 44 02 18       	lea    0x18(%rdx,%rax,1),%rax
   140002efe:	66 45 85 c0          	test   %r8w,%r8w
   140002f02:	74 2c                	je     140002f30 <_FindPESectionExec+0x70>
   140002f04:	41 8d 50 ff          	lea    -0x1(%r8),%edx
   140002f08:	48 8d 14 92          	lea    (%rdx,%rdx,4),%rdx
   140002f0c:	48 8d 54 d0 28       	lea    0x28(%rax,%rdx,8),%rdx
   140002f11:	0f 1f 80 00 00 00 00 	nopl   0x0(%rax)
   140002f18:	f6 40 27 20          	testb  $0x20,0x27(%rax)
   140002f1c:	74 09                	je     140002f27 <_FindPESectionExec+0x67>
   140002f1e:	48 85 c9             	test   %rcx,%rcx
   140002f21:	74 bd                	je     140002ee0 <_FindPESectionExec+0x20>
   140002f23:	48 83 e9 01          	sub    $0x1,%rcx
   140002f27:	48 83 c0 28          	add    $0x28,%rax
   140002f2b:	48 39 d0             	cmp    %rdx,%rax
   140002f2e:	75 e8                	jne    140002f18 <_FindPESectionExec+0x58>
   140002f30:	31 c0                	xor    %eax,%eax
   140002f32:	c3                   	ret
   140002f33:	66 66 2e 0f 1f 84 00 	data16 cs nopw 0x0(%rax,%rax,1)
   140002f3a:	00 00 00 00 
   140002f3e:	66 90                	xchg   %ax,%ax

0000000140002f40 <_GetPEImageBase>:
   140002f40:	48 8b 05 39 79 00 00 	mov    0x7939(%rip),%rax        # 14000a880 <.refptr.__image_base__>
   140002f47:	31 d2                	xor    %edx,%edx
   140002f49:	66 81 38 4d 5a       	cmpw   $0x5a4d,(%rax)
   140002f4e:	75 0f                	jne    140002f5f <_GetPEImageBase+0x1f>
   140002f50:	48 63 48 3c          	movslq 0x3c(%rax),%rcx
   140002f54:	48 01 c1             	add    %rax,%rcx
   140002f57:	81 39 50 45 00 00    	cmpl   $0x4550,(%rcx)
   140002f5d:	74 09                	je     140002f68 <_GetPEImageBase+0x28>
   140002f5f:	48 89 d0             	mov    %rdx,%rax
   140002f62:	c3                   	ret
   140002f63:	0f 1f 44 00 00       	nopl   0x0(%rax,%rax,1)
   140002f68:	66 81 79 18 0b 02    	cmpw   $0x20b,0x18(%rcx)
   140002f6e:	48 0f 44 d0          	cmove  %rax,%rdx
   140002f72:	48 89 d0             	mov    %rdx,%rax
   140002f75:	c3                   	ret
   140002f76:	66 2e 0f 1f 84 00 00 	cs nopw 0x0(%rax,%rax,1)
   140002f7d:	00 00 00 

0000000140002f80 <_IsNonwritableInCurrentImage>:
   140002f80:	48 8b 15 f9 78 00 00 	mov    0x78f9(%rip),%rdx        # 14000a880 <.refptr.__image_base__>
   140002f87:	31 c0                	xor    %eax,%eax
   140002f89:	66 81 3a 4d 5a       	cmpw   $0x5a4d,(%rdx)
   140002f8e:	75 10                	jne    140002fa0 <_IsNonwritableInCurrentImage+0x20>
   140002f90:	4c 63 42 3c          	movslq 0x3c(%rdx),%r8
   140002f94:	49 01 d0             	add    %rdx,%r8
   140002f97:	41 81 38 50 45 00 00 	cmpl   $0x4550,(%r8)
   140002f9e:	74 08                	je     140002fa8 <_IsNonwritableInCurrentImage+0x28>
   140002fa0:	c3                   	ret
   140002fa1:	0f 1f 80 00 00 00 00 	nopl   0x0(%rax)
   140002fa8:	66 41 81 78 18 0b 02 	cmpw   $0x20b,0x18(%r8)
   140002faf:	75 ef                	jne    140002fa0 <_IsNonwritableInCurrentImage+0x20>
   140002fb1:	48 29 d1             	sub    %rdx,%rcx
   140002fb4:	45 0f b7 48 06       	movzwl 0x6(%r8),%r9d
   140002fb9:	41 0f b7 50 14       	movzwl 0x14(%r8),%edx
   140002fbe:	49 8d 54 10 18       	lea    0x18(%r8,%rdx,1),%rdx
   140002fc3:	66 45 85 c9          	test   %r9w,%r9w
   140002fc7:	74 d7                	je     140002fa0 <_IsNonwritableInCurrentImage+0x20>
   140002fc9:	41 8d 41 ff          	lea    -0x1(%r9),%eax
   140002fcd:	48 8d 04 80          	lea    (%rax,%rax,4),%rax
   140002fd1:	4c 8d 4c c2 28       	lea    0x28(%rdx,%rax,8),%r9
   140002fd6:	66 2e 0f 1f 84 00 00 	cs nopw 0x0(%rax,%rax,1)
   140002fdd:	00 00 00 
   140002fe0:	44 8b 42 0c          	mov    0xc(%rdx),%r8d
   140002fe4:	4c 89 c0             	mov    %r8,%rax
   140002fe7:	4c 39 c1             	cmp    %r8,%rcx
   140002fea:	72 08                	jb     140002ff4 <_IsNonwritableInCurrentImage+0x74>
   140002fec:	03 42 08             	add    0x8(%rdx),%eax
   140002fef:	48 39 c1             	cmp    %rax,%rcx
   140002ff2:	72 0c                	jb     140003000 <_IsNonwritableInCurrentImage+0x80>
   140002ff4:	48 83 c2 28          	add    $0x28,%rdx
   140002ff8:	49 39 d1             	cmp    %rdx,%r9
   140002ffb:	75 e3                	jne    140002fe0 <_IsNonwritableInCurrentImage+0x60>
   140002ffd:	31 c0                	xor    %eax,%eax
   140002fff:	c3                   	ret
   140003000:	8b 42 24             	mov    0x24(%rdx),%eax
   140003003:	f7 d0                	not    %eax
   140003005:	c1 e8 1f             	shr    $0x1f,%eax
   140003008:	c3                   	ret
   140003009:	0f 1f 80 00 00 00 00 	nopl   0x0(%rax)

0000000140003010 <__mingw_enum_import_library_names>:
   140003010:	4c 8b 1d 69 78 00 00 	mov    0x7869(%rip),%r11        # 14000a880 <.refptr.__image_base__>
   140003017:	45 31 c9             	xor    %r9d,%r9d
   14000301a:	66 41 81 3b 4d 5a    	cmpw   $0x5a4d,(%r11)
   140003020:	75 10                	jne    140003032 <__mingw_enum_import_library_names+0x22>
   140003022:	4d 63 43 3c          	movslq 0x3c(%r11),%r8
   140003026:	4d 01 d8             	add    %r11,%r8
   140003029:	41 81 38 50 45 00 00 	cmpl   $0x4550,(%r8)
   140003030:	74 0e                	je     140003040 <__mingw_enum_import_library_names+0x30>
   140003032:	4c 89 c8             	mov    %r9,%rax
   140003035:	c3                   	ret
   140003036:	66 2e 0f 1f 84 00 00 	cs nopw 0x0(%rax,%rax,1)
   14000303d:	00 00 00 
   140003040:	66 41 81 78 18 0b 02 	cmpw   $0x20b,0x18(%r8)
   140003047:	75 e9                	jne    140003032 <__mingw_enum_import_library_names+0x22>
   140003049:	41 8b 80 90 00 00 00 	mov    0x90(%r8),%eax
   140003050:	85 c0                	test   %eax,%eax
   140003052:	74 de                	je     140003032 <__mingw_enum_import_library_names+0x22>
   140003054:	41 0f b7 50 14       	movzwl 0x14(%r8),%edx
   140003059:	45 0f b7 50 06       	movzwl 0x6(%r8),%r10d
   14000305e:	49 8d 54 10 18       	lea    0x18(%r8,%rdx,1),%rdx
   140003063:	66 45 85 d2          	test   %r10w,%r10w
   140003067:	74 c9                	je     140003032 <__mingw_enum_import_library_names+0x22>
   140003069:	45 8d 42 ff          	lea    -0x1(%r10),%r8d
   14000306d:	4f 8d 04 80          	lea    (%r8,%r8,4),%r8
   140003071:	4e 8d 54 c2 28       	lea    0x28(%rdx,%r8,8),%r10
   140003076:	66 2e 0f 1f 84 00 00 	cs nopw 0x0(%rax,%rax,1)
   14000307d:	00 00 00 
   140003080:	44 8b 4a 0c          	mov    0xc(%rdx),%r9d
   140003084:	4d 89 c8             	mov    %r9,%r8
   140003087:	4c 39 c8             	cmp    %r9,%rax
   14000308a:	72 09                	jb     140003095 <__mingw_enum_import_library_names+0x85>
   14000308c:	44 03 42 08          	add    0x8(%rdx),%r8d
   140003090:	4c 39 c0             	cmp    %r8,%rax
   140003093:	72 13                	jb     1400030a8 <__mingw_enum_import_library_names+0x98>
   140003095:	48 83 c2 28          	add    $0x28,%rdx
   140003099:	4c 39 d2             	cmp    %r10,%rdx
   14000309c:	75 e2                	jne    140003080 <__mingw_enum_import_library_names+0x70>
   14000309e:	45 31 c9             	xor    %r9d,%r9d
   1400030a1:	4c 89 c8             	mov    %r9,%rax
   1400030a4:	c3                   	ret
   1400030a5:	0f 1f 00             	nopl   (%rax)
   1400030a8:	4c 01 d8             	add    %r11,%rax
   1400030ab:	eb 0a                	jmp    1400030b7 <__mingw_enum_import_library_names+0xa7>
   1400030ad:	0f 1f 00             	nopl   (%rax)
   1400030b0:	83 e9 01             	sub    $0x1,%ecx
   1400030b3:	48 83 c0 14          	add    $0x14,%rax
   1400030b7:	44 8b 40 04          	mov    0x4(%rax),%r8d
   1400030bb:	45 85 c0             	test   %r8d,%r8d
   1400030be:	75 07                	jne    1400030c7 <__mingw_enum_import_library_names+0xb7>
   1400030c0:	8b 50 0c             	mov    0xc(%rax),%edx
   1400030c3:	85 d2                	test   %edx,%edx
   1400030c5:	74 d7                	je     14000309e <__mingw_enum_import_library_names+0x8e>
   1400030c7:	85 c9                	test   %ecx,%ecx
   1400030c9:	7f e5                	jg     1400030b0 <__mingw_enum_import_library_names+0xa0>
   1400030cb:	44 8b 48 0c          	mov    0xc(%rax),%r9d
   1400030cf:	4d 01 d9             	add    %r11,%r9
   1400030d2:	4c 89 c8             	mov    %r9,%rax
   1400030d5:	c3                   	ret
   1400030d6:	90                   	nop
   1400030d7:	90                   	nop
   1400030d8:	90                   	nop
   1400030d9:	90                   	nop
   1400030da:	90                   	nop
   1400030db:	90                   	nop
   1400030dc:	90                   	nop
   1400030dd:	90                   	nop
   1400030de:	90                   	nop
   1400030df:	90                   	nop

00000001400030e0 <___chkstk_ms>:
   1400030e0:	51                   	push   %rcx
   1400030e1:	50                   	push   %rax
   1400030e2:	48 3d 00 10 00 00    	cmp    $0x1000,%rax
   1400030e8:	48 8d 4c 24 18       	lea    0x18(%rsp),%rcx
   1400030ed:	72 19                	jb     140003108 <___chkstk_ms+0x28>
   1400030ef:	48 81 e9 00 10 00 00 	sub    $0x1000,%rcx
   1400030f6:	48 83 09 00          	orq    $0x0,(%rcx)
   1400030fa:	48 2d 00 10 00 00    	sub    $0x1000,%rax
   140003100:	48 3d 00 10 00 00    	cmp    $0x1000,%rax
   140003106:	77 e7                	ja     1400030ef <___chkstk_ms+0xf>
   140003108:	48 29 c1             	sub    %rax,%rcx
   14000310b:	48 83 09 00          	orq    $0x0,(%rcx)
   14000310f:	58                   	pop    %rax
   140003110:	59                   	pop    %rcx
   140003111:	c3                   	ret
   140003112:	90                   	nop
   140003113:	90                   	nop
   140003114:	90                   	nop
   140003115:	90                   	nop
   140003116:	90                   	nop
   140003117:	90                   	nop
   140003118:	90                   	nop
   140003119:	90                   	nop
   14000311a:	90                   	nop
   14000311b:	90                   	nop
   14000311c:	90                   	nop
   14000311d:	90                   	nop
   14000311e:	90                   	nop
   14000311f:	90                   	nop

0000000140003120 <__mingw_vfprintf>:
   140003120:	57                   	push   %rdi
   140003121:	56                   	push   %rsi
   140003122:	53                   	push   %rbx
   140003123:	48 83 ec 30          	sub    $0x30,%rsp
   140003127:	4c 89 c7             	mov    %r8,%rdi
   14000312a:	48 89 cb             	mov    %rcx,%rbx
   14000312d:	48 89 d6             	mov    %rdx,%rsi
   140003130:	e8 8b 4e 00 00       	call   140007fc0 <_lock_file>
   140003135:	48 89 7c 24 20       	mov    %rdi,0x20(%rsp)
   14000313a:	49 89 f1             	mov    %rsi,%r9
   14000313d:	45 31 c0             	xor    %r8d,%r8d
   140003140:	48 89 da             	mov    %rbx,%rdx
   140003143:	b9 00 60 00 00       	mov    $0x6000,%ecx
   140003148:	e8 23 1b 00 00       	call   140004c70 <__mingw_pformat>
   14000314d:	48 89 d9             	mov    %rbx,%rcx
   140003150:	89 c6                	mov    %eax,%esi
   140003152:	e8 d9 4e 00 00       	call   140008030 <_unlock_file>
   140003157:	89 f0                	mov    %esi,%eax
   140003159:	48 83 c4 30          	add    $0x30,%rsp
   14000315d:	5b                   	pop    %rbx
   14000315e:	5e                   	pop    %rsi
   14000315f:	5f                   	pop    %rdi
   140003160:	c3                   	ret
   140003161:	90                   	nop
   140003162:	90                   	nop
   140003163:	90                   	nop
   140003164:	90                   	nop
   140003165:	90                   	nop
   140003166:	90                   	nop
   140003167:	90                   	nop
   140003168:	90                   	nop
   140003169:	90                   	nop
   14000316a:	90                   	nop
   14000316b:	90                   	nop
   14000316c:	90                   	nop
   14000316d:	90                   	nop
   14000316e:	90                   	nop
   14000316f:	90                   	nop

0000000140003170 <__pformat_cvt>:
   140003170:	48 83 ec 68          	sub    $0x68,%rsp
   140003174:	48 8b 02             	mov    (%rdx),%rax
   140003177:	8b 52 08             	mov    0x8(%rdx),%edx
   14000317a:	41 89 d2             	mov    %edx,%r10d
   14000317d:	41 89 cb             	mov    %ecx,%r11d
   140003180:	48 89 44 24 50       	mov    %rax,0x50(%rsp)
   140003185:	48 89 d1             	mov    %rdx,%rcx
   140003188:	89 54 24 58          	mov    %edx,0x58(%rsp)
   14000318c:	66 41 81 e2 ff 7f    	and    $0x7fff,%r10w
   140003192:	75 74                	jne    140003208 <__pformat_cvt+0x98>
   140003194:	48 89 c2             	mov    %rax,%rdx
   140003197:	48 c1 ea 20          	shr    $0x20,%rdx
   14000319b:	09 d0                	or     %edx,%eax
   14000319d:	0f 84 8d 00 00 00    	je     140003230 <__pformat_cvt+0xc0>
   1400031a3:	85 d2                	test   %edx,%edx
   1400031a5:	0f 89 95 00 00 00    	jns    140003240 <__pformat_cvt+0xd0>
   1400031ab:	41 8d 92 c2 bf ff ff 	lea    -0x403e(%r10),%edx
   1400031b2:	b8 01 00 00 00       	mov    $0x1,%eax
   1400031b7:	0f bf d2             	movswl %dx,%edx
   1400031ba:	89 44 24 44          	mov    %eax,0x44(%rsp)
   1400031be:	81 e1 00 80 00 00    	and    $0x8000,%ecx
   1400031c4:	48 8b 84 24 90 00 00 	mov    0x90(%rsp),%rax
   1400031cb:	00 
   1400031cc:	89 08                	mov    %ecx,(%rax)
   1400031ce:	48 8d 44 24 48       	lea    0x48(%rsp),%rax
   1400031d3:	48 8d 0d 86 5e 00 00 	lea    0x5e86(%rip),%rcx        # 140009060 <fpi.0>
   1400031da:	4c 89 4c 24 30       	mov    %r9,0x30(%rsp)
   1400031df:	4c 8d 4c 24 44       	lea    0x44(%rsp),%r9
   1400031e4:	44 89 44 24 28       	mov    %r8d,0x28(%rsp)
   1400031e9:	4c 8d 44 24 50       	lea    0x50(%rsp),%r8
   1400031ee:	48 89 44 24 38       	mov    %rax,0x38(%rsp)
   1400031f3:	44 89 5c 24 20       	mov    %r11d,0x20(%rsp)
   1400031f8:	e8 b3 27 00 00       	call   1400059b0 <__gdtoa>
   1400031fd:	48 83 c4 68          	add    $0x68,%rsp
   140003201:	c3                   	ret
   140003202:	66 0f 1f 44 00 00    	nopw   0x0(%rax,%rax,1)
   140003208:	66 41 81 fa ff 7f    	cmp    $0x7fff,%r10w
   14000320e:	75 9b                	jne    1400031ab <__pformat_cvt+0x3b>
   140003210:	48 89 c2             	mov    %rax,%rdx
   140003213:	48 c1 ea 20          	shr    $0x20,%rdx
   140003217:	81 e2 ff ff ff 7f    	and    $0x7fffffff,%edx
   14000321d:	09 c2                	or     %eax,%edx
   14000321f:	74 2f                	je     140003250 <__pformat_cvt+0xe0>
   140003221:	c7 44 24 44 04 00 00 	movl   $0x4,0x44(%rsp)
   140003228:	00 
   140003229:	31 d2                	xor    %edx,%edx
   14000322b:	31 c9                	xor    %ecx,%ecx
   14000322d:	eb 95                	jmp    1400031c4 <__pformat_cvt+0x54>
   14000322f:	90                   	nop
   140003230:	31 c0                	xor    %eax,%eax
   140003232:	31 d2                	xor    %edx,%edx
   140003234:	eb 84                	jmp    1400031ba <__pformat_cvt+0x4a>
   140003236:	66 2e 0f 1f 84 00 00 	cs nopw 0x0(%rax,%rax,1)
   14000323d:	00 00 00 
   140003240:	b8 02 00 00 00       	mov    $0x2,%eax
   140003245:	ba c3 bf ff ff       	mov    $0xffffbfc3,%edx
   14000324a:	e9 6b ff ff ff       	jmp    1400031ba <__pformat_cvt+0x4a>
   14000324f:	90                   	nop
   140003250:	b8 03 00 00 00       	mov    $0x3,%eax
   140003255:	31 d2                	xor    %edx,%edx
   140003257:	e9 5e ff ff ff       	jmp    1400031ba <__pformat_cvt+0x4a>
   14000325c:	0f 1f 40 00          	nopl   0x0(%rax)

0000000140003260 <__pformat_putc>:
   140003260:	53                   	push   %rbx
   140003261:	48 83 ec 20          	sub    $0x20,%rsp
   140003265:	48 89 d3             	mov    %rdx,%rbx
   140003268:	8b 52 08             	mov    0x8(%rdx),%edx
   14000326b:	f6 c6 40             	test   $0x40,%dh
   14000326e:	75 08                	jne    140003278 <__pformat_putc+0x18>
   140003270:	8b 43 24             	mov    0x24(%rbx),%eax
   140003273:	39 43 28             	cmp    %eax,0x28(%rbx)
   140003276:	7e 12                	jle    14000328a <__pformat_putc+0x2a>
   140003278:	48 8b 03             	mov    (%rbx),%rax
   14000327b:	80 e6 20             	and    $0x20,%dh
   14000327e:	75 20                	jne    1400032a0 <__pformat_putc+0x40>
   140003280:	48 63 53 24          	movslq 0x24(%rbx),%rdx
   140003284:	88 0c 10             	mov    %cl,(%rax,%rdx,1)
   140003287:	8b 43 24             	mov    0x24(%rbx),%eax
   14000328a:	83 c0 01             	add    $0x1,%eax
   14000328d:	89 43 24             	mov    %eax,0x24(%rbx)
   140003290:	48 83 c4 20          	add    $0x20,%rsp
   140003294:	5b                   	pop    %rbx
   140003295:	c3                   	ret
   140003296:	66 2e 0f 1f 84 00 00 	cs nopw 0x0(%rax,%rax,1)
   14000329d:	00 00 00 
   1400032a0:	48 89 c2             	mov    %rax,%rdx
   1400032a3:	e8 c8 53 00 00       	call   140008670 <fputc>
   1400032a8:	8b 43 24             	mov    0x24(%rbx),%eax
   1400032ab:	83 c0 01             	add    $0x1,%eax
   1400032ae:	89 43 24             	mov    %eax,0x24(%rbx)
   1400032b1:	48 83 c4 20          	add    $0x20,%rsp
   1400032b5:	5b                   	pop    %rbx
   1400032b6:	c3                   	ret
   1400032b7:	66 0f 1f 84 00 00 00 	nopw   0x0(%rax,%rax,1)
   1400032be:	00 00 

00000001400032c0 <__pformat_wputchars>:
   1400032c0:	41 57                	push   %r15
   1400032c2:	41 56                	push   %r14
   1400032c4:	41 55                	push   %r13
   1400032c6:	41 54                	push   %r12
   1400032c8:	55                   	push   %rbp
   1400032c9:	57                   	push   %rdi
   1400032ca:	56                   	push   %rsi
   1400032cb:	53                   	push   %rbx
   1400032cc:	48 83 ec 48          	sub    $0x48,%rsp
   1400032d0:	4c 8d 6c 24 28       	lea    0x28(%rsp),%r13
   1400032d5:	48 8d 7c 24 30       	lea    0x30(%rsp),%rdi
   1400032da:	89 d6                	mov    %edx,%esi
   1400032dc:	4c 89 c3             	mov    %r8,%rbx
   1400032df:	31 d2                	xor    %edx,%edx
   1400032e1:	48 89 cd             	mov    %rcx,%rbp
   1400032e4:	4d 89 e8             	mov    %r13,%r8
   1400032e7:	48 89 f9             	mov    %rdi,%rcx
   1400032ea:	e8 71 4e 00 00       	call   140008160 <wcrtomb>
   1400032ef:	8b 43 10             	mov    0x10(%rbx),%eax
   1400032f2:	39 c6                	cmp    %eax,%esi
   1400032f4:	89 c2                	mov    %eax,%edx
   1400032f6:	0f 4e d6             	cmovle %esi,%edx
   1400032f9:	85 c0                	test   %eax,%eax
   1400032fb:	8b 43 0c             	mov    0xc(%rbx),%eax
   1400032fe:	0f 49 f2             	cmovns %edx,%esi
   140003301:	39 f0                	cmp    %esi,%eax
   140003303:	0f 8f e2 00 00 00    	jg     1400033eb <__pformat_wputchars+0x12b>
   140003309:	c7 43 0c ff ff ff ff 	movl   $0xffffffff,0xc(%rbx)
   140003310:	44 8d 66 ff          	lea    -0x1(%rsi),%r12d
   140003314:	85 f6                	test   %esi,%esi
   140003316:	0f 8e 29 01 00 00    	jle    140003445 <__pformat_wputchars+0x185>
   14000331c:	31 f6                	xor    %esi,%esi
   14000331e:	41 83 c4 01          	add    $0x1,%r12d
   140003322:	66 0f 1f 44 00 00    	nopw   0x0(%rax,%rax,1)
   140003328:	0f b7 54 75 00       	movzwl 0x0(%rbp,%rsi,2),%edx
   14000332d:	4d 89 e8             	mov    %r13,%r8
   140003330:	48 89 f9             	mov    %rdi,%rcx
   140003333:	e8 28 4e 00 00       	call   140008160 <wcrtomb>
   140003338:	85 c0                	test   %eax,%eax
   14000333a:	0f 8e 8d 00 00 00    	jle    1400033cd <__pformat_wputchars+0x10d>
   140003340:	83 e8 01             	sub    $0x1,%eax
   140003343:	49 89 fe             	mov    %rdi,%r14
   140003346:	4c 8d 7c 07 01       	lea    0x1(%rdi,%rax,1),%r15
   14000334b:	eb 18                	jmp    140003365 <__pformat_wputchars+0xa5>
   14000334d:	0f 1f 00             	nopl   (%rax)
   140003350:	48 63 53 24          	movslq 0x24(%rbx),%rdx
   140003354:	88 0c 10             	mov    %cl,(%rax,%rdx,1)
   140003357:	8b 43 24             	mov    0x24(%rbx),%eax
   14000335a:	83 c0 01             	add    $0x1,%eax
   14000335d:	89 43 24             	mov    %eax,0x24(%rbx)
   140003360:	4d 39 fe             	cmp    %r15,%r14
   140003363:	74 37                	je     14000339c <__pformat_wputchars+0xdc>
   140003365:	8b 53 08             	mov    0x8(%rbx),%edx
   140003368:	49 83 c6 01          	add    $0x1,%r14
   14000336c:	f6 c6 40             	test   $0x40,%dh
   14000336f:	75 08                	jne    140003379 <__pformat_wputchars+0xb9>
   140003371:	8b 43 24             	mov    0x24(%rbx),%eax
   140003374:	39 43 28             	cmp    %eax,0x28(%rbx)
   140003377:	7e e1                	jle    14000335a <__pformat_wputchars+0x9a>
   140003379:	41 0f be 4e ff       	movsbl -0x1(%r14),%ecx
   14000337e:	48 8b 03             	mov    (%rbx),%rax
   140003381:	80 e6 20             	and    $0x20,%dh
   140003384:	74 ca                	je     140003350 <__pformat_wputchars+0x90>
   140003386:	48 89 c2             	mov    %rax,%rdx
   140003389:	e8 e2 52 00 00       	call   140008670 <fputc>
   14000338e:	8b 43 24             	mov    0x24(%rbx),%eax
   140003391:	83 c0 01             	add    $0x1,%eax
   140003394:	89 43 24             	mov    %eax,0x24(%rbx)
   140003397:	4d 39 fe             	cmp    %r15,%r14
   14000339a:	75 c9                	jne    140003365 <__pformat_wputchars+0xa5>
   14000339c:	48 83 c6 01          	add    $0x1,%rsi
   1400033a0:	44 89 e0             	mov    %r12d,%eax
   1400033a3:	29 f0                	sub    %esi,%eax
   1400033a5:	85 c0                	test   %eax,%eax
   1400033a7:	0f 8f 7b ff ff ff    	jg     140003328 <__pformat_wputchars+0x68>
   1400033ad:	8b 43 0c             	mov    0xc(%rbx),%eax
   1400033b0:	8d 50 ff             	lea    -0x1(%rax),%edx
   1400033b3:	89 53 0c             	mov    %edx,0xc(%rbx)
   1400033b6:	85 c0                	test   %eax,%eax
   1400033b8:	7e 20                	jle    1400033da <__pformat_wputchars+0x11a>
   1400033ba:	66 0f 1f 44 00 00    	nopw   0x0(%rax,%rax,1)
   1400033c0:	48 89 da             	mov    %rbx,%rdx
   1400033c3:	b9 20 00 00 00       	mov    $0x20,%ecx
   1400033c8:	e8 93 fe ff ff       	call   140003260 <__pformat_putc>
   1400033cd:	8b 43 0c             	mov    0xc(%rbx),%eax
   1400033d0:	8d 50 ff             	lea    -0x1(%rax),%edx
   1400033d3:	89 53 0c             	mov    %edx,0xc(%rbx)
   1400033d6:	85 c0                	test   %eax,%eax
   1400033d8:	7f e6                	jg     1400033c0 <__pformat_wputchars+0x100>
   1400033da:	48 83 c4 48          	add    $0x48,%rsp
   1400033de:	5b                   	pop    %rbx
   1400033df:	5e                   	pop    %rsi
   1400033e0:	5f                   	pop    %rdi
   1400033e1:	5d                   	pop    %rbp
   1400033e2:	41 5c                	pop    %r12
   1400033e4:	41 5d                	pop    %r13
   1400033e6:	41 5e                	pop    %r14
   1400033e8:	41 5f                	pop    %r15
   1400033ea:	c3                   	ret
   1400033eb:	29 f0                	sub    %esi,%eax
   1400033ed:	89 43 0c             	mov    %eax,0xc(%rbx)
   1400033f0:	f6 43 09 04          	testb  $0x4,0x9(%rbx)
   1400033f4:	75 3a                	jne    140003430 <__pformat_wputchars+0x170>
   1400033f6:	83 e8 01             	sub    $0x1,%eax
   1400033f9:	89 43 0c             	mov    %eax,0xc(%rbx)
   1400033fc:	0f 1f 40 00          	nopl   0x0(%rax)
   140003400:	48 89 da             	mov    %rbx,%rdx
   140003403:	b9 20 00 00 00       	mov    $0x20,%ecx
   140003408:	e8 53 fe ff ff       	call   140003260 <__pformat_putc>
   14000340d:	8b 43 0c             	mov    0xc(%rbx),%eax
   140003410:	8d 50 ff             	lea    -0x1(%rax),%edx
   140003413:	89 53 0c             	mov    %edx,0xc(%rbx)
   140003416:	85 c0                	test   %eax,%eax
   140003418:	75 e6                	jne    140003400 <__pformat_wputchars+0x140>
   14000341a:	44 8d 66 ff          	lea    -0x1(%rsi),%r12d
   14000341e:	85 f6                	test   %esi,%esi
   140003420:	0f 8f f6 fe ff ff    	jg     14000331c <__pformat_wputchars+0x5c>
   140003426:	eb a5                	jmp    1400033cd <__pformat_wputchars+0x10d>
   140003428:	0f 1f 84 00 00 00 00 	nopl   0x0(%rax,%rax,1)
   14000342f:	00 
   140003430:	44 8d 66 ff          	lea    -0x1(%rsi),%r12d
   140003434:	85 f6                	test   %esi,%esi
   140003436:	0f 8f e0 fe ff ff    	jg     14000331c <__pformat_wputchars+0x5c>
   14000343c:	83 6b 0c 01          	subl   $0x1,0xc(%rbx)
   140003440:	e9 7b ff ff ff       	jmp    1400033c0 <__pformat_wputchars+0x100>
   140003445:	c7 43 0c fe ff ff ff 	movl   $0xfffffffe,0xc(%rbx)
   14000344c:	eb 8c                	jmp    1400033da <__pformat_wputchars+0x11a>
   14000344e:	66 90                	xchg   %ax,%ax

0000000140003450 <__pformat_putchars>:
   140003450:	57                   	push   %rdi
   140003451:	56                   	push   %rsi
   140003452:	53                   	push   %rbx
   140003453:	48 83 ec 20          	sub    $0x20,%rsp
   140003457:	41 8b 40 10          	mov    0x10(%r8),%eax
   14000345b:	89 d7                	mov    %edx,%edi
   14000345d:	39 c2                	cmp    %eax,%edx
   14000345f:	89 c2                	mov    %eax,%edx
   140003461:	48 89 ce             	mov    %rcx,%rsi
   140003464:	0f 4e d7             	cmovle %edi,%edx
   140003467:	85 c0                	test   %eax,%eax
   140003469:	41 8b 40 0c          	mov    0xc(%r8),%eax
   14000346d:	4c 89 c3             	mov    %r8,%rbx
   140003470:	0f 49 fa             	cmovns %edx,%edi
   140003473:	39 f8                	cmp    %edi,%eax
   140003475:	0f 8f bd 00 00 00    	jg     140003538 <__pformat_putchars+0xe8>
   14000347b:	41 c7 40 0c ff ff ff 	movl   $0xffffffff,0xc(%r8)
   140003482:	ff 
   140003483:	8d 57 ff             	lea    -0x1(%rdi),%edx
   140003486:	85 ff                	test   %edi,%edi
   140003488:	0f 84 97 00 00 00    	je     140003525 <__pformat_putchars+0xd5>
   14000348e:	8b 43 08             	mov    0x8(%rbx),%eax
   140003491:	8d 7a 01             	lea    0x1(%rdx),%edi
   140003494:	48 01 f7             	add    %rsi,%rdi
   140003497:	eb 1f                	jmp    1400034b8 <__pformat_putchars+0x68>
   140003499:	0f 1f 80 00 00 00 00 	nopl   0x0(%rax)
   1400034a0:	48 63 43 24          	movslq 0x24(%rbx),%rax
   1400034a4:	88 0c 02             	mov    %cl,(%rdx,%rax,1)
   1400034a7:	8b 53 24             	mov    0x24(%rbx),%edx
   1400034aa:	83 c2 01             	add    $0x1,%edx
   1400034ad:	89 53 24             	mov    %edx,0x24(%rbx)
   1400034b0:	48 39 fe             	cmp    %rdi,%rsi
   1400034b3:	74 3c                	je     1400034f1 <__pformat_putchars+0xa1>
   1400034b5:	8b 43 08             	mov    0x8(%rbx),%eax
   1400034b8:	48 83 c6 01          	add    $0x1,%rsi
   1400034bc:	f6 c4 40             	test   $0x40,%ah
   1400034bf:	75 08                	jne    1400034c9 <__pformat_putchars+0x79>
   1400034c1:	8b 53 24             	mov    0x24(%rbx),%edx
   1400034c4:	39 53 28             	cmp    %edx,0x28(%rbx)
   1400034c7:	7e e1                	jle    1400034aa <__pformat_putchars+0x5a>
   1400034c9:	0f be 4e ff          	movsbl -0x1(%rsi),%ecx
   1400034cd:	48 8b 13             	mov    (%rbx),%rdx
   1400034d0:	f6 c4 20             	test   $0x20,%ah
   1400034d3:	74 cb                	je     1400034a0 <__pformat_putchars+0x50>
   1400034d5:	e8 96 51 00 00       	call   140008670 <fputc>
   1400034da:	8b 53 24             	mov    0x24(%rbx),%edx
   1400034dd:	eb cb                	jmp    1400034aa <__pformat_putchars+0x5a>
   1400034df:	90                   	nop
   1400034e0:	48 63 43 24          	movslq 0x24(%rbx),%rax
   1400034e4:	c6 04 02 20          	movb   $0x20,(%rdx,%rax,1)
   1400034e8:	8b 53 24             	mov    0x24(%rbx),%edx
   1400034eb:	83 c2 01             	add    $0x1,%edx
   1400034ee:	89 53 24             	mov    %edx,0x24(%rbx)
   1400034f1:	8b 43 0c             	mov    0xc(%rbx),%eax
   1400034f4:	8d 50 ff             	lea    -0x1(%rax),%edx
   1400034f7:	89 53 0c             	mov    %edx,0xc(%rbx)
   1400034fa:	85 c0                	test   %eax,%eax
   1400034fc:	7e 2e                	jle    14000352c <__pformat_putchars+0xdc>
   1400034fe:	8b 43 08             	mov    0x8(%rbx),%eax
   140003501:	f6 c4 40             	test   $0x40,%ah
   140003504:	75 08                	jne    14000350e <__pformat_putchars+0xbe>
   140003506:	8b 53 24             	mov    0x24(%rbx),%edx
   140003509:	39 53 28             	cmp    %edx,0x28(%rbx)
   14000350c:	7e dd                	jle    1400034eb <__pformat_putchars+0x9b>
   14000350e:	48 8b 13             	mov    (%rbx),%rdx
   140003511:	f6 c4 20             	test   $0x20,%ah
   140003514:	74 ca                	je     1400034e0 <__pformat_putchars+0x90>
   140003516:	b9 20 00 00 00       	mov    $0x20,%ecx
   14000351b:	e8 50 51 00 00       	call   140008670 <fputc>
   140003520:	8b 53 24             	mov    0x24(%rbx),%edx
   140003523:	eb c6                	jmp    1400034eb <__pformat_putchars+0x9b>
   140003525:	c7 43 0c fe ff ff ff 	movl   $0xfffffffe,0xc(%rbx)
   14000352c:	48 83 c4 20          	add    $0x20,%rsp
   140003530:	5b                   	pop    %rbx
   140003531:	5e                   	pop    %rsi
   140003532:	5f                   	pop    %rdi
   140003533:	c3                   	ret
   140003534:	0f 1f 40 00          	nopl   0x0(%rax)
   140003538:	29 f8                	sub    %edi,%eax
   14000353a:	41 89 40 0c          	mov    %eax,0xc(%r8)
   14000353e:	89 c2                	mov    %eax,%edx
   140003540:	41 8b 40 08          	mov    0x8(%r8),%eax
   140003544:	f6 c4 04             	test   $0x4,%ah
   140003547:	75 37                	jne    140003580 <__pformat_putchars+0x130>
   140003549:	8d 42 ff             	lea    -0x1(%rdx),%eax
   14000354c:	41 89 40 0c          	mov    %eax,0xc(%r8)
   140003550:	48 89 da             	mov    %rbx,%rdx
   140003553:	b9 20 00 00 00       	mov    $0x20,%ecx
   140003558:	e8 03 fd ff ff       	call   140003260 <__pformat_putc>
   14000355d:	8b 43 0c             	mov    0xc(%rbx),%eax
   140003560:	8d 50 ff             	lea    -0x1(%rax),%edx
   140003563:	89 53 0c             	mov    %edx,0xc(%rbx)
   140003566:	85 c0                	test   %eax,%eax
   140003568:	75 e6                	jne    140003550 <__pformat_putchars+0x100>
   14000356a:	8d 57 ff             	lea    -0x1(%rdi),%edx
   14000356d:	85 ff                	test   %edi,%edi
   14000356f:	0f 85 19 ff ff ff    	jne    14000348e <__pformat_putchars+0x3e>
   140003575:	e9 77 ff ff ff       	jmp    1400034f1 <__pformat_putchars+0xa1>
   14000357a:	66 0f 1f 44 00 00    	nopw   0x0(%rax,%rax,1)
   140003580:	8d 57 ff             	lea    -0x1(%rdi),%edx
   140003583:	85 ff                	test   %edi,%edi
   140003585:	0f 85 06 ff ff ff    	jne    140003491 <__pformat_putchars+0x41>
   14000358b:	83 6b 0c 01          	subl   $0x1,0xc(%rbx)
   14000358f:	e9 6d ff ff ff       	jmp    140003501 <__pformat_putchars+0xb1>
   140003594:	66 66 2e 0f 1f 84 00 	data16 cs nopw 0x0(%rax,%rax,1)
   14000359b:	00 00 00 00 
   14000359f:	90                   	nop

00000001400035a0 <__pformat_puts>:
   1400035a0:	56                   	push   %rsi
   1400035a1:	53                   	push   %rbx
   1400035a2:	48 83 ec 28          	sub    $0x28,%rsp
   1400035a6:	48 8d 05 e3 6e 00 00 	lea    0x6ee3(%rip),%rax        # 14000a490 <.rdata>
   1400035ad:	48 89 cb             	mov    %rcx,%rbx
   1400035b0:	48 85 c9             	test   %rcx,%rcx
   1400035b3:	48 89 d6             	mov    %rdx,%rsi
   1400035b6:	48 63 52 10          	movslq 0x10(%rdx),%rdx
   1400035ba:	48 0f 44 d8          	cmove  %rax,%rbx
   1400035be:	48 89 d9             	mov    %rbx,%rcx
   1400035c1:	85 d2                	test   %edx,%edx
   1400035c3:	78 1b                	js     1400035e0 <__pformat_puts+0x40>
   1400035c5:	e8 76 49 00 00       	call   140007f40 <strnlen>
   1400035ca:	49 89 f0             	mov    %rsi,%r8
   1400035cd:	89 c2                	mov    %eax,%edx
   1400035cf:	48 89 d9             	mov    %rbx,%rcx
   1400035d2:	48 83 c4 28          	add    $0x28,%rsp
   1400035d6:	5b                   	pop    %rbx
   1400035d7:	5e                   	pop    %rsi
   1400035d8:	e9 73 fe ff ff       	jmp    140003450 <__pformat_putchars>
   1400035dd:	0f 1f 00             	nopl   (%rax)
   1400035e0:	e8 d3 50 00 00       	call   1400086b8 <strlen>
   1400035e5:	eb e3                	jmp    1400035ca <__pformat_puts+0x2a>
   1400035e7:	66 0f 1f 84 00 00 00 	nopw   0x0(%rax,%rax,1)
   1400035ee:	00 00 

00000001400035f0 <__pformat_emit_inf_or_nan>:
   1400035f0:	48 83 ec 38          	sub    $0x38,%rsp
   1400035f4:	45 8b 50 08          	mov    0x8(%r8),%r10d
   1400035f8:	41 c7 40 10 ff ff ff 	movl   $0xffffffff,0x10(%r8)
   1400035ff:	ff 
   140003600:	85 c9                	test   %ecx,%ecx
   140003602:	75 5c                	jne    140003660 <__pformat_emit_inf_or_nan+0x70>
   140003604:	b8 2b 00 00 00       	mov    $0x2b,%eax
   140003609:	41 f7 c2 00 01 00 00 	test   $0x100,%r10d
   140003610:	75 53                	jne    140003665 <__pformat_emit_inf_or_nan+0x75>
   140003612:	41 f6 c2 40          	test   $0x40,%r10b
   140003616:	74 60                	je     140003678 <__pformat_emit_inf_or_nan+0x88>
   140003618:	b8 20 00 00 00       	mov    $0x20,%eax
   14000361d:	4c 8d 4c 24 2d       	lea    0x2d(%rsp),%r9
   140003622:	4c 8d 5c 24 2c       	lea    0x2c(%rsp),%r11
   140003627:	88 44 24 2c          	mov    %al,0x2c(%rsp)
   14000362b:	41 83 e2 20          	and    $0x20,%r10d
   14000362f:	31 c9                	xor    %ecx,%ecx
   140003631:	0f b6 04 0a          	movzbl (%rdx,%rcx,1),%eax
   140003635:	83 e0 df             	and    $0xffffffdf,%eax
   140003638:	44 09 d0             	or     %r10d,%eax
   14000363b:	41 88 04 09          	mov    %al,(%r9,%rcx,1)
   14000363f:	48 83 c1 01          	add    $0x1,%rcx
   140003643:	48 83 f9 03          	cmp    $0x3,%rcx
   140003647:	75 e8                	jne    140003631 <__pformat_emit_inf_or_nan+0x41>
   140003649:	49 8d 51 03          	lea    0x3(%r9),%rdx
   14000364d:	4c 89 d9             	mov    %r11,%rcx
   140003650:	44 29 da             	sub    %r11d,%edx
   140003653:	e8 f8 fd ff ff       	call   140003450 <__pformat_putchars>
   140003658:	90                   	nop
   140003659:	48 83 c4 38          	add    $0x38,%rsp
   14000365d:	c3                   	ret
   14000365e:	66 90                	xchg   %ax,%ax
   140003660:	b8 2d 00 00 00       	mov    $0x2d,%eax
   140003665:	88 44 24 2c          	mov    %al,0x2c(%rsp)
   140003669:	4c 8d 4c 24 2d       	lea    0x2d(%rsp),%r9
   14000366e:	4c 8d 5c 24 2c       	lea    0x2c(%rsp),%r11
   140003673:	eb b6                	jmp    14000362b <__pformat_emit_inf_or_nan+0x3b>
   140003675:	0f 1f 00             	nopl   (%rax)
   140003678:	4c 8d 5c 24 2c       	lea    0x2c(%rsp),%r11
   14000367d:	4d 89 d9             	mov    %r11,%r9
   140003680:	eb a9                	jmp    14000362b <__pformat_emit_inf_or_nan+0x3b>
   140003682:	66 66 2e 0f 1f 84 00 	data16 cs nopw 0x0(%rax,%rax,1)
   140003689:	00 00 00 00 
   14000368d:	0f 1f 00             	nopl   (%rax)

0000000140003690 <__pformat_xint.isra.0>:
   140003690:	55                   	push   %rbp
   140003691:	41 57                	push   %r15
   140003693:	41 56                	push   %r14
   140003695:	41 55                	push   %r13
   140003697:	41 54                	push   %r12
   140003699:	57                   	push   %rdi
   14000369a:	56                   	push   %rsi
   14000369b:	53                   	push   %rbx
   14000369c:	48 83 ec 28          	sub    $0x28,%rsp
   1400036a0:	48 8d 6c 24 20       	lea    0x20(%rsp),%rbp
   1400036a5:	41 89 ce             	mov    %ecx,%r14d
   1400036a8:	4c 89 c3             	mov    %r8,%rbx
   1400036ab:	83 f9 6f             	cmp    $0x6f,%ecx
   1400036ae:	0f 84 fc 02 00 00    	je     1400039b0 <__pformat_xint.isra.0+0x320>
   1400036b4:	45 8b 78 10          	mov    0x10(%r8),%r15d
   1400036b8:	31 c0                	xor    %eax,%eax
   1400036ba:	41 8b 78 08          	mov    0x8(%r8),%edi
   1400036be:	45 85 ff             	test   %r15d,%r15d
   1400036c1:	41 0f 49 c7          	cmovns %r15d,%eax
   1400036c5:	83 c0 12             	add    $0x12,%eax
   1400036c8:	f7 c7 00 10 00 00    	test   $0x1000,%edi
   1400036ce:	0f 84 9c 00 00 00    	je     140003770 <__pformat_xint.isra.0+0xe0>
   1400036d4:	b9 04 00 00 00       	mov    $0x4,%ecx
   1400036d9:	66 83 7b 20 00       	cmpw   $0x0,0x20(%rbx)
   1400036de:	74 14                	je     1400036f4 <__pformat_xint.isra.0+0x64>
   1400036e0:	41 89 c0             	mov    %eax,%r8d
   1400036e3:	41 b9 ab aa aa aa    	mov    $0xaaaaaaab,%r9d
   1400036e9:	4d 0f af c1          	imul   %r9,%r8
   1400036ed:	49 c1 e8 21          	shr    $0x21,%r8
   1400036f1:	44 01 c0             	add    %r8d,%eax
   1400036f4:	44 8b 63 0c          	mov    0xc(%rbx),%r12d
   1400036f8:	41 39 c4             	cmp    %eax,%r12d
   1400036fb:	41 0f 4d c4          	cmovge %r12d,%eax
   1400036ff:	48 98                	cltq
   140003701:	48 83 c0 0f          	add    $0xf,%rax
   140003705:	48 83 e0 f0          	and    $0xfffffffffffffff0,%rax
   140003709:	e8 d2 f9 ff ff       	call   1400030e0 <___chkstk_ms>
   14000370e:	45 31 c0             	xor    %r8d,%r8d
   140003711:	48 29 c4             	sub    %rax,%rsp
   140003714:	41 83 fe 6f          	cmp    $0x6f,%r14d
   140003718:	4c 8d 6c 24 20       	lea    0x20(%rsp),%r13
   14000371d:	41 0f 95 c0          	setne  %r8b
   140003721:	46 8d 04 c5 07 00 00 	lea    0x7(,%r8,8),%r8d
   140003728:	00 
   140003729:	4c 89 ee             	mov    %r13,%rsi
   14000372c:	48 85 d2             	test   %rdx,%rdx
   14000372f:	75 74                	jne    1400037a5 <__pformat_xint.isra.0+0x115>
   140003731:	0f 1f 80 00 00 00 00 	nopl   0x0(%rax)
   140003738:	81 e7 ff f7 ff ff    	and    $0xfffff7ff,%edi
   14000373e:	89 7b 08             	mov    %edi,0x8(%rbx)
   140003741:	45 85 ff             	test   %r15d,%r15d
   140003744:	0f 8f a1 00 00 00    	jg     1400037eb <__pformat_xint.isra.0+0x15b>
   14000374a:	41 83 fe 6f          	cmp    $0x6f,%r14d
   14000374e:	0f 85 c2 00 00 00    	jne    140003816 <__pformat_xint.isra.0+0x186>
   140003754:	f6 43 09 08          	testb  $0x8,0x9(%rbx)
   140003758:	0f 84 b8 00 00 00    	je     140003816 <__pformat_xint.isra.0+0x186>
   14000375e:	c6 06 30             	movb   $0x30,(%rsi)
   140003761:	48 83 c6 01          	add    $0x1,%rsi
   140003765:	e9 ac 00 00 00       	jmp    140003816 <__pformat_xint.isra.0+0x186>
   14000376a:	66 0f 1f 44 00 00    	nopw   0x0(%rax,%rax,1)
   140003770:	44 8b 63 0c          	mov    0xc(%rbx),%r12d
   140003774:	41 39 c4             	cmp    %eax,%r12d
   140003777:	41 0f 4d c4          	cmovge %r12d,%eax
   14000377b:	48 98                	cltq
   14000377d:	48 83 c0 0f          	add    $0xf,%rax
   140003781:	48 83 e0 f0          	and    $0xfffffffffffffff0,%rax
   140003785:	e8 56 f9 ff ff       	call   1400030e0 <___chkstk_ms>
   14000378a:	b9 04 00 00 00       	mov    $0x4,%ecx
   14000378f:	41 b8 0f 00 00 00    	mov    $0xf,%r8d
   140003795:	48 29 c4             	sub    %rax,%rsp
   140003798:	4c 8d 6c 24 20       	lea    0x20(%rsp),%r13
   14000379d:	4c 89 ee             	mov    %r13,%rsi
   1400037a0:	48 85 d2             	test   %rdx,%rdx
   1400037a3:	74 93                	je     140003738 <__pformat_xint.isra.0+0xa8>
   1400037a5:	45 89 f1             	mov    %r14d,%r9d
   1400037a8:	41 83 e1 20          	and    $0x20,%r9d
   1400037ac:	0f 1f 40 00          	nopl   0x0(%rax)
   1400037b0:	44 89 c0             	mov    %r8d,%eax
   1400037b3:	48 83 c6 01          	add    $0x1,%rsi
   1400037b7:	21 d0                	and    %edx,%eax
   1400037b9:	44 8d 50 30          	lea    0x30(%rax),%r10d
   1400037bd:	83 c0 37             	add    $0x37,%eax
   1400037c0:	44 09 c8             	or     %r9d,%eax
   1400037c3:	45 89 d3             	mov    %r10d,%r11d
   1400037c6:	41 80 fa 39          	cmp    $0x39,%r10b
   1400037ca:	41 0f 46 c3          	cmovbe %r11d,%eax
   1400037ce:	48 d3 ea             	shr    %cl,%rdx
   1400037d1:	88 46 ff             	mov    %al,-0x1(%rsi)
   1400037d4:	48 85 d2             	test   %rdx,%rdx
   1400037d7:	75 d7                	jne    1400037b0 <__pformat_xint.isra.0+0x120>
   1400037d9:	4c 39 ee             	cmp    %r13,%rsi
   1400037dc:	0f 84 56 ff ff ff    	je     140003738 <__pformat_xint.isra.0+0xa8>
   1400037e2:	45 85 ff             	test   %r15d,%r15d
   1400037e5:	0f 8e 5f ff ff ff    	jle    14000374a <__pformat_xint.isra.0+0xba>
   1400037eb:	48 89 f0             	mov    %rsi,%rax
   1400037ee:	45 89 f8             	mov    %r15d,%r8d
   1400037f1:	4c 29 e8             	sub    %r13,%rax
   1400037f4:	41 29 c0             	sub    %eax,%r8d
   1400037f7:	45 85 c0             	test   %r8d,%r8d
   1400037fa:	0f 8e f0 01 00 00    	jle    1400039f0 <__pformat_xint.isra.0+0x360>
   140003800:	49 63 f8             	movslq %r8d,%rdi
   140003803:	48 89 f1             	mov    %rsi,%rcx
   140003806:	ba 30 00 00 00       	mov    $0x30,%edx
   14000380b:	49 89 f8             	mov    %rdi,%r8
   14000380e:	48 01 fe             	add    %rdi,%rsi
   140003811:	e8 8a 4e 00 00       	call   1400086a0 <memset>
   140003816:	4c 39 ee             	cmp    %r13,%rsi
   140003819:	75 09                	jne    140003824 <__pformat_xint.isra.0+0x194>
   14000381b:	45 85 ff             	test   %r15d,%r15d
   14000381e:	0f 85 94 02 00 00    	jne    140003ab8 <__pformat_xint.isra.0+0x428>
   140003824:	48 89 f0             	mov    %rsi,%rax
   140003827:	4c 29 e8             	sub    %r13,%rax
   14000382a:	44 39 e0             	cmp    %r12d,%eax
   14000382d:	7c 59                	jl     140003888 <__pformat_xint.isra.0+0x1f8>
   14000382f:	c7 43 0c ff ff ff ff 	movl   $0xffffffff,0xc(%rbx)
   140003836:	41 83 fe 6f          	cmp    $0x6f,%r14d
   14000383a:	0f 84 90 02 00 00    	je     140003ad0 <__pformat_xint.isra.0+0x440>
   140003840:	f6 43 09 08          	testb  $0x8,0x9(%rbx)
   140003844:	74 0b                	je     140003851 <__pformat_xint.isra.0+0x1c1>
   140003846:	44 88 36             	mov    %r14b,(%rsi)
   140003849:	48 83 c6 02          	add    $0x2,%rsi
   14000384d:	c6 46 ff 30          	movb   $0x30,-0x1(%rsi)
   140003851:	41 bc ff ff ff ff    	mov    $0xffffffff,%r12d
   140003857:	49 39 f5             	cmp    %rsi,%r13
   14000385a:	73 14                	jae    140003870 <__pformat_xint.isra.0+0x1e0>
   14000385c:	8b 7b 08             	mov    0x8(%rbx),%edi
   14000385f:	45 8d 74 24 ff       	lea    -0x1(%r12),%r14d
   140003864:	e9 b7 00 00 00       	jmp    140003920 <__pformat_xint.isra.0+0x290>
   140003869:	0f 1f 80 00 00 00 00 	nopl   0x0(%rax)
   140003870:	48 8d 65 08          	lea    0x8(%rbp),%rsp
   140003874:	5b                   	pop    %rbx
   140003875:	5e                   	pop    %rsi
   140003876:	5f                   	pop    %rdi
   140003877:	41 5c                	pop    %r12
   140003879:	41 5d                	pop    %r13
   14000387b:	41 5e                	pop    %r14
   14000387d:	41 5f                	pop    %r15
   14000387f:	5d                   	pop    %rbp
   140003880:	c3                   	ret
   140003881:	0f 1f 80 00 00 00 00 	nopl   0x0(%rax)
   140003888:	41 29 c4             	sub    %eax,%r12d
   14000388b:	8b 7b 08             	mov    0x8(%rbx),%edi
   14000388e:	44 89 63 0c          	mov    %r12d,0xc(%rbx)
   140003892:	41 83 fe 6f          	cmp    $0x6f,%r14d
   140003896:	74 28                	je     1400038c0 <__pformat_xint.isra.0+0x230>
   140003898:	f7 c7 00 08 00 00    	test   $0x800,%edi
   14000389e:	74 20                	je     1400038c0 <__pformat_xint.isra.0+0x230>
   1400038a0:	41 83 ec 02          	sub    $0x2,%r12d
   1400038a4:	45 85 e4             	test   %r12d,%r12d
   1400038a7:	0f 8f 4c 02 00 00    	jg     140003af9 <__pformat_xint.isra.0+0x469>
   1400038ad:	44 88 36             	mov    %r14b,(%rsi)
   1400038b0:	48 83 c6 02          	add    $0x2,%rsi
   1400038b4:	c6 46 ff 30          	movb   $0x30,-0x1(%rsi)
   1400038b8:	eb 9d                	jmp    140003857 <__pformat_xint.isra.0+0x1c7>
   1400038ba:	66 0f 1f 44 00 00    	nopw   0x0(%rax,%rax,1)
   1400038c0:	45 85 ff             	test   %r15d,%r15d
   1400038c3:	0f 88 9f 01 00 00    	js     140003a68 <__pformat_xint.isra.0+0x3d8>
   1400038c9:	45 8d 74 24 ff       	lea    -0x1(%r12),%r14d
   1400038ce:	f7 c7 00 04 00 00    	test   $0x400,%edi
   1400038d4:	0f 85 06 01 00 00    	jne    1400039e0 <__pformat_xint.isra.0+0x350>
   1400038da:	45 89 f4             	mov    %r14d,%r12d
   1400038dd:	0f 1f 00             	nopl   (%rax)
   1400038e0:	48 89 da             	mov    %rbx,%rdx
   1400038e3:	b9 20 00 00 00       	mov    $0x20,%ecx
   1400038e8:	e8 73 f9 ff ff       	call   140003260 <__pformat_putc>
   1400038ed:	41 83 ec 01          	sub    $0x1,%r12d
   1400038f1:	73 ed                	jae    1400038e0 <__pformat_xint.isra.0+0x250>
   1400038f3:	41 be fe ff ff ff    	mov    $0xfffffffe,%r14d
   1400038f9:	49 39 f5             	cmp    %rsi,%r13
   1400038fc:	72 1f                	jb     14000391d <__pformat_xint.isra.0+0x28d>
   1400038fe:	e9 6d ff ff ff       	jmp    140003870 <__pformat_xint.isra.0+0x1e0>
   140003903:	0f 1f 44 00 00       	nopl   0x0(%rax,%rax,1)
   140003908:	48 63 43 24          	movslq 0x24(%rbx),%rax
   14000390c:	88 0c 02             	mov    %cl,(%rdx,%rax,1)
   14000390f:	8b 43 24             	mov    0x24(%rbx),%eax
   140003912:	83 c0 01             	add    $0x1,%eax
   140003915:	89 43 24             	mov    %eax,0x24(%rbx)
   140003918:	49 39 f5             	cmp    %rsi,%r13
   14000391b:	73 38                	jae    140003955 <__pformat_xint.isra.0+0x2c5>
   14000391d:	8b 7b 08             	mov    0x8(%rbx),%edi
   140003920:	48 83 ee 01          	sub    $0x1,%rsi
   140003924:	f7 c7 00 40 00 00    	test   $0x4000,%edi
   14000392a:	75 08                	jne    140003934 <__pformat_xint.isra.0+0x2a4>
   14000392c:	8b 43 24             	mov    0x24(%rbx),%eax
   14000392f:	39 43 28             	cmp    %eax,0x28(%rbx)
   140003932:	7e de                	jle    140003912 <__pformat_xint.isra.0+0x282>
   140003934:	81 e7 00 20 00 00    	and    $0x2000,%edi
   14000393a:	0f be 0e             	movsbl (%rsi),%ecx
   14000393d:	48 8b 13             	mov    (%rbx),%rdx
   140003940:	74 c6                	je     140003908 <__pformat_xint.isra.0+0x278>
   140003942:	e8 29 4d 00 00       	call   140008670 <fputc>
   140003947:	8b 43 24             	mov    0x24(%rbx),%eax
   14000394a:	83 c0 01             	add    $0x1,%eax
   14000394d:	89 43 24             	mov    %eax,0x24(%rbx)
   140003950:	49 39 f5             	cmp    %rsi,%r13
   140003953:	72 c8                	jb     14000391d <__pformat_xint.isra.0+0x28d>
   140003955:	45 85 e4             	test   %r12d,%r12d
   140003958:	7f 27                	jg     140003981 <__pformat_xint.isra.0+0x2f1>
   14000395a:	e9 11 ff ff ff       	jmp    140003870 <__pformat_xint.isra.0+0x1e0>
   14000395f:	90                   	nop
   140003960:	48 63 43 24          	movslq 0x24(%rbx),%rax
   140003964:	c6 04 02 20          	movb   $0x20,(%rdx,%rax,1)
   140003968:	8b 43 24             	mov    0x24(%rbx),%eax
   14000396b:	83 c0 01             	add    $0x1,%eax
   14000396e:	89 43 24             	mov    %eax,0x24(%rbx)
   140003971:	41 8d 46 ff          	lea    -0x1(%r14),%eax
   140003975:	45 85 f6             	test   %r14d,%r14d
   140003978:	0f 8e f2 fe ff ff    	jle    140003870 <__pformat_xint.isra.0+0x1e0>
   14000397e:	41 89 c6             	mov    %eax,%r14d
   140003981:	8b 7b 08             	mov    0x8(%rbx),%edi
   140003984:	f7 c7 00 40 00 00    	test   $0x4000,%edi
   14000398a:	75 08                	jne    140003994 <__pformat_xint.isra.0+0x304>
   14000398c:	8b 43 24             	mov    0x24(%rbx),%eax
   14000398f:	39 43 28             	cmp    %eax,0x28(%rbx)
   140003992:	7e d7                	jle    14000396b <__pformat_xint.isra.0+0x2db>
   140003994:	81 e7 00 20 00 00    	and    $0x2000,%edi
   14000399a:	48 8b 13             	mov    (%rbx),%rdx
   14000399d:	74 c1                	je     140003960 <__pformat_xint.isra.0+0x2d0>
   14000399f:	b9 20 00 00 00       	mov    $0x20,%ecx
   1400039a4:	e8 c7 4c 00 00       	call   140008670 <fputc>
   1400039a9:	8b 43 24             	mov    0x24(%rbx),%eax
   1400039ac:	eb bd                	jmp    14000396b <__pformat_xint.isra.0+0x2db>
   1400039ae:	66 90                	xchg   %ax,%ax
   1400039b0:	45 8b 78 10          	mov    0x10(%r8),%r15d
   1400039b4:	31 c0                	xor    %eax,%eax
   1400039b6:	41 8b 78 08          	mov    0x8(%r8),%edi
   1400039ba:	45 85 ff             	test   %r15d,%r15d
   1400039bd:	41 0f 49 c7          	cmovns %r15d,%eax
   1400039c1:	83 c0 18             	add    $0x18,%eax
   1400039c4:	f7 c7 00 10 00 00    	test   $0x1000,%edi
   1400039ca:	74 64                	je     140003a30 <__pformat_xint.isra.0+0x3a0>
   1400039cc:	b9 03 00 00 00       	mov    $0x3,%ecx
   1400039d1:	e9 03 fd ff ff       	jmp    1400036d9 <__pformat_xint.isra.0+0x49>
   1400039d6:	66 2e 0f 1f 84 00 00 	cs nopw 0x0(%rax,%rax,1)
   1400039dd:	00 00 00 
   1400039e0:	49 39 f5             	cmp    %rsi,%r13
   1400039e3:	0f 82 37 ff ff ff    	jb     140003920 <__pformat_xint.isra.0+0x290>
   1400039e9:	eb 99                	jmp    140003984 <__pformat_xint.isra.0+0x2f4>
   1400039eb:	0f 1f 44 00 00       	nopl   0x0(%rax,%rax,1)
   1400039f0:	41 83 fe 6f          	cmp    $0x6f,%r14d
   1400039f4:	0f 84 5a fd ff ff    	je     140003754 <__pformat_xint.isra.0+0xc4>
   1400039fa:	4c 39 ee             	cmp    %r13,%rsi
   1400039fd:	0f 84 b5 00 00 00    	je     140003ab8 <__pformat_xint.isra.0+0x428>
   140003a03:	44 39 e0             	cmp    %r12d,%eax
   140003a06:	0f 8d e1 00 00 00    	jge    140003aed <__pformat_xint.isra.0+0x45d>
   140003a0c:	8b 7b 08             	mov    0x8(%rbx),%edi
   140003a0f:	41 29 c4             	sub    %eax,%r12d
   140003a12:	44 89 63 0c          	mov    %r12d,0xc(%rbx)
   140003a16:	f7 c7 00 08 00 00    	test   $0x800,%edi
   140003a1c:	0f 85 7e fe ff ff    	jne    1400038a0 <__pformat_xint.isra.0+0x210>
   140003a22:	e9 a2 fe ff ff       	jmp    1400038c9 <__pformat_xint.isra.0+0x239>
   140003a27:	66 0f 1f 84 00 00 00 	nopw   0x0(%rax,%rax,1)
   140003a2e:	00 00 
   140003a30:	44 8b 63 0c          	mov    0xc(%rbx),%r12d
   140003a34:	41 39 c4             	cmp    %eax,%r12d
   140003a37:	41 0f 4d c4          	cmovge %r12d,%eax
   140003a3b:	48 98                	cltq
   140003a3d:	48 83 c0 0f          	add    $0xf,%rax
   140003a41:	48 83 e0 f0          	and    $0xfffffffffffffff0,%rax
   140003a45:	e8 96 f6 ff ff       	call   1400030e0 <___chkstk_ms>
   140003a4a:	b9 03 00 00 00       	mov    $0x3,%ecx
   140003a4f:	41 b8 07 00 00 00    	mov    $0x7,%r8d
   140003a55:	48 29 c4             	sub    %rax,%rsp
   140003a58:	4c 8d 6c 24 20       	lea    0x20(%rsp),%r13
   140003a5d:	e9 3b fd ff ff       	jmp    14000379d <__pformat_xint.isra.0+0x10d>
   140003a62:	66 0f 1f 44 00 00    	nopw   0x0(%rax,%rax,1)
   140003a68:	89 f8                	mov    %edi,%eax
   140003a6a:	25 00 06 00 00       	and    $0x600,%eax
   140003a6f:	3d 00 02 00 00       	cmp    $0x200,%eax
   140003a74:	0f 85 4f fe ff ff    	jne    1400038c9 <__pformat_xint.isra.0+0x239>
   140003a7a:	4d 63 e4             	movslq %r12d,%r12
   140003a7d:	48 89 f1             	mov    %rsi,%rcx
   140003a80:	ba 30 00 00 00       	mov    $0x30,%edx
   140003a85:	4d 89 e0             	mov    %r12,%r8
   140003a88:	4c 01 e6             	add    %r12,%rsi
   140003a8b:	e8 10 4c 00 00       	call   1400086a0 <memset>
   140003a90:	41 83 fe 6f          	cmp    $0x6f,%r14d
   140003a94:	0f 84 b7 fd ff ff    	je     140003851 <__pformat_xint.isra.0+0x1c1>
   140003a9a:	81 e7 00 08 00 00    	and    $0x800,%edi
   140003aa0:	41 bc ff ff ff ff    	mov    $0xffffffff,%r12d
   140003aa6:	0f 84 ab fd ff ff    	je     140003857 <__pformat_xint.isra.0+0x1c7>
   140003aac:	e9 fc fd ff ff       	jmp    1400038ad <__pformat_xint.isra.0+0x21d>
   140003ab1:	0f 1f 80 00 00 00 00 	nopl   0x0(%rax)
   140003ab8:	48 8d 56 01          	lea    0x1(%rsi),%rdx
   140003abc:	c6 06 30             	movb   $0x30,(%rsi)
   140003abf:	48 89 d0             	mov    %rdx,%rax
   140003ac2:	48 89 d6             	mov    %rdx,%rsi
   140003ac5:	4c 29 e8             	sub    %r13,%rax
   140003ac8:	e9 5d fd ff ff       	jmp    14000382a <__pformat_xint.isra.0+0x19a>
   140003acd:	0f 1f 00             	nopl   (%rax)
   140003ad0:	49 39 f5             	cmp    %rsi,%r13
   140003ad3:	0f 83 97 fd ff ff    	jae    140003870 <__pformat_xint.isra.0+0x1e0>
   140003ad9:	8b 7b 08             	mov    0x8(%rbx),%edi
   140003adc:	41 be fe ff ff ff    	mov    $0xfffffffe,%r14d
   140003ae2:	41 bc ff ff ff ff    	mov    $0xffffffff,%r12d
   140003ae8:	e9 33 fe ff ff       	jmp    140003920 <__pformat_xint.isra.0+0x290>
   140003aed:	c7 43 0c ff ff ff ff 	movl   $0xffffffff,0xc(%rbx)
   140003af4:	e9 47 fd ff ff       	jmp    140003840 <__pformat_xint.isra.0+0x1b0>
   140003af9:	45 85 ff             	test   %r15d,%r15d
   140003afc:	78 10                	js     140003b0e <__pformat_xint.isra.0+0x47e>
   140003afe:	44 88 36             	mov    %r14b,(%rsi)
   140003b01:	48 83 c6 02          	add    $0x2,%rsi
   140003b05:	c6 46 ff 30          	movb   $0x30,-0x1(%rsi)
   140003b09:	e9 bb fd ff ff       	jmp    1400038c9 <__pformat_xint.isra.0+0x239>
   140003b0e:	89 f8                	mov    %edi,%eax
   140003b10:	25 00 06 00 00       	and    $0x600,%eax
   140003b15:	3d 00 02 00 00       	cmp    $0x200,%eax
   140003b1a:	75 e2                	jne    140003afe <__pformat_xint.isra.0+0x46e>
   140003b1c:	4d 63 e4             	movslq %r12d,%r12
   140003b1f:	48 89 f1             	mov    %rsi,%rcx
   140003b22:	ba 30 00 00 00       	mov    $0x30,%edx
   140003b27:	4d 89 e0             	mov    %r12,%r8
   140003b2a:	4c 01 e6             	add    %r12,%rsi
   140003b2d:	e8 6e 4b 00 00       	call   1400086a0 <memset>
   140003b32:	e9 63 ff ff ff       	jmp    140003a9a <__pformat_xint.isra.0+0x40a>
   140003b37:	66 0f 1f 84 00 00 00 	nopw   0x0(%rax,%rax,1)
   140003b3e:	00 00 

0000000140003b40 <__pformat_int.isra.0>:
   140003b40:	55                   	push   %rbp
   140003b41:	41 57                	push   %r15
   140003b43:	41 56                	push   %r14
   140003b45:	41 55                	push   %r13
   140003b47:	41 54                	push   %r12
   140003b49:	57                   	push   %rdi
   140003b4a:	56                   	push   %rsi
   140003b4b:	53                   	push   %rbx
   140003b4c:	48 83 ec 28          	sub    $0x28,%rsp
   140003b50:	48 8d 6c 24 20       	lea    0x20(%rsp),%rbp
   140003b55:	31 c0                	xor    %eax,%eax
   140003b57:	44 8b 72 10          	mov    0x10(%rdx),%r14d
   140003b5b:	44 8b 62 08          	mov    0x8(%rdx),%r12d
   140003b5f:	45 85 f6             	test   %r14d,%r14d
   140003b62:	41 0f 49 c6          	cmovns %r14d,%eax
   140003b66:	48 89 d3             	mov    %rdx,%rbx
   140003b69:	83 c0 17             	add    $0x17,%eax
   140003b6c:	41 f7 c4 00 10 00 00 	test   $0x1000,%r12d
   140003b73:	74 0b                	je     140003b80 <__pformat_int.isra.0+0x40>
   140003b75:	66 83 7a 20 00       	cmpw   $0x0,0x20(%rdx)
   140003b7a:	0f 85 48 02 00 00    	jne    140003dc8 <__pformat_int.isra.0+0x288>
   140003b80:	8b 73 0c             	mov    0xc(%rbx),%esi
   140003b83:	39 c6                	cmp    %eax,%esi
   140003b85:	0f 4d c6             	cmovge %esi,%eax
   140003b88:	48 98                	cltq
   140003b8a:	48 83 c0 0f          	add    $0xf,%rax
   140003b8e:	48 83 e0 f0          	and    $0xfffffffffffffff0,%rax
   140003b92:	e8 49 f5 ff ff       	call   1400030e0 <___chkstk_ms>
   140003b97:	48 29 c4             	sub    %rax,%rsp
   140003b9a:	4c 8d 6c 24 20       	lea    0x20(%rsp),%r13
   140003b9f:	41 f6 c4 80          	test   $0x80,%r12b
   140003ba3:	74 11                	je     140003bb6 <__pformat_int.isra.0+0x76>
   140003ba5:	48 85 c9             	test   %rcx,%rcx
   140003ba8:	0f 88 72 02 00 00    	js     140003e20 <__pformat_int.isra.0+0x2e0>
   140003bae:	41 80 e4 7f          	and    $0x7f,%r12b
   140003bb2:	44 89 63 08          	mov    %r12d,0x8(%rbx)
   140003bb6:	4c 89 ef             	mov    %r13,%rdi
   140003bb9:	48 85 c9             	test   %rcx,%rcx
   140003bbc:	0f 84 8e 00 00 00    	je     140003c50 <__pformat_int.isra.0+0x110>
   140003bc2:	49 b9 cd cc cc cc cc 	movabs $0xcccccccccccccccd,%r9
   140003bc9:	cc cc cc 
   140003bcc:	45 89 e2             	mov    %r12d,%r10d
   140003bcf:	4d 89 e8             	mov    %r13,%r8
   140003bd2:	49 bb 03 00 00 00 00 	movabs $0x8000000000000003,%r11
   140003bd9:	00 00 80 
   140003bdc:	41 81 e2 00 10 00 00 	and    $0x1000,%r10d
   140003be3:	0f 1f 44 00 00       	nopl   0x0(%rax,%rax,1)
   140003be8:	48 89 c8             	mov    %rcx,%rax
   140003beb:	49 8d 78 01          	lea    0x1(%r8),%rdi
   140003bef:	49 f7 e1             	mul    %r9
   140003bf2:	48 89 c8             	mov    %rcx,%rax
   140003bf5:	48 c1 ea 03          	shr    $0x3,%rdx
   140003bf9:	4c 8d 3c 92          	lea    (%rdx,%rdx,4),%r15
   140003bfd:	4d 01 ff             	add    %r15,%r15
   140003c00:	4c 29 f8             	sub    %r15,%rax
   140003c03:	83 c0 30             	add    $0x30,%eax
   140003c06:	41 88 00             	mov    %al,(%r8)
   140003c09:	48 83 f9 09          	cmp    $0x9,%rcx
   140003c0d:	76 41                	jbe    140003c50 <__pformat_int.isra.0+0x110>
   140003c0f:	49 39 fd             	cmp    %rdi,%r13
   140003c12:	74 2c                	je     140003c40 <__pformat_int.isra.0+0x100>
   140003c14:	45 85 d2             	test   %r10d,%r10d
   140003c17:	74 27                	je     140003c40 <__pformat_int.isra.0+0x100>
   140003c19:	66 83 7b 20 00       	cmpw   $0x0,0x20(%rbx)
   140003c1e:	74 20                	je     140003c40 <__pformat_int.isra.0+0x100>
   140003c20:	48 89 f8             	mov    %rdi,%rax
   140003c23:	4c 29 e8             	sub    %r13,%rax
   140003c26:	4c 21 d8             	and    %r11,%rax
   140003c29:	48 83 f8 03          	cmp    $0x3,%rax
   140003c2d:	75 11                	jne    140003c40 <__pformat_int.isra.0+0x100>
   140003c2f:	c6 07 2c             	movb   $0x2c,(%rdi)
   140003c32:	49 8d 78 02          	lea    0x2(%r8),%rdi
   140003c36:	66 2e 0f 1f 84 00 00 	cs nopw 0x0(%rax,%rax,1)
   140003c3d:	00 00 00 
   140003c40:	48 89 d1             	mov    %rdx,%rcx
   140003c43:	49 89 f8             	mov    %rdi,%r8
   140003c46:	eb a0                	jmp    140003be8 <__pformat_int.isra.0+0xa8>
   140003c48:	0f 1f 84 00 00 00 00 	nopl   0x0(%rax,%rax,1)
   140003c4f:	00 
   140003c50:	45 85 f6             	test   %r14d,%r14d
   140003c53:	7e 2b                	jle    140003c80 <__pformat_int.isra.0+0x140>
   140003c55:	48 89 f8             	mov    %rdi,%rax
   140003c58:	45 89 f0             	mov    %r14d,%r8d
   140003c5b:	4c 29 e8             	sub    %r13,%rax
   140003c5e:	41 29 c0             	sub    %eax,%r8d
   140003c61:	45 85 c0             	test   %r8d,%r8d
   140003c64:	0f 8e 96 01 00 00    	jle    140003e00 <__pformat_int.isra.0+0x2c0>
   140003c6a:	4d 63 f8             	movslq %r8d,%r15
   140003c6d:	48 89 f9             	mov    %rdi,%rcx
   140003c70:	ba 30 00 00 00       	mov    $0x30,%edx
   140003c75:	4d 89 f8             	mov    %r15,%r8
   140003c78:	4c 01 ff             	add    %r15,%rdi
   140003c7b:	e8 20 4a 00 00       	call   1400086a0 <memset>
   140003c80:	49 39 fd             	cmp    %rdi,%r13
   140003c83:	75 0c                	jne    140003c91 <__pformat_int.isra.0+0x151>
   140003c85:	48 89 f8             	mov    %rdi,%rax
   140003c88:	45 85 f6             	test   %r14d,%r14d
   140003c8b:	0f 85 7b 01 00 00    	jne    140003e0c <__pformat_int.isra.0+0x2cc>
   140003c91:	85 f6                	test   %esi,%esi
   140003c93:	7e 3b                	jle    140003cd0 <__pformat_int.isra.0+0x190>
   140003c95:	48 89 f8             	mov    %rdi,%rax
   140003c98:	4c 29 e8             	sub    %r13,%rax
   140003c9b:	29 c6                	sub    %eax,%esi
   140003c9d:	89 73 0c             	mov    %esi,0xc(%rbx)
   140003ca0:	85 f6                	test   %esi,%esi
   140003ca2:	7e 2c                	jle    140003cd0 <__pformat_int.isra.0+0x190>
   140003ca4:	41 f7 c4 c0 01 00 00 	test   $0x1c0,%r12d
   140003cab:	0f 85 7f 01 00 00    	jne    140003e30 <__pformat_int.isra.0+0x2f0>
   140003cb1:	45 85 f6             	test   %r14d,%r14d
   140003cb4:	0f 88 85 01 00 00    	js     140003e3f <__pformat_int.isra.0+0x2ff>
   140003cba:	41 f7 c4 00 04 00 00 	test   $0x400,%r12d
   140003cc1:	0f 84 c1 01 00 00    	je     140003e88 <__pformat_int.isra.0+0x348>
   140003cc7:	66 0f 1f 84 00 00 00 	nopw   0x0(%rax,%rax,1)
   140003cce:	00 00 
   140003cd0:	41 f6 c4 80          	test   $0x80,%r12b
   140003cd4:	0f 84 d6 00 00 00    	je     140003db0 <__pformat_int.isra.0+0x270>
   140003cda:	c6 07 2d             	movb   $0x2d,(%rdi)
   140003cdd:	48 8d 77 01          	lea    0x1(%rdi),%rsi
   140003ce1:	49 39 f5             	cmp    %rsi,%r13
   140003ce4:	72 23                	jb     140003d09 <__pformat_int.isra.0+0x1c9>
   140003ce6:	eb 58                	jmp    140003d40 <__pformat_int.isra.0+0x200>
   140003ce8:	0f 1f 84 00 00 00 00 	nopl   0x0(%rax,%rax,1)
   140003cef:	00 
   140003cf0:	48 63 43 24          	movslq 0x24(%rbx),%rax
   140003cf4:	88 0c 02             	mov    %cl,(%rdx,%rax,1)
   140003cf7:	8b 43 24             	mov    0x24(%rbx),%eax
   140003cfa:	83 c0 01             	add    $0x1,%eax
   140003cfd:	89 43 24             	mov    %eax,0x24(%rbx)
   140003d00:	49 39 f5             	cmp    %rsi,%r13
   140003d03:	74 3b                	je     140003d40 <__pformat_int.isra.0+0x200>
   140003d05:	44 8b 63 08          	mov    0x8(%rbx),%r12d
   140003d09:	48 83 ee 01          	sub    $0x1,%rsi
   140003d0d:	41 f7 c4 00 40 00 00 	test   $0x4000,%r12d
   140003d14:	75 08                	jne    140003d1e <__pformat_int.isra.0+0x1de>
   140003d16:	8b 43 24             	mov    0x24(%rbx),%eax
   140003d19:	39 43 28             	cmp    %eax,0x28(%rbx)
   140003d1c:	7e dc                	jle    140003cfa <__pformat_int.isra.0+0x1ba>
   140003d1e:	41 81 e4 00 20 00 00 	and    $0x2000,%r12d
   140003d25:	0f be 0e             	movsbl (%rsi),%ecx
   140003d28:	48 8b 13             	mov    (%rbx),%rdx
   140003d2b:	74 c3                	je     140003cf0 <__pformat_int.isra.0+0x1b0>
   140003d2d:	e8 3e 49 00 00       	call   140008670 <fputc>
   140003d32:	8b 43 24             	mov    0x24(%rbx),%eax
   140003d35:	83 c0 01             	add    $0x1,%eax
   140003d38:	89 43 24             	mov    %eax,0x24(%rbx)
   140003d3b:	49 39 f5             	cmp    %rsi,%r13
   140003d3e:	75 c5                	jne    140003d05 <__pformat_int.isra.0+0x1c5>
   140003d40:	8b 43 0c             	mov    0xc(%rbx),%eax
   140003d43:	eb 17                	jmp    140003d5c <__pformat_int.isra.0+0x21c>
   140003d45:	0f 1f 00             	nopl   (%rax)
   140003d48:	48 63 43 24          	movslq 0x24(%rbx),%rax
   140003d4c:	c6 04 02 20          	movb   $0x20,(%rdx,%rax,1)
   140003d50:	8b 53 24             	mov    0x24(%rbx),%edx
   140003d53:	8b 43 0c             	mov    0xc(%rbx),%eax
   140003d56:	83 c2 01             	add    $0x1,%edx
   140003d59:	89 53 24             	mov    %edx,0x24(%rbx)
   140003d5c:	89 c2                	mov    %eax,%edx
   140003d5e:	83 e8 01             	sub    $0x1,%eax
   140003d61:	89 43 0c             	mov    %eax,0xc(%rbx)
   140003d64:	85 d2                	test   %edx,%edx
   140003d66:	7e 30                	jle    140003d98 <__pformat_int.isra.0+0x258>
   140003d68:	8b 4b 08             	mov    0x8(%rbx),%ecx
   140003d6b:	f6 c5 40             	test   $0x40,%ch
   140003d6e:	75 08                	jne    140003d78 <__pformat_int.isra.0+0x238>
   140003d70:	8b 53 24             	mov    0x24(%rbx),%edx
   140003d73:	39 53 28             	cmp    %edx,0x28(%rbx)
   140003d76:	7e de                	jle    140003d56 <__pformat_int.isra.0+0x216>
   140003d78:	48 8b 13             	mov    (%rbx),%rdx
   140003d7b:	80 e5 20             	and    $0x20,%ch
   140003d7e:	74 c8                	je     140003d48 <__pformat_int.isra.0+0x208>
   140003d80:	b9 20 00 00 00       	mov    $0x20,%ecx
   140003d85:	e8 e6 48 00 00       	call   140008670 <fputc>
   140003d8a:	8b 53 24             	mov    0x24(%rbx),%edx
   140003d8d:	8b 43 0c             	mov    0xc(%rbx),%eax
   140003d90:	eb c4                	jmp    140003d56 <__pformat_int.isra.0+0x216>
   140003d92:	66 0f 1f 44 00 00    	nopw   0x0(%rax,%rax,1)
   140003d98:	48 8d 65 08          	lea    0x8(%rbp),%rsp
   140003d9c:	5b                   	pop    %rbx
   140003d9d:	5e                   	pop    %rsi
   140003d9e:	5f                   	pop    %rdi
   140003d9f:	41 5c                	pop    %r12
   140003da1:	41 5d                	pop    %r13
   140003da3:	41 5e                	pop    %r14
   140003da5:	41 5f                	pop    %r15
   140003da7:	5d                   	pop    %rbp
   140003da8:	c3                   	ret
   140003da9:	0f 1f 80 00 00 00 00 	nopl   0x0(%rax)
   140003db0:	41 f7 c4 00 01 00 00 	test   $0x100,%r12d
   140003db7:	74 27                	je     140003de0 <__pformat_int.isra.0+0x2a0>
   140003db9:	c6 07 2b             	movb   $0x2b,(%rdi)
   140003dbc:	48 8d 77 01          	lea    0x1(%rdi),%rsi
   140003dc0:	e9 1c ff ff ff       	jmp    140003ce1 <__pformat_int.isra.0+0x1a1>
   140003dc5:	0f 1f 00             	nopl   (%rax)
   140003dc8:	89 c2                	mov    %eax,%edx
   140003dca:	41 b8 ab aa aa aa    	mov    $0xaaaaaaab,%r8d
   140003dd0:	49 0f af d0          	imul   %r8,%rdx
   140003dd4:	48 c1 ea 21          	shr    $0x21,%rdx
   140003dd8:	01 d0                	add    %edx,%eax
   140003dda:	e9 a1 fd ff ff       	jmp    140003b80 <__pformat_int.isra.0+0x40>
   140003ddf:	90                   	nop
   140003de0:	48 89 fe             	mov    %rdi,%rsi
   140003de3:	41 f6 c4 40          	test   $0x40,%r12b
   140003de7:	0f 84 f4 fe ff ff    	je     140003ce1 <__pformat_int.isra.0+0x1a1>
   140003ded:	c6 07 20             	movb   $0x20,(%rdi)
   140003df0:	48 83 c6 01          	add    $0x1,%rsi
   140003df4:	e9 e8 fe ff ff       	jmp    140003ce1 <__pformat_int.isra.0+0x1a1>
   140003df9:	0f 1f 80 00 00 00 00 	nopl   0x0(%rax)
   140003e00:	49 39 fd             	cmp    %rdi,%r13
   140003e03:	0f 85 88 fe ff ff    	jne    140003c91 <__pformat_int.isra.0+0x151>
   140003e09:	4c 89 e8             	mov    %r13,%rax
   140003e0c:	c6 00 30             	movb   $0x30,(%rax)
   140003e0f:	48 8d 78 01          	lea    0x1(%rax),%rdi
   140003e13:	e9 79 fe ff ff       	jmp    140003c91 <__pformat_int.isra.0+0x151>
   140003e18:	0f 1f 84 00 00 00 00 	nopl   0x0(%rax,%rax,1)
   140003e1f:	00 
   140003e20:	48 f7 d9             	neg    %rcx
   140003e23:	e9 9a fd ff ff       	jmp    140003bc2 <__pformat_int.isra.0+0x82>
   140003e28:	0f 1f 84 00 00 00 00 	nopl   0x0(%rax,%rax,1)
   140003e2f:	00 
   140003e30:	83 ee 01             	sub    $0x1,%esi
   140003e33:	89 73 0c             	mov    %esi,0xc(%rbx)
   140003e36:	45 85 f6             	test   %r14d,%r14d
   140003e39:	0f 89 7b fe ff ff    	jns    140003cba <__pformat_int.isra.0+0x17a>
   140003e3f:	44 89 e0             	mov    %r12d,%eax
   140003e42:	25 00 06 00 00       	and    $0x600,%eax
   140003e47:	3d 00 02 00 00       	cmp    $0x200,%eax
   140003e4c:	0f 85 68 fe ff ff    	jne    140003cba <__pformat_int.isra.0+0x17a>
   140003e52:	8b 43 0c             	mov    0xc(%rbx),%eax
   140003e55:	8d 50 ff             	lea    -0x1(%rax),%edx
   140003e58:	89 53 0c             	mov    %edx,0xc(%rbx)
   140003e5b:	85 c0                	test   %eax,%eax
   140003e5d:	0f 8e 6d fe ff ff    	jle    140003cd0 <__pformat_int.isra.0+0x190>
   140003e63:	48 63 f0             	movslq %eax,%rsi
   140003e66:	48 89 f9             	mov    %rdi,%rcx
   140003e69:	ba 30 00 00 00       	mov    $0x30,%edx
   140003e6e:	49 89 f0             	mov    %rsi,%r8
   140003e71:	48 01 f7             	add    %rsi,%rdi
   140003e74:	e8 27 48 00 00       	call   1400086a0 <memset>
   140003e79:	c7 43 0c ff ff ff ff 	movl   $0xffffffff,0xc(%rbx)
   140003e80:	e9 4b fe ff ff       	jmp    140003cd0 <__pformat_int.isra.0+0x190>
   140003e85:	0f 1f 00             	nopl   (%rax)
   140003e88:	8b 43 0c             	mov    0xc(%rbx),%eax
   140003e8b:	8d 50 ff             	lea    -0x1(%rax),%edx
   140003e8e:	89 53 0c             	mov    %edx,0xc(%rbx)
   140003e91:	85 c0                	test   %eax,%eax
   140003e93:	0f 8e 37 fe ff ff    	jle    140003cd0 <__pformat_int.isra.0+0x190>
   140003e99:	0f 1f 80 00 00 00 00 	nopl   0x0(%rax)
   140003ea0:	48 89 da             	mov    %rbx,%rdx
   140003ea3:	b9 20 00 00 00       	mov    $0x20,%ecx
   140003ea8:	e8 b3 f3 ff ff       	call   140003260 <__pformat_putc>
   140003ead:	8b 43 0c             	mov    0xc(%rbx),%eax
   140003eb0:	8d 50 ff             	lea    -0x1(%rax),%edx
   140003eb3:	89 53 0c             	mov    %edx,0xc(%rbx)
   140003eb6:	85 c0                	test   %eax,%eax
   140003eb8:	7f e6                	jg     140003ea0 <__pformat_int.isra.0+0x360>
   140003eba:	44 8b 63 08          	mov    0x8(%rbx),%r12d
   140003ebe:	e9 0d fe ff ff       	jmp    140003cd0 <__pformat_int.isra.0+0x190>
   140003ec3:	66 66 2e 0f 1f 84 00 	data16 cs nopw 0x0(%rax,%rax,1)
   140003eca:	00 00 00 00 
   140003ece:	66 90                	xchg   %ax,%ax

0000000140003ed0 <__pformat_emit_radix_point>:
   140003ed0:	55                   	push   %rbp
   140003ed1:	41 54                	push   %r12
   140003ed3:	57                   	push   %rdi
   140003ed4:	56                   	push   %rsi
   140003ed5:	53                   	push   %rbx
   140003ed6:	48 83 ec 30          	sub    $0x30,%rsp
   140003eda:	48 8d 6c 24 30       	lea    0x30(%rsp),%rbp
   140003edf:	83 79 14 fd          	cmpl   $0xfffffffd,0x14(%rcx)
   140003ee3:	48 89 cb             	mov    %rcx,%rbx
   140003ee6:	0f 84 d4 00 00 00    	je     140003fc0 <__pformat_emit_radix_point+0xf0>
   140003eec:	0f b7 51 18          	movzwl 0x18(%rcx),%edx
   140003ef0:	66 85 d2             	test   %dx,%dx
   140003ef3:	0f 84 a7 00 00 00    	je     140003fa0 <__pformat_emit_radix_point+0xd0>
   140003ef9:	48 63 43 14          	movslq 0x14(%rbx),%rax
   140003efd:	48 89 e7             	mov    %rsp,%rdi
   140003f00:	48 83 c0 0f          	add    $0xf,%rax
   140003f04:	48 83 e0 f0          	and    $0xfffffffffffffff0,%rax
   140003f08:	e8 d3 f1 ff ff       	call   1400030e0 <___chkstk_ms>
   140003f0d:	48 29 c4             	sub    %rax,%rsp
   140003f10:	48 c7 45 f8 00 00 00 	movq   $0x0,-0x8(%rbp)
   140003f17:	00 
   140003f18:	4c 8d 45 f8          	lea    -0x8(%rbp),%r8
   140003f1c:	48 8d 74 24 20       	lea    0x20(%rsp),%rsi
   140003f21:	48 89 f1             	mov    %rsi,%rcx
   140003f24:	e8 37 42 00 00       	call   140008160 <wcrtomb>
   140003f29:	85 c0                	test   %eax,%eax
   140003f2b:	0f 8e cf 00 00 00    	jle    140004000 <__pformat_emit_radix_point+0x130>
   140003f31:	83 e8 01             	sub    $0x1,%eax
   140003f34:	4c 8d 64 06 01       	lea    0x1(%rsi,%rax,1),%r12
   140003f39:	eb 1a                	jmp    140003f55 <__pformat_emit_radix_point+0x85>
   140003f3b:	0f 1f 44 00 00       	nopl   0x0(%rax,%rax,1)
   140003f40:	48 63 53 24          	movslq 0x24(%rbx),%rdx
   140003f44:	88 0c 10             	mov    %cl,(%rax,%rdx,1)
   140003f47:	8b 43 24             	mov    0x24(%rbx),%eax
   140003f4a:	83 c0 01             	add    $0x1,%eax
   140003f4d:	89 43 24             	mov    %eax,0x24(%rbx)
   140003f50:	49 39 f4             	cmp    %rsi,%r12
   140003f53:	74 36                	je     140003f8b <__pformat_emit_radix_point+0xbb>
   140003f55:	8b 53 08             	mov    0x8(%rbx),%edx
   140003f58:	48 83 c6 01          	add    $0x1,%rsi
   140003f5c:	f6 c6 40             	test   $0x40,%dh
   140003f5f:	75 08                	jne    140003f69 <__pformat_emit_radix_point+0x99>
   140003f61:	8b 43 24             	mov    0x24(%rbx),%eax
   140003f64:	39 43 28             	cmp    %eax,0x28(%rbx)
   140003f67:	7e e1                	jle    140003f4a <__pformat_emit_radix_point+0x7a>
   140003f69:	0f be 4e ff          	movsbl -0x1(%rsi),%ecx
   140003f6d:	48 8b 03             	mov    (%rbx),%rax
   140003f70:	80 e6 20             	and    $0x20,%dh
   140003f73:	74 cb                	je     140003f40 <__pformat_emit_radix_point+0x70>
   140003f75:	48 89 c2             	mov    %rax,%rdx
   140003f78:	e8 f3 46 00 00       	call   140008670 <fputc>
   140003f7d:	8b 43 24             	mov    0x24(%rbx),%eax
   140003f80:	83 c0 01             	add    $0x1,%eax
   140003f83:	89 43 24             	mov    %eax,0x24(%rbx)
   140003f86:	49 39 f4             	cmp    %rsi,%r12
   140003f89:	75 ca                	jne    140003f55 <__pformat_emit_radix_point+0x85>
   140003f8b:	48 89 fc             	mov    %rdi,%rsp
   140003f8e:	48 89 ec             	mov    %rbp,%rsp
   140003f91:	5b                   	pop    %rbx
   140003f92:	5e                   	pop    %rsi
   140003f93:	5f                   	pop    %rdi
   140003f94:	41 5c                	pop    %r12
   140003f96:	5d                   	pop    %rbp
   140003f97:	c3                   	ret
   140003f98:	0f 1f 84 00 00 00 00 	nopl   0x0(%rax,%rax,1)
   140003f9f:	00 
   140003fa0:	48 89 da             	mov    %rbx,%rdx
   140003fa3:	b9 2e 00 00 00       	mov    $0x2e,%ecx
   140003fa8:	e8 b3 f2 ff ff       	call   140003260 <__pformat_putc>
   140003fad:	90                   	nop
   140003fae:	48 89 ec             	mov    %rbp,%rsp
   140003fb1:	5b                   	pop    %rbx
   140003fb2:	5e                   	pop    %rsi
   140003fb3:	5f                   	pop    %rdi
   140003fb4:	41 5c                	pop    %r12
   140003fb6:	5d                   	pop    %rbp
   140003fb7:	c3                   	ret
   140003fb8:	0f 1f 84 00 00 00 00 	nopl   0x0(%rax,%rax,1)
   140003fbf:	00 
   140003fc0:	48 c7 45 f8 00 00 00 	movq   $0x0,-0x8(%rbp)
   140003fc7:	00 
   140003fc8:	48 8d 75 f8          	lea    -0x8(%rbp),%rsi
   140003fcc:	e8 b7 46 00 00       	call   140008688 <localeconv>
   140003fd1:	48 8d 4d f6          	lea    -0xa(%rbp),%rcx
   140003fd5:	49 89 f1             	mov    %rsi,%r9
   140003fd8:	41 b8 10 00 00 00    	mov    $0x10,%r8d
   140003fde:	48 8b 10             	mov    (%rax),%rdx
   140003fe1:	e8 1a 44 00 00       	call   140008400 <mbrtowc>
   140003fe6:	85 c0                	test   %eax,%eax
   140003fe8:	7e 2e                	jle    140004018 <__pformat_emit_radix_point+0x148>
   140003fea:	0f b7 55 f6          	movzwl -0xa(%rbp),%edx
   140003fee:	66 89 53 18          	mov    %dx,0x18(%rbx)
   140003ff2:	89 43 14             	mov    %eax,0x14(%rbx)
   140003ff5:	e9 f6 fe ff ff       	jmp    140003ef0 <__pformat_emit_radix_point+0x20>
   140003ffa:	66 0f 1f 44 00 00    	nopw   0x0(%rax,%rax,1)
   140004000:	48 89 da             	mov    %rbx,%rdx
   140004003:	b9 2e 00 00 00       	mov    $0x2e,%ecx
   140004008:	e8 53 f2 ff ff       	call   140003260 <__pformat_putc>
   14000400d:	48 89 fc             	mov    %rdi,%rsp
   140004010:	e9 79 ff ff ff       	jmp    140003f8e <__pformat_emit_radix_point+0xbe>
   140004015:	0f 1f 00             	nopl   (%rax)
   140004018:	0f b7 53 18          	movzwl 0x18(%rbx),%edx
   14000401c:	eb d4                	jmp    140003ff2 <__pformat_emit_radix_point+0x122>
   14000401e:	66 90                	xchg   %ax,%ax

0000000140004020 <__pformat_emit_float>:
   140004020:	55                   	push   %rbp
   140004021:	57                   	push   %rdi
   140004022:	56                   	push   %rsi
   140004023:	53                   	push   %rbx
   140004024:	48 83 ec 28          	sub    $0x28,%rsp
   140004028:	89 cd                	mov    %ecx,%ebp
   14000402a:	48 89 d7             	mov    %rdx,%rdi
   14000402d:	41 8b 49 0c          	mov    0xc(%r9),%ecx
   140004031:	44 89 c6             	mov    %r8d,%esi
   140004034:	4c 89 cb             	mov    %r9,%rbx
   140004037:	45 85 c0             	test   %r8d,%r8d
   14000403a:	0f 8e 30 01 00 00    	jle    140004170 <__pformat_emit_float+0x150>
   140004040:	41 39 c8             	cmp    %ecx,%r8d
   140004043:	7f 63                	jg     1400040a8 <__pformat_emit_float+0x88>
   140004045:	41 8b 41 10          	mov    0x10(%r9),%eax
   140004049:	44 29 c1             	sub    %r8d,%ecx
   14000404c:	39 c1                	cmp    %eax,%ecx
   14000404e:	0f 8e 3c 03 00 00    	jle    140004390 <__pformat_emit_float+0x370>
   140004054:	29 c1                	sub    %eax,%ecx
   140004056:	89 4b 0c             	mov    %ecx,0xc(%rbx)
   140004059:	85 c0                	test   %eax,%eax
   14000405b:	0f 8e 47 02 00 00    	jle    1400042a8 <__pformat_emit_float+0x288>
   140004061:	83 e9 01             	sub    $0x1,%ecx
   140004064:	89 4b 0c             	mov    %ecx,0xc(%rbx)
   140004067:	85 f6                	test   %esi,%esi
   140004069:	7e 0a                	jle    140004075 <__pformat_emit_float+0x55>
   14000406b:	f6 43 09 10          	testb  $0x10,0x9(%rbx)
   14000406f:	0f 85 50 02 00 00    	jne    1400042c5 <__pformat_emit_float+0x2a5>
   140004075:	85 c9                	test   %ecx,%ecx
   140004077:	7e 42                	jle    1400040bb <__pformat_emit_float+0x9b>
   140004079:	85 ed                	test   %ebp,%ebp
   14000407b:	0f 85 c7 01 00 00    	jne    140004248 <__pformat_emit_float+0x228>
   140004081:	8b 43 08             	mov    0x8(%rbx),%eax
   140004084:	a9 c0 01 00 00       	test   $0x1c0,%eax
   140004089:	0f 84 e9 02 00 00    	je     140004378 <__pformat_emit_float+0x358>
   14000408f:	8d 51 ff             	lea    -0x1(%rcx),%edx
   140004092:	89 53 0c             	mov    %edx,0xc(%rbx)
   140004095:	85 d2                	test   %edx,%edx
   140004097:	74 2d                	je     1400040c6 <__pformat_emit_float+0xa6>
   140004099:	f6 c4 06             	test   $0x6,%ah
   14000409c:	75 28                	jne    1400040c6 <__pformat_emit_float+0xa6>
   14000409e:	e9 c0 01 00 00       	jmp    140004263 <__pformat_emit_float+0x243>
   1400040a3:	0f 1f 44 00 00       	nopl   0x0(%rax,%rax,1)
   1400040a8:	41 c7 41 0c ff ff ff 	movl   $0xffffffff,0xc(%r9)
   1400040af:	ff 
   1400040b0:	41 f6 41 09 10       	testb  $0x10,0x9(%r9)
   1400040b5:	0f 85 65 02 00 00    	jne    140004320 <__pformat_emit_float+0x300>
   1400040bb:	85 ed                	test   %ebp,%ebp
   1400040bd:	0f 85 dd 00 00 00    	jne    1400041a0 <__pformat_emit_float+0x180>
   1400040c3:	8b 43 08             	mov    0x8(%rbx),%eax
   1400040c6:	f6 c4 01             	test   $0x1,%ah
   1400040c9:	0f 85 09 02 00 00    	jne    1400042d8 <__pformat_emit_float+0x2b8>
   1400040cf:	a8 40                	test   $0x40,%al
   1400040d1:	0f 85 f9 02 00 00    	jne    1400043d0 <__pformat_emit_float+0x3b0>
   1400040d7:	8b 43 0c             	mov    0xc(%rbx),%eax
   1400040da:	85 c0                	test   %eax,%eax
   1400040dc:	7e 15                	jle    1400040f3 <__pformat_emit_float+0xd3>
   1400040de:	8b 53 08             	mov    0x8(%rbx),%edx
   1400040e1:	81 e2 00 06 00 00    	and    $0x600,%edx
   1400040e7:	81 fa 00 02 00 00    	cmp    $0x200,%edx
   1400040ed:	0f 84 fd 01 00 00    	je     1400042f0 <__pformat_emit_float+0x2d0>
   1400040f3:	85 f6                	test   %esi,%esi
   1400040f5:	0f 8e 05 01 00 00    	jle    140004200 <__pformat_emit_float+0x1e0>
   1400040fb:	0f 1f 44 00 00       	nopl   0x0(%rax,%rax,1)
   140004100:	0f b6 07             	movzbl (%rdi),%eax
   140004103:	b9 30 00 00 00       	mov    $0x30,%ecx
   140004108:	84 c0                	test   %al,%al
   14000410a:	74 07                	je     140004113 <__pformat_emit_float+0xf3>
   14000410c:	48 83 c7 01          	add    $0x1,%rdi
   140004110:	0f be c8             	movsbl %al,%ecx
   140004113:	48 89 da             	mov    %rbx,%rdx
   140004116:	e8 45 f1 ff ff       	call   140003260 <__pformat_putc>
   14000411b:	83 ee 01             	sub    $0x1,%esi
   14000411e:	74 30                	je     140004150 <__pformat_emit_float+0x130>
   140004120:	f6 43 09 10          	testb  $0x10,0x9(%rbx)
   140004124:	74 da                	je     140004100 <__pformat_emit_float+0xe0>
   140004126:	66 83 7b 20 00       	cmpw   $0x0,0x20(%rbx)
   14000412b:	74 d3                	je     140004100 <__pformat_emit_float+0xe0>
   14000412d:	69 c6 ab aa aa aa    	imul   $0xaaaaaaab,%esi,%eax
   140004133:	3d 55 55 55 55       	cmp    $0x55555555,%eax
   140004138:	77 c6                	ja     140004100 <__pformat_emit_float+0xe0>
   14000413a:	48 8d 4b 20          	lea    0x20(%rbx),%rcx
   14000413e:	49 89 d8             	mov    %rbx,%r8
   140004141:	ba 01 00 00 00       	mov    $0x1,%edx
   140004146:	e8 75 f1 ff ff       	call   1400032c0 <__pformat_wputchars>
   14000414b:	eb b3                	jmp    140004100 <__pformat_emit_float+0xe0>
   14000414d:	0f 1f 00             	nopl   (%rax)
   140004150:	8b 43 10             	mov    0x10(%rbx),%eax
   140004153:	85 c0                	test   %eax,%eax
   140004155:	7f 61                	jg     1400041b8 <__pformat_emit_float+0x198>
   140004157:	f6 43 09 08          	testb  $0x8,0x9(%rbx)
   14000415b:	0f 85 b7 00 00 00    	jne    140004218 <__pformat_emit_float+0x1f8>
   140004161:	83 e8 01             	sub    $0x1,%eax
   140004164:	89 43 10             	mov    %eax,0x10(%rbx)
   140004167:	48 83 c4 28          	add    $0x28,%rsp
   14000416b:	5b                   	pop    %rbx
   14000416c:	5e                   	pop    %rsi
   14000416d:	5f                   	pop    %rdi
   14000416e:	5d                   	pop    %rbp
   14000416f:	c3                   	ret
   140004170:	85 c9                	test   %ecx,%ecx
   140004172:	0f 8e 18 01 00 00    	jle    140004290 <__pformat_emit_float+0x270>
   140004178:	41 8b 41 10          	mov    0x10(%r9),%eax
   14000417c:	83 e9 01             	sub    $0x1,%ecx
   14000417f:	39 c1                	cmp    %eax,%ecx
   140004181:	0f 8f cd fe ff ff    	jg     140004054 <__pformat_emit_float+0x34>
   140004187:	c7 43 0c ff ff ff ff 	movl   $0xffffffff,0xc(%rbx)
   14000418e:	85 ed                	test   %ebp,%ebp
   140004190:	0f 84 2d ff ff ff    	je     1400040c3 <__pformat_emit_float+0xa3>
   140004196:	66 2e 0f 1f 84 00 00 	cs nopw 0x0(%rax,%rax,1)
   14000419d:	00 00 00 
   1400041a0:	48 89 da             	mov    %rbx,%rdx
   1400041a3:	b9 2d 00 00 00       	mov    $0x2d,%ecx
   1400041a8:	e8 b3 f0 ff ff       	call   140003260 <__pformat_putc>
   1400041ad:	e9 25 ff ff ff       	jmp    1400040d7 <__pformat_emit_float+0xb7>
   1400041b2:	66 0f 1f 44 00 00    	nopw   0x0(%rax,%rax,1)
   1400041b8:	48 89 d9             	mov    %rbx,%rcx
   1400041bb:	e8 10 fd ff ff       	call   140003ed0 <__pformat_emit_radix_point>
   1400041c0:	eb 21                	jmp    1400041e3 <__pformat_emit_float+0x1c3>
   1400041c2:	66 0f 1f 44 00 00    	nopw   0x0(%rax,%rax,1)
   1400041c8:	0f b6 07             	movzbl (%rdi),%eax
   1400041cb:	b9 30 00 00 00       	mov    $0x30,%ecx
   1400041d0:	84 c0                	test   %al,%al
   1400041d2:	74 07                	je     1400041db <__pformat_emit_float+0x1bb>
   1400041d4:	48 83 c7 01          	add    $0x1,%rdi
   1400041d8:	0f be c8             	movsbl %al,%ecx
   1400041db:	48 89 da             	mov    %rbx,%rdx
   1400041de:	e8 7d f0 ff ff       	call   140003260 <__pformat_putc>
   1400041e3:	8b 43 10             	mov    0x10(%rbx),%eax
   1400041e6:	8d 50 ff             	lea    -0x1(%rax),%edx
   1400041e9:	89 53 10             	mov    %edx,0x10(%rbx)
   1400041ec:	85 c0                	test   %eax,%eax
   1400041ee:	7f d8                	jg     1400041c8 <__pformat_emit_float+0x1a8>
   1400041f0:	48 83 c4 28          	add    $0x28,%rsp
   1400041f4:	5b                   	pop    %rbx
   1400041f5:	5e                   	pop    %rsi
   1400041f6:	5f                   	pop    %rdi
   1400041f7:	5d                   	pop    %rbp
   1400041f8:	c3                   	ret
   1400041f9:	0f 1f 80 00 00 00 00 	nopl   0x0(%rax)
   140004200:	48 89 da             	mov    %rbx,%rdx
   140004203:	b9 30 00 00 00       	mov    $0x30,%ecx
   140004208:	e8 53 f0 ff ff       	call   140003260 <__pformat_putc>
   14000420d:	8b 43 10             	mov    0x10(%rbx),%eax
   140004210:	85 c0                	test   %eax,%eax
   140004212:	0f 8e ca 01 00 00    	jle    1400043e2 <__pformat_emit_float+0x3c2>
   140004218:	48 89 d9             	mov    %rbx,%rcx
   14000421b:	e8 b0 fc ff ff       	call   140003ed0 <__pformat_emit_radix_point>
   140004220:	85 f6                	test   %esi,%esi
   140004222:	74 bf                	je     1400041e3 <__pformat_emit_float+0x1c3>
   140004224:	8b 43 10             	mov    0x10(%rbx),%eax
   140004227:	01 f0                	add    %esi,%eax
   140004229:	89 43 10             	mov    %eax,0x10(%rbx)
   14000422c:	0f 1f 40 00          	nopl   0x0(%rax)
   140004230:	48 89 da             	mov    %rbx,%rdx
   140004233:	b9 30 00 00 00       	mov    $0x30,%ecx
   140004238:	e8 23 f0 ff ff       	call   140003260 <__pformat_putc>
   14000423d:	83 c6 01             	add    $0x1,%esi
   140004240:	75 ee                	jne    140004230 <__pformat_emit_float+0x210>
   140004242:	eb 9f                	jmp    1400041e3 <__pformat_emit_float+0x1c3>
   140004244:	0f 1f 40 00          	nopl   0x0(%rax)
   140004248:	8d 41 ff             	lea    -0x1(%rcx),%eax
   14000424b:	89 43 0c             	mov    %eax,0xc(%rbx)
   14000424e:	85 c0                	test   %eax,%eax
   140004250:	0f 84 4a ff ff ff    	je     1400041a0 <__pformat_emit_float+0x180>
   140004256:	f7 43 08 00 06 00 00 	testl  $0x600,0x8(%rbx)
   14000425d:	0f 85 3d ff ff ff    	jne    1400041a0 <__pformat_emit_float+0x180>
   140004263:	83 e9 02             	sub    $0x2,%ecx
   140004266:	89 4b 0c             	mov    %ecx,0xc(%rbx)
   140004269:	0f 1f 80 00 00 00 00 	nopl   0x0(%rax)
   140004270:	48 89 da             	mov    %rbx,%rdx
   140004273:	b9 20 00 00 00       	mov    $0x20,%ecx
   140004278:	e8 e3 ef ff ff       	call   140003260 <__pformat_putc>
   14000427d:	8b 43 0c             	mov    0xc(%rbx),%eax
   140004280:	8d 50 ff             	lea    -0x1(%rax),%edx
   140004283:	89 53 0c             	mov    %edx,0xc(%rbx)
   140004286:	85 c0                	test   %eax,%eax
   140004288:	7f e6                	jg     140004270 <__pformat_emit_float+0x250>
   14000428a:	e9 2c fe ff ff       	jmp    1400040bb <__pformat_emit_float+0x9b>
   14000428f:	90                   	nop
   140004290:	0f 85 f1 fe ff ff    	jne    140004187 <__pformat_emit_float+0x167>
   140004296:	41 8b 49 10          	mov    0x10(%r9),%ecx
   14000429a:	85 c9                	test   %ecx,%ecx
   14000429c:	0f 89 e5 fe ff ff    	jns    140004187 <__pformat_emit_float+0x167>
   1400042a2:	f7 d9                	neg    %ecx
   1400042a4:	41 89 49 0c          	mov    %ecx,0xc(%r9)
   1400042a8:	8b 43 08             	mov    0x8(%rbx),%eax
   1400042ab:	f6 c4 08             	test   $0x8,%ah
   1400042ae:	0f 85 ad fd ff ff    	jne    140004061 <__pformat_emit_float+0x41>
   1400042b4:	85 f6                	test   %esi,%esi
   1400042b6:	0f 8e bd fd ff ff    	jle    140004079 <__pformat_emit_float+0x59>
   1400042bc:	f6 c4 10             	test   $0x10,%ah
   1400042bf:	0f 84 b4 fd ff ff    	je     140004079 <__pformat_emit_float+0x59>
   1400042c5:	66 83 7b 20 00       	cmpw   $0x0,0x20(%rbx)
   1400042ca:	0f 84 a5 fd ff ff    	je     140004075 <__pformat_emit_float+0x55>
   1400042d0:	e9 dd 00 00 00       	jmp    1400043b2 <__pformat_emit_float+0x392>
   1400042d5:	0f 1f 00             	nopl   (%rax)
   1400042d8:	48 89 da             	mov    %rbx,%rdx
   1400042db:	b9 2b 00 00 00       	mov    $0x2b,%ecx
   1400042e0:	e8 7b ef ff ff       	call   140003260 <__pformat_putc>
   1400042e5:	e9 ed fd ff ff       	jmp    1400040d7 <__pformat_emit_float+0xb7>
   1400042ea:	66 0f 1f 44 00 00    	nopw   0x0(%rax,%rax,1)
   1400042f0:	83 e8 01             	sub    $0x1,%eax
   1400042f3:	89 43 0c             	mov    %eax,0xc(%rbx)
   1400042f6:	66 2e 0f 1f 84 00 00 	cs nopw 0x0(%rax,%rax,1)
   1400042fd:	00 00 00 
   140004300:	48 89 da             	mov    %rbx,%rdx
   140004303:	b9 30 00 00 00       	mov    $0x30,%ecx
   140004308:	e8 53 ef ff ff       	call   140003260 <__pformat_putc>
   14000430d:	8b 43 0c             	mov    0xc(%rbx),%eax
   140004310:	8d 50 ff             	lea    -0x1(%rax),%edx
   140004313:	89 53 0c             	mov    %edx,0xc(%rbx)
   140004316:	85 c0                	test   %eax,%eax
   140004318:	7f e6                	jg     140004300 <__pformat_emit_float+0x2e0>
   14000431a:	e9 d4 fd ff ff       	jmp    1400040f3 <__pformat_emit_float+0xd3>
   14000431f:	90                   	nop
   140004320:	66 41 83 79 20 00    	cmpw   $0x0,0x20(%r9)
   140004326:	0f 84 8f fd ff ff    	je     1400040bb <__pformat_emit_float+0x9b>
   14000432c:	41 8d 40 02          	lea    0x2(%r8),%eax
   140004330:	ba ab aa aa aa       	mov    $0xaaaaaaab,%edx
   140004335:	b9 ff ff ff ff       	mov    $0xffffffff,%ecx
   14000433a:	48 0f af c2          	imul   %rdx,%rax
   14000433e:	48 c1 e8 21          	shr    $0x21,%rax
   140004342:	83 f8 01             	cmp    $0x1,%eax
   140004345:	0f 84 70 fd ff ff    	je     1400040bb <__pformat_emit_float+0x9b>
   14000434b:	83 e8 01             	sub    $0x1,%eax
   14000434e:	29 c8                	sub    %ecx,%eax
   140004350:	eb 16                	jmp    140004368 <__pformat_emit_float+0x348>
   140004352:	66 0f 1f 44 00 00    	nopw   0x0(%rax,%rax,1)
   140004358:	83 e9 01             	sub    $0x1,%ecx
   14000435b:	89 c2                	mov    %eax,%edx
   14000435d:	01 ca                	add    %ecx,%edx
   14000435f:	89 4b 0c             	mov    %ecx,0xc(%rbx)
   140004362:	0f 84 0d fd ff ff    	je     140004075 <__pformat_emit_float+0x55>
   140004368:	85 c9                	test   %ecx,%ecx
   14000436a:	7f ec                	jg     140004358 <__pformat_emit_float+0x338>
   14000436c:	e9 4a fd ff ff       	jmp    1400040bb <__pformat_emit_float+0x9b>
   140004371:	0f 1f 80 00 00 00 00 	nopl   0x0(%rax)
   140004378:	83 e9 01             	sub    $0x1,%ecx
   14000437b:	f6 c4 06             	test   $0x6,%ah
   14000437e:	0f 84 e2 fe ff ff    	je     140004266 <__pformat_emit_float+0x246>
   140004384:	e9 3d fd ff ff       	jmp    1400040c6 <__pformat_emit_float+0xa6>
   140004389:	0f 1f 80 00 00 00 00 	nopl   0x0(%rax)
   140004390:	41 c7 41 0c ff ff ff 	movl   $0xffffffff,0xc(%r9)
   140004397:	ff 
   140004398:	41 f6 41 09 10       	testb  $0x10,0x9(%r9)
   14000439d:	0f 84 18 fd ff ff    	je     1400040bb <__pformat_emit_float+0x9b>
   1400043a3:	66 41 83 79 20 00    	cmpw   $0x0,0x20(%r9)
   1400043a9:	0f 84 0c fd ff ff    	je     1400040bb <__pformat_emit_float+0x9b>
   1400043af:	83 c9 ff             	or     $0xffffffff,%ecx
   1400043b2:	8d 46 02             	lea    0x2(%rsi),%eax
   1400043b5:	41 b8 03 00 00 00    	mov    $0x3,%r8d
   1400043bb:	99                   	cltd
   1400043bc:	41 f7 f8             	idiv   %r8d
   1400043bf:	83 f8 01             	cmp    $0x1,%eax
   1400043c2:	75 87                	jne    14000434b <__pformat_emit_float+0x32b>
   1400043c4:	e9 ac fc ff ff       	jmp    140004075 <__pformat_emit_float+0x55>
   1400043c9:	0f 1f 80 00 00 00 00 	nopl   0x0(%rax)
   1400043d0:	48 89 da             	mov    %rbx,%rdx
   1400043d3:	b9 20 00 00 00       	mov    $0x20,%ecx
   1400043d8:	e8 83 ee ff ff       	call   140003260 <__pformat_putc>
   1400043dd:	e9 f5 fc ff ff       	jmp    1400040d7 <__pformat_emit_float+0xb7>
   1400043e2:	f6 43 09 08          	testb  $0x8,0x9(%rbx)
   1400043e6:	0f 85 2c fe ff ff    	jne    140004218 <__pformat_emit_float+0x1f8>
   1400043ec:	85 f6                	test   %esi,%esi
   1400043ee:	0f 85 33 fe ff ff    	jne    140004227 <__pformat_emit_float+0x207>
   1400043f4:	e9 68 fd ff ff       	jmp    140004161 <__pformat_emit_float+0x141>
   1400043f9:	0f 1f 80 00 00 00 00 	nopl   0x0(%rax)

0000000140004400 <__pformat_emit_efloat>:
   140004400:	57                   	push   %rdi
   140004401:	56                   	push   %rsi
   140004402:	53                   	push   %rbx
   140004403:	48 83 ec 20          	sub    $0x20,%rsp
   140004407:	41 ba 01 00 00 00    	mov    $0x1,%r10d
   14000440d:	41 83 e8 01          	sub    $0x1,%r8d
   140004411:	41 89 cb             	mov    %ecx,%r11d
   140004414:	4c 89 cb             	mov    %r9,%rbx
   140004417:	49 63 f0             	movslq %r8d,%rsi
   14000441a:	41 c1 f8 1f          	sar    $0x1f,%r8d
   14000441e:	48 69 ce 67 66 66 66 	imul   $0x66666667,%rsi,%rcx
   140004425:	48 c1 f9 22          	sar    $0x22,%rcx
   140004429:	44 29 c1             	sub    %r8d,%ecx
   14000442c:	74 1d                	je     14000444b <__pformat_emit_efloat+0x4b>
   14000442e:	66 90                	xchg   %ax,%ax
   140004430:	48 63 c1             	movslq %ecx,%rax
   140004433:	c1 f9 1f             	sar    $0x1f,%ecx
   140004436:	41 83 c2 01          	add    $0x1,%r10d
   14000443a:	48 69 c0 67 66 66 66 	imul   $0x66666667,%rax,%rax
   140004441:	48 c1 f8 22          	sar    $0x22,%rax
   140004445:	29 c8                	sub    %ecx,%eax
   140004447:	89 c1                	mov    %eax,%ecx
   140004449:	75 e5                	jne    140004430 <__pformat_emit_efloat+0x30>
   14000444b:	8b 43 2c             	mov    0x2c(%rbx),%eax
   14000444e:	83 f8 ff             	cmp    $0xffffffff,%eax
   140004451:	75 0c                	jne    14000445f <__pformat_emit_efloat+0x5f>
   140004453:	c7 43 2c 02 00 00 00 	movl   $0x2,0x2c(%rbx)
   14000445a:	b8 02 00 00 00       	mov    $0x2,%eax
   14000445f:	44 39 d0             	cmp    %r10d,%eax
   140004462:	44 89 d7             	mov    %r10d,%edi
   140004465:	44 8b 43 0c          	mov    0xc(%rbx),%r8d
   140004469:	49 89 d9             	mov    %rbx,%r9
   14000446c:	0f 4d f8             	cmovge %eax,%edi
   14000446f:	44 89 c0             	mov    %r8d,%eax
   140004472:	8d 4f 02             	lea    0x2(%rdi),%ecx
   140004475:	29 c8                	sub    %ecx,%eax
   140004477:	41 39 c8             	cmp    %ecx,%r8d
   14000447a:	b9 ff ff ff ff       	mov    $0xffffffff,%ecx
   14000447f:	41 b8 01 00 00 00    	mov    $0x1,%r8d
   140004485:	0f 4e c1             	cmovle %ecx,%eax
   140004488:	44 89 d9             	mov    %r11d,%ecx
   14000448b:	89 43 0c             	mov    %eax,0xc(%rbx)
   14000448e:	e8 8d fb ff ff       	call   140004020 <__pformat_emit_float>
   140004493:	8b 4b 08             	mov    0x8(%rbx),%ecx
   140004496:	8b 43 2c             	mov    0x2c(%rbx),%eax
   140004499:	48 89 da             	mov    %rbx,%rdx
   14000449c:	89 43 10             	mov    %eax,0x10(%rbx)
   14000449f:	89 c8                	mov    %ecx,%eax
   1400044a1:	83 e1 20             	and    $0x20,%ecx
   1400044a4:	0d c0 01 00 00       	or     $0x1c0,%eax
   1400044a9:	83 c9 45             	or     $0x45,%ecx
   1400044ac:	89 43 08             	mov    %eax,0x8(%rbx)
   1400044af:	e8 ac ed ff ff       	call   140003260 <__pformat_putc>
   1400044b4:	8d 47 01             	lea    0x1(%rdi),%eax
   1400044b7:	01 43 0c             	add    %eax,0xc(%rbx)
   1400044ba:	48 89 da             	mov    %rbx,%rdx
   1400044bd:	48 89 f1             	mov    %rsi,%rcx
   1400044c0:	48 83 c4 20          	add    $0x20,%rsp
   1400044c4:	5b                   	pop    %rbx
   1400044c5:	5e                   	pop    %rsi
   1400044c6:	5f                   	pop    %rdi
   1400044c7:	e9 74 f6 ff ff       	jmp    140003b40 <__pformat_int.isra.0>
   1400044cc:	0f 1f 40 00          	nopl   0x0(%rax)

00000001400044d0 <__pformat_efloat>:
   1400044d0:	56                   	push   %rsi
   1400044d1:	53                   	push   %rbx
   1400044d2:	48 83 ec 58          	sub    $0x58,%rsp
   1400044d6:	44 8b 42 10          	mov    0x10(%rdx),%r8d
   1400044da:	db 29                	fldt   (%rcx)
   1400044dc:	48 89 d3             	mov    %rdx,%rbx
   1400044df:	45 85 c0             	test   %r8d,%r8d
   1400044e2:	78 5c                	js     140004540 <__pformat_efloat+0x70>
   1400044e4:	41 83 c0 01          	add    $0x1,%r8d
   1400044e8:	48 8d 44 24 48       	lea    0x48(%rsp),%rax
   1400044ed:	48 8d 54 24 30       	lea    0x30(%rsp),%rdx
   1400044f2:	b9 02 00 00 00       	mov    $0x2,%ecx
   1400044f7:	db 7c 24 30          	fstpt  0x30(%rsp)
   1400044fb:	4c 8d 4c 24 4c       	lea    0x4c(%rsp),%r9
   140004500:	48 89 44 24 20       	mov    %rax,0x20(%rsp)
   140004505:	e8 66 ec ff ff       	call   140003170 <__pformat_cvt>
   14000450a:	44 8b 44 24 4c       	mov    0x4c(%rsp),%r8d
   14000450f:	48 89 c6             	mov    %rax,%rsi
   140004512:	41 81 f8 00 80 ff ff 	cmp    $0xffff8000,%r8d
   140004519:	74 35                	je     140004550 <__pformat_efloat+0x80>
   14000451b:	8b 4c 24 48          	mov    0x48(%rsp),%ecx
   14000451f:	49 89 d9             	mov    %rbx,%r9
   140004522:	48 89 c2             	mov    %rax,%rdx
   140004525:	e8 d6 fe ff ff       	call   140004400 <__pformat_emit_efloat>
   14000452a:	48 89 f1             	mov    %rsi,%rcx
   14000452d:	e8 ce 12 00 00       	call   140005800 <__freedtoa>
   140004532:	90                   	nop
   140004533:	48 83 c4 58          	add    $0x58,%rsp
   140004537:	5b                   	pop    %rbx
   140004538:	5e                   	pop    %rsi
   140004539:	c3                   	ret
   14000453a:	66 0f 1f 44 00 00    	nopw   0x0(%rax,%rax,1)
   140004540:	c7 42 10 06 00 00 00 	movl   $0x6,0x10(%rdx)
   140004547:	41 b8 07 00 00 00    	mov    $0x7,%r8d
   14000454d:	eb 99                	jmp    1400044e8 <__pformat_efloat+0x18>
   14000454f:	90                   	nop
   140004550:	8b 4c 24 48          	mov    0x48(%rsp),%ecx
   140004554:	49 89 d8             	mov    %rbx,%r8
   140004557:	48 89 c2             	mov    %rax,%rdx
   14000455a:	e8 91 f0 ff ff       	call   1400035f0 <__pformat_emit_inf_or_nan>
   14000455f:	48 89 f1             	mov    %rsi,%rcx
   140004562:	e8 99 12 00 00       	call   140005800 <__freedtoa>
   140004567:	90                   	nop
   140004568:	48 83 c4 58          	add    $0x58,%rsp
   14000456c:	5b                   	pop    %rbx
   14000456d:	5e                   	pop    %rsi
   14000456e:	c3                   	ret
   14000456f:	90                   	nop

0000000140004570 <__pformat_float>:
   140004570:	56                   	push   %rsi
   140004571:	53                   	push   %rbx
   140004572:	48 83 ec 58          	sub    $0x58,%rsp
   140004576:	44 8b 42 10          	mov    0x10(%rdx),%r8d
   14000457a:	db 29                	fldt   (%rcx)
   14000457c:	48 89 d3             	mov    %rdx,%rbx
   14000457f:	45 85 c0             	test   %r8d,%r8d
   140004582:	79 0d                	jns    140004591 <__pformat_float+0x21>
   140004584:	c7 42 10 06 00 00 00 	movl   $0x6,0x10(%rdx)
   14000458b:	41 b8 06 00 00 00    	mov    $0x6,%r8d
   140004591:	48 8d 44 24 48       	lea    0x48(%rsp),%rax
   140004596:	48 8d 54 24 30       	lea    0x30(%rsp),%rdx
   14000459b:	b9 03 00 00 00       	mov    $0x3,%ecx
   1400045a0:	db 7c 24 30          	fstpt  0x30(%rsp)
   1400045a4:	4c 8d 4c 24 4c       	lea    0x4c(%rsp),%r9
   1400045a9:	48 89 44 24 20       	mov    %rax,0x20(%rsp)
   1400045ae:	e8 bd eb ff ff       	call   140003170 <__pformat_cvt>
   1400045b3:	44 8b 44 24 4c       	mov    0x4c(%rsp),%r8d
   1400045b8:	48 89 c6             	mov    %rax,%rsi
   1400045bb:	41 81 f8 00 80 ff ff 	cmp    $0xffff8000,%r8d
   1400045c2:	74 6c                	je     140004630 <__pformat_float+0xc0>
   1400045c4:	8b 4c 24 48          	mov    0x48(%rsp),%ecx
   1400045c8:	48 89 c2             	mov    %rax,%rdx
   1400045cb:	49 89 d9             	mov    %rbx,%r9
   1400045ce:	e8 4d fa ff ff       	call   140004020 <__pformat_emit_float>
   1400045d3:	8b 43 0c             	mov    0xc(%rbx),%eax
   1400045d6:	eb 1c                	jmp    1400045f4 <__pformat_float+0x84>
   1400045d8:	0f 1f 84 00 00 00 00 	nopl   0x0(%rax,%rax,1)
   1400045df:	00 
   1400045e0:	48 63 43 24          	movslq 0x24(%rbx),%rax
   1400045e4:	c6 04 02 20          	movb   $0x20,(%rdx,%rax,1)
   1400045e8:	8b 53 24             	mov    0x24(%rbx),%edx
   1400045eb:	8b 43 0c             	mov    0xc(%rbx),%eax
   1400045ee:	83 c2 01             	add    $0x1,%edx
   1400045f1:	89 53 24             	mov    %edx,0x24(%rbx)
   1400045f4:	89 c2                	mov    %eax,%edx
   1400045f6:	83 e8 01             	sub    $0x1,%eax
   1400045f9:	89 43 0c             	mov    %eax,0xc(%rbx)
   1400045fc:	85 d2                	test   %edx,%edx
   1400045fe:	7e 3f                	jle    14000463f <__pformat_float+0xcf>
   140004600:	8b 4b 08             	mov    0x8(%rbx),%ecx
   140004603:	f6 c5 40             	test   $0x40,%ch
   140004606:	75 08                	jne    140004610 <__pformat_float+0xa0>
   140004608:	8b 53 24             	mov    0x24(%rbx),%edx
   14000460b:	39 53 28             	cmp    %edx,0x28(%rbx)
   14000460e:	7e de                	jle    1400045ee <__pformat_float+0x7e>
   140004610:	48 8b 13             	mov    (%rbx),%rdx
   140004613:	80 e5 20             	and    $0x20,%ch
   140004616:	74 c8                	je     1400045e0 <__pformat_float+0x70>
   140004618:	b9 20 00 00 00       	mov    $0x20,%ecx
   14000461d:	e8 4e 40 00 00       	call   140008670 <fputc>
   140004622:	8b 53 24             	mov    0x24(%rbx),%edx
   140004625:	8b 43 0c             	mov    0xc(%rbx),%eax
   140004628:	eb c4                	jmp    1400045ee <__pformat_float+0x7e>
   14000462a:	66 0f 1f 44 00 00    	nopw   0x0(%rax,%rax,1)
   140004630:	8b 4c 24 48          	mov    0x48(%rsp),%ecx
   140004634:	49 89 d8             	mov    %rbx,%r8
   140004637:	48 89 c2             	mov    %rax,%rdx
   14000463a:	e8 b1 ef ff ff       	call   1400035f0 <__pformat_emit_inf_or_nan>
   14000463f:	48 89 f1             	mov    %rsi,%rcx
   140004642:	e8 b9 11 00 00       	call   140005800 <__freedtoa>
   140004647:	90                   	nop
   140004648:	48 83 c4 58          	add    $0x58,%rsp
   14000464c:	5b                   	pop    %rbx
   14000464d:	5e                   	pop    %rsi
   14000464e:	c3                   	ret
   14000464f:	90                   	nop

0000000140004650 <__pformat_gfloat>:
   140004650:	57                   	push   %rdi
   140004651:	56                   	push   %rsi
   140004652:	53                   	push   %rbx
   140004653:	48 83 ec 50          	sub    $0x50,%rsp
   140004657:	44 8b 42 10          	mov    0x10(%rdx),%r8d
   14000465b:	db 29                	fldt   (%rcx)
   14000465d:	48 89 d3             	mov    %rdx,%rbx
   140004660:	45 85 c0             	test   %r8d,%r8d
   140004663:	0f 88 ff 00 00 00    	js     140004768 <__pformat_gfloat+0x118>
   140004669:	0f 84 e1 00 00 00    	je     140004750 <__pformat_gfloat+0x100>
   14000466f:	48 8d 44 24 48       	lea    0x48(%rsp),%rax
   140004674:	48 8d 54 24 30       	lea    0x30(%rsp),%rdx
   140004679:	b9 02 00 00 00       	mov    $0x2,%ecx
   14000467e:	db 7c 24 30          	fstpt  0x30(%rsp)
   140004682:	4c 8d 4c 24 4c       	lea    0x4c(%rsp),%r9
   140004687:	48 89 44 24 20       	mov    %rax,0x20(%rsp)
   14000468c:	e8 df ea ff ff       	call   140003170 <__pformat_cvt>
   140004691:	8b 7c 24 4c          	mov    0x4c(%rsp),%edi
   140004695:	48 89 c6             	mov    %rax,%rsi
   140004698:	81 ff 00 80 ff ff    	cmp    $0xffff8000,%edi
   14000469e:	0f 84 dc 00 00 00    	je     140004780 <__pformat_gfloat+0x130>
   1400046a4:	8b 43 08             	mov    0x8(%rbx),%eax
   1400046a7:	25 00 08 00 00       	and    $0x800,%eax
   1400046ac:	83 ff fd             	cmp    $0xfffffffd,%edi
   1400046af:	7c 5f                	jl     140004710 <__pformat_gfloat+0xc0>
   1400046b1:	8b 53 10             	mov    0x10(%rbx),%edx
   1400046b4:	39 d7                	cmp    %edx,%edi
   1400046b6:	7f 58                	jg     140004710 <__pformat_gfloat+0xc0>
   1400046b8:	85 c0                	test   %eax,%eax
   1400046ba:	0f 84 e0 00 00 00    	je     1400047a0 <__pformat_gfloat+0x150>
   1400046c0:	29 fa                	sub    %edi,%edx
   1400046c2:	89 53 10             	mov    %edx,0x10(%rbx)
   1400046c5:	8b 4c 24 48          	mov    0x48(%rsp),%ecx
   1400046c9:	49 89 d9             	mov    %rbx,%r9
   1400046cc:	41 89 f8             	mov    %edi,%r8d
   1400046cf:	48 89 f2             	mov    %rsi,%rdx
   1400046d2:	e8 49 f9 ff ff       	call   140004020 <__pformat_emit_float>
   1400046d7:	eb 14                	jmp    1400046ed <__pformat_gfloat+0x9d>
   1400046d9:	0f 1f 80 00 00 00 00 	nopl   0x0(%rax)
   1400046e0:	48 89 da             	mov    %rbx,%rdx
   1400046e3:	b9 20 00 00 00       	mov    $0x20,%ecx
   1400046e8:	e8 73 eb ff ff       	call   140003260 <__pformat_putc>
   1400046ed:	8b 43 0c             	mov    0xc(%rbx),%eax
   1400046f0:	8d 50 ff             	lea    -0x1(%rax),%edx
   1400046f3:	89 53 0c             	mov    %edx,0xc(%rbx)
   1400046f6:	85 c0                	test   %eax,%eax
   1400046f8:	7f e6                	jg     1400046e0 <__pformat_gfloat+0x90>
   1400046fa:	48 89 f1             	mov    %rsi,%rcx
   1400046fd:	e8 fe 10 00 00       	call   140005800 <__freedtoa>
   140004702:	90                   	nop
   140004703:	48 83 c4 50          	add    $0x50,%rsp
   140004707:	5b                   	pop    %rbx
   140004708:	5e                   	pop    %rsi
   140004709:	5f                   	pop    %rdi
   14000470a:	c3                   	ret
   14000470b:	0f 1f 44 00 00       	nopl   0x0(%rax,%rax,1)
   140004710:	85 c0                	test   %eax,%eax
   140004712:	75 34                	jne    140004748 <__pformat_gfloat+0xf8>
   140004714:	48 89 f1             	mov    %rsi,%rcx
   140004717:	e8 9c 3f 00 00       	call   1400086b8 <strlen>
   14000471c:	83 e8 01             	sub    $0x1,%eax
   14000471f:	89 43 10             	mov    %eax,0x10(%rbx)
   140004722:	8b 4c 24 48          	mov    0x48(%rsp),%ecx
   140004726:	49 89 d9             	mov    %rbx,%r9
   140004729:	41 89 f8             	mov    %edi,%r8d
   14000472c:	48 89 f2             	mov    %rsi,%rdx
   14000472f:	e8 cc fc ff ff       	call   140004400 <__pformat_emit_efloat>
   140004734:	48 89 f1             	mov    %rsi,%rcx
   140004737:	e8 c4 10 00 00       	call   140005800 <__freedtoa>
   14000473c:	90                   	nop
   14000473d:	48 83 c4 50          	add    $0x50,%rsp
   140004741:	5b                   	pop    %rbx
   140004742:	5e                   	pop    %rsi
   140004743:	5f                   	pop    %rdi
   140004744:	c3                   	ret
   140004745:	0f 1f 00             	nopl   (%rax)
   140004748:	8b 43 10             	mov    0x10(%rbx),%eax
   14000474b:	83 e8 01             	sub    $0x1,%eax
   14000474e:	eb cf                	jmp    14000471f <__pformat_gfloat+0xcf>
   140004750:	c7 42 10 01 00 00 00 	movl   $0x1,0x10(%rdx)
   140004757:	41 b8 01 00 00 00    	mov    $0x1,%r8d
   14000475d:	e9 0d ff ff ff       	jmp    14000466f <__pformat_gfloat+0x1f>
   140004762:	66 0f 1f 44 00 00    	nopw   0x0(%rax,%rax,1)
   140004768:	c7 42 10 06 00 00 00 	movl   $0x6,0x10(%rdx)
   14000476f:	41 b8 06 00 00 00    	mov    $0x6,%r8d
   140004775:	e9 f5 fe ff ff       	jmp    14000466f <__pformat_gfloat+0x1f>
   14000477a:	66 0f 1f 44 00 00    	nopw   0x0(%rax,%rax,1)
   140004780:	8b 4c 24 48          	mov    0x48(%rsp),%ecx
   140004784:	49 89 d8             	mov    %rbx,%r8
   140004787:	48 89 c2             	mov    %rax,%rdx
   14000478a:	e8 61 ee ff ff       	call   1400035f0 <__pformat_emit_inf_or_nan>
   14000478f:	48 89 f1             	mov    %rsi,%rcx
   140004792:	e8 69 10 00 00       	call   140005800 <__freedtoa>
   140004797:	90                   	nop
   140004798:	48 83 c4 50          	add    $0x50,%rsp
   14000479c:	5b                   	pop    %rbx
   14000479d:	5e                   	pop    %rsi
   14000479e:	5f                   	pop    %rdi
   14000479f:	c3                   	ret
   1400047a0:	48 89 f1             	mov    %rsi,%rcx
   1400047a3:	e8 10 3f 00 00       	call   1400086b8 <strlen>
   1400047a8:	29 f8                	sub    %edi,%eax
   1400047aa:	89 43 10             	mov    %eax,0x10(%rbx)
   1400047ad:	0f 89 12 ff ff ff    	jns    1400046c5 <__pformat_gfloat+0x75>
   1400047b3:	8b 53 0c             	mov    0xc(%rbx),%edx
   1400047b6:	85 d2                	test   %edx,%edx
   1400047b8:	0f 8e 07 ff ff ff    	jle    1400046c5 <__pformat_gfloat+0x75>
   1400047be:	01 d0                	add    %edx,%eax
   1400047c0:	89 43 0c             	mov    %eax,0xc(%rbx)
   1400047c3:	e9 fd fe ff ff       	jmp    1400046c5 <__pformat_gfloat+0x75>
   1400047c8:	0f 1f 84 00 00 00 00 	nopl   0x0(%rax,%rax,1)
   1400047cf:	00 

00000001400047d0 <__pformat_emit_xfloat.isra.0>:
   1400047d0:	41 55                	push   %r13
   1400047d2:	41 54                	push   %r12
   1400047d4:	55                   	push   %rbp
   1400047d5:	57                   	push   %rdi
   1400047d6:	56                   	push   %rsi
   1400047d7:	53                   	push   %rbx
   1400047d8:	48 83 ec 58          	sub    $0x58,%rsp
   1400047dc:	45 8b 50 10          	mov    0x10(%r8),%r10d
   1400047e0:	49 89 c9             	mov    %rcx,%r9
   1400047e3:	4c 89 c3             	mov    %r8,%rbx
   1400047e6:	66 85 d2             	test   %dx,%dx
   1400047e9:	75 09                	jne    1400047f4 <__pformat_emit_xfloat.isra.0+0x24>
   1400047eb:	48 85 c9             	test   %rcx,%rcx
   1400047ee:	0f 84 a4 00 00 00    	je     140004898 <__pformat_emit_xfloat.isra.0+0xc8>
   1400047f4:	44 8d 42 fd          	lea    -0x3(%rdx),%r8d
   1400047f8:	41 83 fa 0e          	cmp    $0xe,%r10d
   1400047fc:	0f 86 a3 00 00 00    	jbe    1400048a5 <__pformat_emit_xfloat.isra.0+0xd5>
   140004802:	49 0f bf e8          	movswq %r8w,%rbp
   140004806:	ba 10 00 00 00       	mov    $0x10,%edx
   14000480b:	4d 85 c9             	test   %r9,%r9
   14000480e:	0f 84 ec 03 00 00    	je     140004c00 <__pformat_emit_xfloat.isra.0+0x430>
   140004814:	8b 4b 08             	mov    0x8(%rbx),%ecx
   140004817:	48 8d 7c 24 30       	lea    0x30(%rsp),%rdi
   14000481c:	48 89 fe             	mov    %rdi,%rsi
   14000481f:	41 89 cb             	mov    %ecx,%r11d
   140004822:	41 89 cc             	mov    %ecx,%r12d
   140004825:	41 83 e3 20          	and    $0x20,%r11d
   140004829:	41 81 e4 00 08 00 00 	and    $0x800,%r12d
   140004830:	eb 2d                	jmp    14000485f <__pformat_emit_xfloat.isra.0+0x8f>
   140004832:	66 0f 1f 44 00 00    	nopw   0x0(%rax,%rax,1)
   140004838:	4c 39 d7             	cmp    %r10,%rdi
   14000483b:	72 0b                	jb     140004848 <__pformat_emit_xfloat.isra.0+0x78>
   14000483d:	8b 73 10             	mov    0x10(%rbx),%esi
   140004840:	85 f6                	test   %esi,%esi
   140004842:	0f 88 68 03 00 00    	js     140004bb0 <__pformat_emit_xfloat.isra.0+0x3e0>
   140004848:	83 c0 30             	add    $0x30,%eax
   14000484b:	41 88 02             	mov    %al,(%r10)
   14000484e:	49 8d 72 01          	lea    0x1(%r10),%rsi
   140004852:	49 c1 e9 04          	shr    $0x4,%r9
   140004856:	83 ea 01             	sub    $0x1,%edx
   140004859:	0f 84 e1 01 00 00    	je     140004a40 <__pformat_emit_xfloat.isra.0+0x270>
   14000485f:	44 89 c8             	mov    %r9d,%eax
   140004862:	83 e0 0f             	and    $0xf,%eax
   140004865:	83 fa 01             	cmp    $0x1,%edx
   140004868:	0f 84 92 01 00 00    	je     140004a00 <__pformat_emit_xfloat.isra.0+0x230>
   14000486e:	44 8b 53 10          	mov    0x10(%rbx),%r10d
   140004872:	45 85 d2             	test   %r10d,%r10d
   140004875:	7e 08                	jle    14000487f <__pformat_emit_xfloat.isra.0+0xaf>
   140004877:	41 83 ea 01          	sub    $0x1,%r10d
   14000487b:	44 89 53 10          	mov    %r10d,0x10(%rbx)
   14000487f:	49 89 f2             	mov    %rsi,%r10
   140004882:	85 c0                	test   %eax,%eax
   140004884:	74 b2                	je     140004838 <__pformat_emit_xfloat.isra.0+0x68>
   140004886:	83 f8 09             	cmp    $0x9,%eax
   140004889:	76 bd                	jbe    140004848 <__pformat_emit_xfloat.isra.0+0x78>
   14000488b:	83 c0 37             	add    $0x37,%eax
   14000488e:	44 09 d8             	or     %r11d,%eax
   140004891:	eb b8                	jmp    14000484b <__pformat_emit_xfloat.isra.0+0x7b>
   140004893:	0f 1f 44 00 00       	nopl   0x0(%rax,%rax,1)
   140004898:	41 83 fa 0e          	cmp    $0xe,%r10d
   14000489c:	0f 87 46 03 00 00    	ja     140004be8 <__pformat_emit_xfloat.isra.0+0x418>
   1400048a2:	45 31 c0             	xor    %r8d,%r8d
   1400048a5:	b9 0e 00 00 00       	mov    $0xe,%ecx
   1400048aa:	b8 04 00 00 00       	mov    $0x4,%eax
   1400048af:	49 d1 e9             	shr    %r9
   1400048b2:	44 29 d1             	sub    %r10d,%ecx
   1400048b5:	c1 e1 02             	shl    $0x2,%ecx
   1400048b8:	48 d3 e0             	shl    %cl,%rax
   1400048bb:	b9 0f 00 00 00       	mov    $0xf,%ecx
   1400048c0:	44 29 d1             	sub    %r10d,%ecx
   1400048c3:	c1 e1 02             	shl    $0x2,%ecx
   1400048c6:	4c 01 c8             	add    %r9,%rax
   1400048c9:	0f 88 11 01 00 00    	js     1400049e0 <__pformat_emit_xfloat.isra.0+0x210>
   1400048cf:	48 01 c0             	add    %rax,%rax
   1400048d2:	48 d3 e8             	shr    %cl,%rax
   1400048d5:	49 89 c1             	mov    %rax,%r9
   1400048d8:	48 85 c0             	test   %rax,%rax
   1400048db:	0f 85 0d 01 00 00    	jne    1400049ee <__pformat_emit_xfloat.isra.0+0x21e>
   1400048e1:	45 85 d2             	test   %r10d,%r10d
   1400048e4:	0f 85 04 01 00 00    	jne    1400049ee <__pformat_emit_xfloat.isra.0+0x21e>
   1400048ea:	8b 4b 08             	mov    0x8(%rbx),%ecx
   1400048ed:	49 0f bf e8          	movswq %r8w,%rbp
   1400048f1:	48 8d 7c 24 30       	lea    0x30(%rsp),%rdi
   1400048f6:	48 89 f8             	mov    %rdi,%rax
   1400048f9:	f6 c5 08             	test   $0x8,%ch
   1400048fc:	74 0a                	je     140004908 <__pformat_emit_xfloat.isra.0+0x138>
   1400048fe:	c6 44 24 30 2e       	movb   $0x2e,0x30(%rsp)
   140004903:	48 8d 44 24 31       	lea    0x31(%rsp),%rax
   140004908:	44 8b 53 0c          	mov    0xc(%rbx),%r10d
   14000490c:	c6 00 30             	movb   $0x30,(%rax)
   14000490f:	48 8d 70 01          	lea    0x1(%rax),%rsi
   140004913:	41 bc 02 00 00 00    	mov    $0x2,%r12d
   140004919:	45 85 d2             	test   %r10d,%r10d
   14000491c:	0f 8f 3a 01 00 00    	jg     140004a5c <__pformat_emit_xfloat.isra.0+0x28c>
   140004922:	f6 c1 80             	test   $0x80,%cl
   140004925:	0f 85 f5 01 00 00    	jne    140004b20 <__pformat_emit_xfloat.isra.0+0x350>
   14000492b:	f6 c5 01             	test   $0x1,%ch
   14000492e:	0f 85 9c 02 00 00    	jne    140004bd0 <__pformat_emit_xfloat.isra.0+0x400>
   140004934:	83 e1 40             	and    $0x40,%ecx
   140004937:	0f 85 e3 02 00 00    	jne    140004c20 <__pformat_emit_xfloat.isra.0+0x450>
   14000493d:	48 89 da             	mov    %rbx,%rdx
   140004940:	b9 30 00 00 00       	mov    $0x30,%ecx
   140004945:	e8 16 e9 ff ff       	call   140003260 <__pformat_putc>
   14000494a:	8b 4b 08             	mov    0x8(%rbx),%ecx
   14000494d:	48 89 da             	mov    %rbx,%rdx
   140004950:	83 e1 20             	and    $0x20,%ecx
   140004953:	83 c9 58             	or     $0x58,%ecx
   140004956:	e8 05 e9 ff ff       	call   140003260 <__pformat_putc>
   14000495b:	8b 43 0c             	mov    0xc(%rbx),%eax
   14000495e:	85 c0                	test   %eax,%eax
   140004960:	7e 28                	jle    14000498a <__pformat_emit_xfloat.isra.0+0x1ba>
   140004962:	f6 43 09 02          	testb  $0x2,0x9(%rbx)
   140004966:	74 22                	je     14000498a <__pformat_emit_xfloat.isra.0+0x1ba>
   140004968:	83 e8 01             	sub    $0x1,%eax
   14000496b:	89 43 0c             	mov    %eax,0xc(%rbx)
   14000496e:	66 90                	xchg   %ax,%ax
   140004970:	48 89 da             	mov    %rbx,%rdx
   140004973:	b9 30 00 00 00       	mov    $0x30,%ecx
   140004978:	e8 e3 e8 ff ff       	call   140003260 <__pformat_putc>
   14000497d:	8b 43 0c             	mov    0xc(%rbx),%eax
   140004980:	8d 50 ff             	lea    -0x1(%rax),%edx
   140004983:	89 53 0c             	mov    %edx,0xc(%rbx)
   140004986:	85 c0                	test   %eax,%eax
   140004988:	7f e6                	jg     140004970 <__pformat_emit_xfloat.isra.0+0x1a0>
   14000498a:	4c 8d 6c 24 2e       	lea    0x2e(%rsp),%r13
   14000498f:	48 39 f7             	cmp    %rsi,%rdi
   140004992:	72 27                	jb     1400049bb <__pformat_emit_xfloat.isra.0+0x1eb>
   140004994:	e9 ac 01 00 00       	jmp    140004b45 <__pformat_emit_xfloat.isra.0+0x375>
   140004999:	0f 1f 80 00 00 00 00 	nopl   0x0(%rax)
   1400049a0:	0f b7 43 20          	movzwl 0x20(%rbx),%eax
   1400049a4:	66 89 44 24 2e       	mov    %ax,0x2e(%rsp)
   1400049a9:	66 85 c0             	test   %ax,%ax
   1400049ac:	0f 85 e6 01 00 00    	jne    140004b98 <__pformat_emit_xfloat.isra.0+0x3c8>
   1400049b2:	48 39 fe             	cmp    %rdi,%rsi
   1400049b5:	0f 84 8a 01 00 00    	je     140004b45 <__pformat_emit_xfloat.isra.0+0x375>
   1400049bb:	0f be 4e ff          	movsbl -0x1(%rsi),%ecx
   1400049bf:	48 83 ee 01          	sub    $0x1,%rsi
   1400049c3:	83 f9 2e             	cmp    $0x2e,%ecx
   1400049c6:	0f 84 bc 01 00 00    	je     140004b88 <__pformat_emit_xfloat.isra.0+0x3b8>
   1400049cc:	83 f9 2c             	cmp    $0x2c,%ecx
   1400049cf:	74 cf                	je     1400049a0 <__pformat_emit_xfloat.isra.0+0x1d0>
   1400049d1:	48 89 da             	mov    %rbx,%rdx
   1400049d4:	e8 87 e8 ff ff       	call   140003260 <__pformat_putc>
   1400049d9:	eb d7                	jmp    1400049b2 <__pformat_emit_xfloat.isra.0+0x1e2>
   1400049db:	0f 1f 44 00 00       	nopl   0x0(%rax,%rax,1)
   1400049e0:	48 c1 e8 03          	shr    $0x3,%rax
   1400049e4:	41 83 c0 04          	add    $0x4,%r8d
   1400049e8:	48 d3 e8             	shr    %cl,%rax
   1400049eb:	49 89 c1             	mov    %rax,%r9
   1400049ee:	41 8d 52 01          	lea    0x1(%r10),%edx
   1400049f2:	49 0f bf e8          	movswq %r8w,%rbp
   1400049f6:	e9 19 fe ff ff       	jmp    140004814 <__pformat_emit_xfloat.isra.0+0x44>
   1400049fb:	0f 1f 44 00 00       	nopl   0x0(%rax,%rax,1)
   140004a00:	48 39 f7             	cmp    %rsi,%rdi
   140004a03:	72 13                	jb     140004a18 <__pformat_emit_xfloat.isra.0+0x248>
   140004a05:	45 85 e4             	test   %r12d,%r12d
   140004a08:	75 0e                	jne    140004a18 <__pformat_emit_xfloat.isra.0+0x248>
   140004a0a:	44 8b 53 10          	mov    0x10(%rbx),%r10d
   140004a0e:	45 85 d2             	test   %r10d,%r10d
   140004a11:	7e 15                	jle    140004a28 <__pformat_emit_xfloat.isra.0+0x258>
   140004a13:	0f 1f 44 00 00       	nopl   0x0(%rax,%rax,1)
   140004a18:	c6 06 2e             	movb   $0x2e,(%rsi)
   140004a1b:	4c 8d 56 01          	lea    0x1(%rsi),%r10
   140004a1f:	e9 5e fe ff ff       	jmp    140004882 <__pformat_emit_xfloat.isra.0+0xb2>
   140004a24:	0f 1f 40 00          	nopl   0x0(%rax)
   140004a28:	85 c0                	test   %eax,%eax
   140004a2a:	0f 85 20 02 00 00    	jne    140004c50 <__pformat_emit_xfloat.isra.0+0x480>
   140004a30:	45 85 d2             	test   %r10d,%r10d
   140004a33:	75 0b                	jne    140004a40 <__pformat_emit_xfloat.isra.0+0x270>
   140004a35:	c6 06 30             	movb   $0x30,(%rsi)
   140004a38:	48 83 c6 01          	add    $0x1,%rsi
   140004a3c:	0f 1f 40 00          	nopl   0x0(%rax)
   140004a40:	48 39 fe             	cmp    %rdi,%rsi
   140004a43:	0f 84 ef 01 00 00    	je     140004c38 <__pformat_emit_xfloat.isra.0+0x468>
   140004a49:	44 8b 53 0c          	mov    0xc(%rbx),%r10d
   140004a4d:	41 bc 02 00 00 00    	mov    $0x2,%r12d
   140004a53:	45 85 d2             	test   %r10d,%r10d
   140004a56:	0f 8e c6 fe ff ff    	jle    140004922 <__pformat_emit_xfloat.isra.0+0x152>
   140004a5c:	8b 53 10             	mov    0x10(%rbx),%edx
   140004a5f:	49 89 f1             	mov    %rsi,%r9
   140004a62:	41 0f bf c0          	movswl %r8w,%eax
   140004a66:	49 29 f9             	sub    %rdi,%r9
   140004a69:	46 8d 1c 0a          	lea    (%rdx,%r9,1),%r11d
   140004a6d:	85 d2                	test   %edx,%edx
   140004a6f:	89 ca                	mov    %ecx,%edx
   140004a71:	45 0f 4f cb          	cmovg  %r11d,%r9d
   140004a75:	81 e2 c0 01 00 00    	and    $0x1c0,%edx
   140004a7b:	83 fa 01             	cmp    $0x1,%edx
   140004a7e:	49 0f bf d0          	movswq %r8w,%rdx
   140004a82:	41 83 d9 fa          	sbb    $0xfffffffa,%r9d
   140004a86:	48 69 d2 67 66 66 66 	imul   $0x66666667,%rdx,%rdx
   140004a8d:	c1 f8 1f             	sar    $0x1f,%eax
   140004a90:	45 89 cb             	mov    %r9d,%r11d
   140004a93:	48 c1 fa 22          	sar    $0x22,%rdx
   140004a97:	29 c2                	sub    %eax,%edx
   140004a99:	74 2e                	je     140004ac9 <__pformat_emit_xfloat.isra.0+0x2f9>
   140004a9b:	0f 1f 44 00 00       	nopl   0x0(%rax,%rax,1)
   140004aa0:	48 63 c2             	movslq %edx,%rax
   140004aa3:	c1 fa 1f             	sar    $0x1f,%edx
   140004aa6:	41 83 c3 01          	add    $0x1,%r11d
   140004aaa:	48 69 c0 67 66 66 66 	imul   $0x66666667,%rax,%rax
   140004ab1:	48 c1 f8 22          	sar    $0x22,%rax
   140004ab5:	29 d0                	sub    %edx,%eax
   140004ab7:	89 c2                	mov    %eax,%edx
   140004ab9:	75 e5                	jne    140004aa0 <__pformat_emit_xfloat.isra.0+0x2d0>
   140004abb:	45 89 dc             	mov    %r11d,%r12d
   140004abe:	45 29 cc             	sub    %r9d,%r12d
   140004ac1:	41 83 c4 02          	add    $0x2,%r12d
   140004ac5:	45 0f bf e4          	movswl %r12w,%r12d
   140004ac9:	45 39 da             	cmp    %r11d,%r10d
   140004acc:	0f 8e ee 00 00 00    	jle    140004bc0 <__pformat_emit_xfloat.isra.0+0x3f0>
   140004ad2:	45 29 da             	sub    %r11d,%r10d
   140004ad5:	f6 c5 06             	test   $0x6,%ch
   140004ad8:	0f 85 e8 00 00 00    	jne    140004bc6 <__pformat_emit_xfloat.isra.0+0x3f6>
   140004ade:	41 83 ea 01          	sub    $0x1,%r10d
   140004ae2:	44 89 53 0c          	mov    %r10d,0xc(%rbx)
   140004ae6:	66 2e 0f 1f 84 00 00 	cs nopw 0x0(%rax,%rax,1)
   140004aed:	00 00 00 
   140004af0:	48 89 da             	mov    %rbx,%rdx
   140004af3:	b9 20 00 00 00       	mov    $0x20,%ecx
   140004af8:	e8 63 e7 ff ff       	call   140003260 <__pformat_putc>
   140004afd:	8b 43 0c             	mov    0xc(%rbx),%eax
   140004b00:	8d 50 ff             	lea    -0x1(%rax),%edx
   140004b03:	89 53 0c             	mov    %edx,0xc(%rbx)
   140004b06:	85 c0                	test   %eax,%eax
   140004b08:	7f e6                	jg     140004af0 <__pformat_emit_xfloat.isra.0+0x320>
   140004b0a:	8b 4b 08             	mov    0x8(%rbx),%ecx
   140004b0d:	f6 c1 80             	test   $0x80,%cl
   140004b10:	0f 84 15 fe ff ff    	je     14000492b <__pformat_emit_xfloat.isra.0+0x15b>
   140004b16:	66 2e 0f 1f 84 00 00 	cs nopw 0x0(%rax,%rax,1)
   140004b1d:	00 00 00 
   140004b20:	48 89 da             	mov    %rbx,%rdx
   140004b23:	b9 2d 00 00 00       	mov    $0x2d,%ecx
   140004b28:	e8 33 e7 ff ff       	call   140003260 <__pformat_putc>
   140004b2d:	e9 0b fe ff ff       	jmp    14000493d <__pformat_emit_xfloat.isra.0+0x16d>
   140004b32:	66 0f 1f 44 00 00    	nopw   0x0(%rax,%rax,1)
   140004b38:	48 89 da             	mov    %rbx,%rdx
   140004b3b:	b9 30 00 00 00       	mov    $0x30,%ecx
   140004b40:	e8 1b e7 ff ff       	call   140003260 <__pformat_putc>
   140004b45:	8b 43 10             	mov    0x10(%rbx),%eax
   140004b48:	8d 50 ff             	lea    -0x1(%rax),%edx
   140004b4b:	89 53 10             	mov    %edx,0x10(%rbx)
   140004b4e:	85 c0                	test   %eax,%eax
   140004b50:	7f e6                	jg     140004b38 <__pformat_emit_xfloat.isra.0+0x368>
   140004b52:	8b 4b 08             	mov    0x8(%rbx),%ecx
   140004b55:	48 89 da             	mov    %rbx,%rdx
   140004b58:	83 e1 20             	and    $0x20,%ecx
   140004b5b:	83 c9 50             	or     $0x50,%ecx
   140004b5e:	e8 fd e6 ff ff       	call   140003260 <__pformat_putc>
   140004b63:	44 01 63 0c          	add    %r12d,0xc(%rbx)
   140004b67:	48 89 da             	mov    %rbx,%rdx
   140004b6a:	48 89 e9             	mov    %rbp,%rcx
   140004b6d:	81 4b 08 c0 01 00 00 	orl    $0x1c0,0x8(%rbx)
   140004b74:	48 83 c4 58          	add    $0x58,%rsp
   140004b78:	5b                   	pop    %rbx
   140004b79:	5e                   	pop    %rsi
   140004b7a:	5f                   	pop    %rdi
   140004b7b:	5d                   	pop    %rbp
   140004b7c:	41 5c                	pop    %r12
   140004b7e:	41 5d                	pop    %r13
   140004b80:	e9 bb ef ff ff       	jmp    140003b40 <__pformat_int.isra.0>
   140004b85:	0f 1f 00             	nopl   (%rax)
   140004b88:	48 89 d9             	mov    %rbx,%rcx
   140004b8b:	e8 40 f3 ff ff       	call   140003ed0 <__pformat_emit_radix_point>
   140004b90:	e9 1d fe ff ff       	jmp    1400049b2 <__pformat_emit_xfloat.isra.0+0x1e2>
   140004b95:	0f 1f 00             	nopl   (%rax)
   140004b98:	49 89 d8             	mov    %rbx,%r8
   140004b9b:	ba 01 00 00 00       	mov    $0x1,%edx
   140004ba0:	4c 89 e9             	mov    %r13,%rcx
   140004ba3:	e8 18 e7 ff ff       	call   1400032c0 <__pformat_wputchars>
   140004ba8:	e9 05 fe ff ff       	jmp    1400049b2 <__pformat_emit_xfloat.isra.0+0x1e2>
   140004bad:	0f 1f 00             	nopl   (%rax)
   140004bb0:	4c 89 d6             	mov    %r10,%rsi
   140004bb3:	e9 9a fc ff ff       	jmp    140004852 <__pformat_emit_xfloat.isra.0+0x82>
   140004bb8:	0f 1f 84 00 00 00 00 	nopl   0x0(%rax,%rax,1)
   140004bbf:	00 
   140004bc0:	41 ba ff ff ff ff    	mov    $0xffffffff,%r10d
   140004bc6:	44 89 53 0c          	mov    %r10d,0xc(%rbx)
   140004bca:	e9 53 fd ff ff       	jmp    140004922 <__pformat_emit_xfloat.isra.0+0x152>
   140004bcf:	90                   	nop
   140004bd0:	48 89 da             	mov    %rbx,%rdx
   140004bd3:	b9 2b 00 00 00       	mov    $0x2b,%ecx
   140004bd8:	e8 83 e6 ff ff       	call   140003260 <__pformat_putc>
   140004bdd:	e9 5b fd ff ff       	jmp    14000493d <__pformat_emit_xfloat.isra.0+0x16d>
   140004be2:	66 0f 1f 44 00 00    	nopw   0x0(%rax,%rax,1)
   140004be8:	45 85 d2             	test   %r10d,%r10d
   140004beb:	7e 6b                	jle    140004c58 <__pformat_emit_xfloat.isra.0+0x488>
   140004bed:	31 ed                	xor    %ebp,%ebp
   140004bef:	45 31 c0             	xor    %r8d,%r8d
   140004bf2:	ba 10 00 00 00       	mov    $0x10,%edx
   140004bf7:	45 31 c9             	xor    %r9d,%r9d
   140004bfa:	e9 15 fc ff ff       	jmp    140004814 <__pformat_emit_xfloat.isra.0+0x44>
   140004bff:	90                   	nop
   140004c00:	45 85 d2             	test   %r10d,%r10d
   140004c03:	0f 8f 0b fc ff ff    	jg     140004814 <__pformat_emit_xfloat.isra.0+0x44>
   140004c09:	8b 4b 08             	mov    0x8(%rbx),%ecx
   140004c0c:	48 8d 7c 24 30       	lea    0x30(%rsp),%rdi
   140004c11:	e9 e0 fc ff ff       	jmp    1400048f6 <__pformat_emit_xfloat.isra.0+0x126>
   140004c16:	66 2e 0f 1f 84 00 00 	cs nopw 0x0(%rax,%rax,1)
   140004c1d:	00 00 00 
   140004c20:	48 89 da             	mov    %rbx,%rdx
   140004c23:	b9 20 00 00 00       	mov    $0x20,%ecx
   140004c28:	e8 33 e6 ff ff       	call   140003260 <__pformat_putc>
   140004c2d:	e9 0b fd ff ff       	jmp    14000493d <__pformat_emit_xfloat.isra.0+0x16d>
   140004c32:	66 0f 1f 44 00 00    	nopw   0x0(%rax,%rax,1)
   140004c38:	8b 43 10             	mov    0x10(%rbx),%eax
   140004c3b:	85 c0                	test   %eax,%eax
   140004c3d:	0f 8f bb fc ff ff    	jg     1400048fe <__pformat_emit_xfloat.isra.0+0x12e>
   140004c43:	e9 ae fc ff ff       	jmp    1400048f6 <__pformat_emit_xfloat.isra.0+0x126>
   140004c48:	0f 1f 84 00 00 00 00 	nopl   0x0(%rax,%rax,1)
   140004c4f:	00 
   140004c50:	49 89 f2             	mov    %rsi,%r10
   140004c53:	e9 2e fc ff ff       	jmp    140004886 <__pformat_emit_xfloat.isra.0+0xb6>
   140004c58:	41 8b 48 08          	mov    0x8(%r8),%ecx
   140004c5c:	31 ed                	xor    %ebp,%ebp
   140004c5e:	45 31 c0             	xor    %r8d,%r8d
   140004c61:	48 8d 7c 24 30       	lea    0x30(%rsp),%rdi
   140004c66:	e9 8b fc ff ff       	jmp    1400048f6 <__pformat_emit_xfloat.isra.0+0x126>
   140004c6b:	0f 1f 44 00 00       	nopl   0x0(%rax,%rax,1)

0000000140004c70 <__mingw_pformat>:
   140004c70:	41 57                	push   %r15
   140004c72:	41 56                	push   %r14
   140004c74:	41 55                	push   %r13
   140004c76:	41 54                	push   %r12
   140004c78:	55                   	push   %rbp
   140004c79:	57                   	push   %rdi
   140004c7a:	56                   	push   %rsi
   140004c7b:	53                   	push   %rbx
   140004c7c:	48 81 ec a8 00 00 00 	sub    $0xa8,%rsp
   140004c83:	4c 8b ac 24 10 01 00 	mov    0x110(%rsp),%r13
   140004c8a:	00 
   140004c8b:	89 cf                	mov    %ecx,%edi
   140004c8d:	48 89 d5             	mov    %rdx,%rbp
   140004c90:	44 89 c3             	mov    %r8d,%ebx
   140004c93:	4c 89 ce             	mov    %r9,%rsi
   140004c96:	e8 8d 39 00 00       	call   140008628 <_errno>
   140004c9b:	0f be 0e             	movsbl (%rsi),%ecx
   140004c9e:	81 e7 00 60 00 00    	and    $0x6000,%edi
   140004ca4:	31 d2                	xor    %edx,%edx
   140004ca6:	8b 00                	mov    (%rax),%eax
   140004ca8:	89 9c 24 98 00 00 00 	mov    %ebx,0x98(%rsp)
   140004caf:	48 8d 5e 01          	lea    0x1(%rsi),%rbx
   140004cb3:	48 89 6c 24 70       	mov    %rbp,0x70(%rsp)
   140004cb8:	89 44 24 30          	mov    %eax,0x30(%rsp)
   140004cbc:	48 b8 ff ff ff ff fd 	movabs $0xfffffffdffffffff,%rax
   140004cc3:	ff ff ff 
   140004cc6:	48 89 84 24 80 00 00 	mov    %rax,0x80(%rsp)
   140004ccd:	00 
   140004cce:	31 c0                	xor    %eax,%eax
   140004cd0:	66 89 84 24 88 00 00 	mov    %ax,0x88(%rsp)
   140004cd7:	00 
   140004cd8:	89 c8                	mov    %ecx,%eax
   140004cda:	89 7c 24 78          	mov    %edi,0x78(%rsp)
   140004cde:	c7 44 24 7c ff ff ff 	movl   $0xffffffff,0x7c(%rsp)
   140004ce5:	ff 
   140004ce6:	c7 84 24 8c 00 00 00 	movl   $0x0,0x8c(%rsp)
   140004ced:	00 00 00 00 
   140004cf1:	66 89 94 24 90 00 00 	mov    %dx,0x90(%rsp)
   140004cf8:	00 
   140004cf9:	c7 84 24 94 00 00 00 	movl   $0x0,0x94(%rsp)
   140004d00:	00 00 00 00 
   140004d04:	c7 84 24 9c 00 00 00 	movl   $0xffffffff,0x9c(%rsp)
   140004d0b:	ff ff ff ff 
   140004d0f:	85 c9                	test   %ecx,%ecx
   140004d11:	0f 84 10 01 00 00    	je     140004e27 <__mingw_pformat+0x1b7>
   140004d17:	4c 8d 7c 24 7c       	lea    0x7c(%rsp),%r15
   140004d1c:	4c 8d 25 8d 57 00 00 	lea    0x578d(%rip),%r12        # 14000a4b0 <.rdata+0x20>
   140004d23:	eb 49                	jmp    140004d6e <__mingw_pformat+0xfe>
   140004d25:	0f 1f 00             	nopl   (%rax)
   140004d28:	8b 54 24 78          	mov    0x78(%rsp),%edx
   140004d2c:	8b b4 24 94 00 00 00 	mov    0x94(%rsp),%esi
   140004d33:	f6 c6 40             	test   $0x40,%dh
   140004d36:	75 09                	jne    140004d41 <__mingw_pformat+0xd1>
   140004d38:	39 b4 24 98 00 00 00 	cmp    %esi,0x98(%rsp)
   140004d3f:	7e 11                	jle    140004d52 <__mingw_pformat+0xe2>
   140004d41:	4c 8b 44 24 70       	mov    0x70(%rsp),%r8
   140004d46:	80 e6 20             	and    $0x20,%dh
   140004d49:	75 6d                	jne    140004db8 <__mingw_pformat+0x148>
   140004d4b:	48 63 d6             	movslq %esi,%rdx
   140004d4e:	41 88 04 10          	mov    %al,(%r8,%rdx,1)
   140004d52:	83 c6 01             	add    $0x1,%esi
   140004d55:	89 b4 24 94 00 00 00 	mov    %esi,0x94(%rsp)
   140004d5c:	0f b6 03             	movzbl (%rbx),%eax
   140004d5f:	48 83 c3 01          	add    $0x1,%rbx
   140004d63:	0f be c8             	movsbl %al,%ecx
   140004d66:	85 c9                	test   %ecx,%ecx
   140004d68:	0f 84 b2 00 00 00    	je     140004e20 <__mingw_pformat+0x1b0>
   140004d6e:	83 f9 25             	cmp    $0x25,%ecx
   140004d71:	75 b5                	jne    140004d28 <__mingw_pformat+0xb8>
   140004d73:	0f b6 03             	movzbl (%rbx),%eax
   140004d76:	89 7c 24 78          	mov    %edi,0x78(%rsp)
   140004d7a:	48 c7 44 24 7c ff ff 	movq   $0xffffffffffffffff,0x7c(%rsp)
   140004d81:	ff ff 
   140004d83:	84 c0                	test   %al,%al
   140004d85:	0f 84 95 00 00 00    	je     140004e20 <__mingw_pformat+0x1b0>
   140004d8b:	48 89 de             	mov    %rbx,%rsi
   140004d8e:	4d 89 fb             	mov    %r15,%r11
   140004d91:	45 31 d2             	xor    %r10d,%r10d
   140004d94:	45 31 f6             	xor    %r14d,%r14d
   140004d97:	8d 50 e0             	lea    -0x20(%rax),%edx
   140004d9a:	48 8d 6e 01          	lea    0x1(%rsi),%rbp
   140004d9e:	0f be c8             	movsbl %al,%ecx
   140004da1:	80 fa 5a             	cmp    $0x5a,%dl
   140004da4:	77 22                	ja     140004dc8 <__mingw_pformat+0x158>
   140004da6:	0f b6 d2             	movzbl %dl,%edx
   140004da9:	49 63 14 94          	movslq (%r12,%rdx,4),%rdx
   140004dad:	4c 01 e2             	add    %r12,%rdx
   140004db0:	ff e2                	jmp    *%rdx
   140004db2:	66 0f 1f 44 00 00    	nopw   0x0(%rax,%rax,1)
   140004db8:	4c 89 c2             	mov    %r8,%rdx
   140004dbb:	e8 b0 38 00 00       	call   140008670 <fputc>
   140004dc0:	eb 90                	jmp    140004d52 <__mingw_pformat+0xe2>
   140004dc2:	66 0f 1f 44 00 00    	nopw   0x0(%rax,%rax,1)
   140004dc8:	83 e8 30             	sub    $0x30,%eax
   140004dcb:	3c 09                	cmp    $0x9,%al
   140004dcd:	0f 87 14 02 00 00    	ja     140004fe7 <__mingw_pformat+0x377>
   140004dd3:	41 83 fe 03          	cmp    $0x3,%r14d
   140004dd7:	0f 87 0a 02 00 00    	ja     140004fe7 <__mingw_pformat+0x377>
   140004ddd:	45 85 f6             	test   %r14d,%r14d
   140004de0:	0f 85 43 07 00 00    	jne    140005529 <__mingw_pformat+0x8b9>
   140004de6:	41 be 01 00 00 00    	mov    $0x1,%r14d
   140004dec:	4d 85 db             	test   %r11,%r11
   140004def:	74 1f                	je     140004e10 <__mingw_pformat+0x1a0>
   140004df1:	41 8b 03             	mov    (%r11),%eax
   140004df4:	85 c0                	test   %eax,%eax
   140004df6:	0f 88 e6 07 00 00    	js     1400055e2 <__mingw_pformat+0x972>
   140004dfc:	8d 04 80             	lea    (%rax,%rax,4),%eax
   140004dff:	8d 44 41 d0          	lea    -0x30(%rcx,%rax,2),%eax
   140004e03:	41 89 03             	mov    %eax,(%r11)
   140004e06:	66 2e 0f 1f 84 00 00 	cs nopw 0x0(%rax,%rax,1)
   140004e0d:	00 00 00 
   140004e10:	0f b6 46 01          	movzbl 0x1(%rsi),%eax
   140004e14:	48 89 ee             	mov    %rbp,%rsi
   140004e17:	84 c0                	test   %al,%al
   140004e19:	0f 85 78 ff ff ff    	jne    140004d97 <__mingw_pformat+0x127>
   140004e1f:	90                   	nop
   140004e20:	8b 8c 24 94 00 00 00 	mov    0x94(%rsp),%ecx
   140004e27:	89 c8                	mov    %ecx,%eax
   140004e29:	48 81 c4 a8 00 00 00 	add    $0xa8,%rsp
   140004e30:	5b                   	pop    %rbx
   140004e31:	5e                   	pop    %rsi
   140004e32:	5f                   	pop    %rdi
   140004e33:	5d                   	pop    %rbp
   140004e34:	41 5c                	pop    %r12
   140004e36:	41 5d                	pop    %r13
   140004e38:	41 5e                	pop    %r14
   140004e3a:	41 5f                	pop    %r15
   140004e3c:	c3                   	ret
   140004e3d:	0f 1f 00             	nopl   (%rax)
   140004e40:	81 64 24 78 ff fe ff 	andl   $0xfffffeff,0x78(%rsp)
   140004e47:	ff 
   140004e48:	41 83 fa 03          	cmp    $0x3,%r10d
   140004e4c:	0f 84 d0 07 00 00    	je     140005622 <__mingw_pformat+0x9b2>
   140004e52:	41 83 fa 02          	cmp    $0x2,%r10d
   140004e56:	0f 84 59 08 00 00    	je     1400056b5 <__mingw_pformat+0xa45>
   140004e5c:	41 8b 45 00          	mov    0x0(%r13),%eax
   140004e60:	41 83 fa 01          	cmp    $0x1,%r10d
   140004e64:	0f 84 68 07 00 00    	je     1400055d2 <__mingw_pformat+0x962>
   140004e6a:	89 c2                	mov    %eax,%edx
   140004e6c:	41 83 fa 05          	cmp    $0x5,%r10d
   140004e70:	0f b6 c0             	movzbl %al,%eax
   140004e73:	48 0f 45 c2          	cmovne %rdx,%rax
   140004e77:	48 89 44 24 60       	mov    %rax,0x60(%rsp)
   140004e7c:	83 f9 75             	cmp    $0x75,%ecx
   140004e7f:	0f 84 1e 08 00 00    	je     1400056a3 <__mingw_pformat+0xa33>
   140004e85:	4c 8d 44 24 70       	lea    0x70(%rsp),%r8
   140004e8a:	48 89 c2             	mov    %rax,%rdx
   140004e8d:	e8 fe e7 ff ff       	call   140003690 <__pformat_xint.isra.0>
   140004e92:	e9 a9 02 00 00       	jmp    140005140 <__mingw_pformat+0x4d0>
   140004e97:	66 0f 1f 84 00 00 00 	nopw   0x0(%rax,%rax,1)
   140004e9e:	00 00 
   140004ea0:	0f b6 46 01          	movzbl 0x1(%rsi),%eax
   140004ea4:	41 ba 03 00 00 00    	mov    $0x3,%r10d
   140004eaa:	48 89 ee             	mov    %rbp,%rsi
   140004ead:	41 be 04 00 00 00    	mov    $0x4,%r14d
   140004eb3:	e9 5f ff ff ff       	jmp    140004e17 <__mingw_pformat+0x1a7>
   140004eb8:	81 4c 24 78 80 00 00 	orl    $0x80,0x78(%rsp)
   140004ebf:	00 
   140004ec0:	49 8d 5d 08          	lea    0x8(%r13),%rbx
   140004ec4:	41 83 fa 03          	cmp    $0x3,%r10d
   140004ec8:	0f 84 4b 07 00 00    	je     140005619 <__mingw_pformat+0x9a9>
   140004ece:	49 63 4d 00          	movslq 0x0(%r13),%rcx
   140004ed2:	41 83 fa 02          	cmp    $0x2,%r10d
   140004ed6:	74 16                	je     140004eee <__mingw_pformat+0x27e>
   140004ed8:	41 83 fa 01          	cmp    $0x1,%r10d
   140004edc:	0f 84 e7 06 00 00    	je     1400055c9 <__mingw_pformat+0x959>
   140004ee2:	48 0f be c1          	movsbq %cl,%rax
   140004ee6:	41 83 fa 05          	cmp    $0x5,%r10d
   140004eea:	48 0f 44 c8          	cmove  %rax,%rcx
   140004eee:	48 8d 54 24 70       	lea    0x70(%rsp),%rdx
   140004ef3:	49 89 dd             	mov    %rbx,%r13
   140004ef6:	48 89 eb             	mov    %rbp,%rbx
   140004ef9:	e8 42 ec ff ff       	call   140003b40 <__pformat_int.isra.0>
   140004efe:	e9 59 fe ff ff       	jmp    140004d5c <__mingw_pformat+0xec>
   140004f03:	45 85 f6             	test   %r14d,%r14d
   140004f06:	75 0a                	jne    140004f12 <__mingw_pformat+0x2a2>
   140004f08:	39 7c 24 78          	cmp    %edi,0x78(%rsp)
   140004f0c:	0f 84 85 06 00 00    	je     140005597 <__mingw_pformat+0x927>
   140004f12:	49 8b 55 00          	mov    0x0(%r13),%rdx
   140004f16:	49 8d 5d 08          	lea    0x8(%r13),%rbx
   140004f1a:	4c 8d 44 24 70       	lea    0x70(%rsp),%r8
   140004f1f:	b9 78 00 00 00       	mov    $0x78,%ecx
   140004f24:	49 89 dd             	mov    %rbx,%r13
   140004f27:	48 89 eb             	mov    %rbp,%rbx
   140004f2a:	e8 61 e7 ff ff       	call   140003690 <__pformat_xint.isra.0>
   140004f2f:	e9 28 fe ff ff       	jmp    140004d5c <__mingw_pformat+0xec>
   140004f34:	0f b6 46 01          	movzbl 0x1(%rsi),%eax
   140004f38:	3c 68                	cmp    $0x68,%al
   140004f3a:	0f 84 31 07 00 00    	je     140005671 <__mingw_pformat+0xa01>
   140004f40:	48 89 ee             	mov    %rbp,%rsi
   140004f43:	41 ba 01 00 00 00    	mov    $0x1,%r10d
   140004f49:	41 be 04 00 00 00    	mov    $0x4,%r14d
   140004f4f:	e9 c3 fe ff ff       	jmp    140004e17 <__mingw_pformat+0x1a7>
   140004f54:	8b 4c 24 30          	mov    0x30(%rsp),%ecx
   140004f58:	48 89 eb             	mov    %rbp,%rbx
   140004f5b:	e8 50 37 00 00       	call   1400086b0 <strerror>
   140004f60:	48 8d 54 24 70       	lea    0x70(%rsp),%rdx
   140004f65:	48 89 c1             	mov    %rax,%rcx
   140004f68:	e8 33 e6 ff ff       	call   1400035a0 <__pformat_puts>
   140004f6d:	e9 ea fd ff ff       	jmp    140004d5c <__mingw_pformat+0xec>
   140004f72:	49 8b 55 00          	mov    0x0(%r13),%rdx
   140004f76:	48 63 84 24 94 00 00 	movslq 0x94(%rsp),%rax
   140004f7d:	00 
   140004f7e:	41 83 fa 05          	cmp    $0x5,%r10d
   140004f82:	0f 84 e2 06 00 00    	je     14000566a <__mingw_pformat+0x9fa>
   140004f88:	41 83 fa 01          	cmp    $0x1,%r10d
   140004f8c:	0f 84 2c 07 00 00    	je     1400056be <__mingw_pformat+0xa4e>
   140004f92:	41 83 fa 02          	cmp    $0x2,%r10d
   140004f96:	74 0a                	je     140004fa2 <__mingw_pformat+0x332>
   140004f98:	41 83 fa 03          	cmp    $0x3,%r10d
   140004f9c:	0f 84 38 06 00 00    	je     1400055da <__mingw_pformat+0x96a>
   140004fa2:	89 02                	mov    %eax,(%rdx)
   140004fa4:	e9 97 01 00 00       	jmp    140005140 <__mingw_pformat+0x4d0>
   140004fa9:	0f b6 46 01          	movzbl 0x1(%rsi),%eax
   140004fad:	3c 6c                	cmp    $0x6c,%al
   140004faf:	0f 84 d5 06 00 00    	je     14000568a <__mingw_pformat+0xa1a>
   140004fb5:	48 89 ee             	mov    %rbp,%rsi
   140004fb8:	41 ba 02 00 00 00    	mov    $0x2,%r10d
   140004fbe:	41 be 04 00 00 00    	mov    $0x4,%r14d
   140004fc4:	e9 4e fe ff ff       	jmp    140004e17 <__mingw_pformat+0x1a7>
   140004fc9:	0f b6 46 01          	movzbl 0x1(%rsi),%eax
   140004fcd:	3c 36                	cmp    $0x36,%al
   140004fcf:	0f 84 72 06 00 00    	je     140005647 <__mingw_pformat+0x9d7>
   140004fd5:	3c 33                	cmp    $0x33,%al
   140004fd7:	0f 85 9b 05 00 00    	jne    140005578 <__mingw_pformat+0x908>
   140004fdd:	80 7e 02 32          	cmpb   $0x32,0x2(%rsi)
   140004fe1:	0f 84 f5 06 00 00    	je     1400056dc <__mingw_pformat+0xa6c>
   140004fe7:	48 8d 54 24 70       	lea    0x70(%rsp),%rdx
   140004fec:	b9 25 00 00 00       	mov    $0x25,%ecx
   140004ff1:	e8 6a e2 ff ff       	call   140003260 <__pformat_putc>
   140004ff6:	e9 61 fd ff ff       	jmp    140004d5c <__mingw_pformat+0xec>
   140004ffb:	0f 1f 44 00 00       	nopl   0x0(%rax,%rax,1)
   140005000:	0f b6 46 01          	movzbl 0x1(%rsi),%eax
   140005004:	83 4c 24 78 04       	orl    $0x4,0x78(%rsp)
   140005009:	48 89 ee             	mov    %rbp,%rsi
   14000500c:	41 be 04 00 00 00    	mov    $0x4,%r14d
   140005012:	e9 00 fe ff ff       	jmp    140004e17 <__mingw_pformat+0x1a7>
   140005017:	8b 44 24 78          	mov    0x78(%rsp),%eax
   14000501b:	49 8b 4d 00          	mov    0x0(%r13),%rcx
   14000501f:	83 c8 20             	or     $0x20,%eax
   140005022:	89 44 24 78          	mov    %eax,0x78(%rsp)
   140005026:	a8 04                	test   $0x4,%al
   140005028:	0f 84 fa 01 00 00    	je     140005228 <__mingw_pformat+0x5b8>
   14000502e:	8b 59 08             	mov    0x8(%rcx),%ebx
   140005031:	48 8b 09             	mov    (%rcx),%rcx
   140005034:	49 89 c9             	mov    %rcx,%r9
   140005037:	44 0f bf d3          	movswl %bx,%r10d
   14000503b:	48 89 da             	mov    %rbx,%rdx
   14000503e:	49 c1 e9 20          	shr    $0x20,%r9
   140005042:	47 8d 1c 12          	lea    (%r10,%r10,1),%r11d
   140005046:	41 81 e1 ff ff ff 7f 	and    $0x7fffffff,%r9d
   14000504d:	45 0f b7 db          	movzwl %r11w,%r11d
   140005051:	41 09 c9             	or     %ecx,%r9d
   140005054:	45 89 c8             	mov    %r9d,%r8d
   140005057:	41 f7 d8             	neg    %r8d
   14000505a:	45 09 c8             	or     %r9d,%r8d
   14000505d:	41 c1 e8 1f          	shr    $0x1f,%r8d
   140005061:	45 09 d8             	or     %r11d,%r8d
   140005064:	41 bb fe ff 00 00    	mov    $0xfffe,%r11d
   14000506a:	45 29 c3             	sub    %r8d,%r11d
   14000506d:	41 c1 eb 10          	shr    $0x10,%r11d
   140005071:	0f 85 c4 04 00 00    	jne    14000553b <__mingw_pformat+0x8cb>
   140005077:	66 85 db             	test   %bx,%bx
   14000507a:	0f 88 0c 05 00 00    	js     14000558c <__mingw_pformat+0x91c>
   140005080:	66 81 e2 ff 7f       	and    $0x7fff,%dx
   140005085:	0f 84 dd 04 00 00    	je     140005568 <__mingw_pformat+0x8f8>
   14000508b:	66 81 fa ff 7f       	cmp    $0x7fff,%dx
   140005090:	75 09                	jne    14000509b <__mingw_pformat+0x42b>
   140005092:	45 85 c9             	test   %r9d,%r9d
   140005095:	0f 84 7d 06 00 00    	je     140005718 <__mingw_pformat+0xaa8>
   14000509b:	66 81 ea ff 3f       	sub    $0x3fff,%dx
   1400050a0:	e9 22 04 00 00       	jmp    1400054c7 <__mingw_pformat+0x857>
   1400050a5:	41 83 ea 02          	sub    $0x2,%r10d
   1400050a9:	41 8b 45 00          	mov    0x0(%r13),%eax
   1400050ad:	49 8d 5d 08          	lea    0x8(%r13),%rbx
   1400050b1:	c7 84 24 80 00 00 00 	movl   $0xffffffff,0x80(%rsp)
   1400050b8:	ff ff ff ff 
   1400050bc:	41 83 fa 01          	cmp    $0x1,%r10d
   1400050c0:	0f 86 09 02 00 00    	jbe    1400052cf <__mingw_pformat+0x65f>
   1400050c6:	48 8d 4c 24 60       	lea    0x60(%rsp),%rcx
   1400050cb:	4c 8d 44 24 70       	lea    0x70(%rsp),%r8
   1400050d0:	88 44 24 60          	mov    %al,0x60(%rsp)
   1400050d4:	49 89 dd             	mov    %rbx,%r13
   1400050d7:	ba 01 00 00 00       	mov    $0x1,%edx
   1400050dc:	48 89 eb             	mov    %rbp,%rbx
   1400050df:	e8 6c e3 ff ff       	call   140003450 <__pformat_putchars>
   1400050e4:	e9 73 fc ff ff       	jmp    140004d5c <__mingw_pformat+0xec>
   1400050e9:	41 83 ea 02          	sub    $0x2,%r10d
   1400050ed:	49 8b 4d 00          	mov    0x0(%r13),%rcx
   1400050f1:	49 8d 5d 08          	lea    0x8(%r13),%rbx
   1400050f5:	41 83 fa 01          	cmp    $0x1,%r10d
   1400050f9:	0f 86 db 03 00 00    	jbe    1400054da <__mingw_pformat+0x86a>
   1400050ff:	48 8d 54 24 70       	lea    0x70(%rsp),%rdx
   140005104:	e8 97 e4 ff ff       	call   1400035a0 <__pformat_puts>
   140005109:	49 89 dd             	mov    %rbx,%r13
   14000510c:	48 89 eb             	mov    %rbp,%rbx
   14000510f:	e9 48 fc ff ff       	jmp    140004d5c <__mingw_pformat+0xec>
   140005114:	8b 44 24 78          	mov    0x78(%rsp),%eax
   140005118:	49 8b 55 00          	mov    0x0(%r13),%rdx
   14000511c:	83 c8 20             	or     $0x20,%eax
   14000511f:	89 44 24 78          	mov    %eax,0x78(%rsp)
   140005123:	a8 04                	test   $0x4,%al
   140005125:	0f 84 3e 02 00 00    	je     140005369 <__mingw_pformat+0x6f9>
   14000512b:	db 2a                	fldt   (%rdx)
   14000512d:	48 8d 4c 24 40       	lea    0x40(%rsp),%rcx
   140005132:	48 8d 54 24 70       	lea    0x70(%rsp),%rdx
   140005137:	db 7c 24 40          	fstpt  0x40(%rsp)
   14000513b:	e8 10 f5 ff ff       	call   140004650 <__pformat_gfloat>
   140005140:	49 83 c5 08          	add    $0x8,%r13
   140005144:	48 89 eb             	mov    %rbp,%rbx
   140005147:	e9 10 fc ff ff       	jmp    140004d5c <__mingw_pformat+0xec>
   14000514c:	8b 44 24 78          	mov    0x78(%rsp),%eax
   140005150:	49 8b 55 00          	mov    0x0(%r13),%rdx
   140005154:	83 c8 20             	or     $0x20,%eax
   140005157:	89 44 24 78          	mov    %eax,0x78(%rsp)
   14000515b:	a8 04                	test   $0x4,%al
   14000515d:	0f 84 d5 01 00 00    	je     140005338 <__mingw_pformat+0x6c8>
   140005163:	db 2a                	fldt   (%rdx)
   140005165:	48 8d 4c 24 40       	lea    0x40(%rsp),%rcx
   14000516a:	48 8d 54 24 70       	lea    0x70(%rsp),%rdx
   14000516f:	db 7c 24 40          	fstpt  0x40(%rsp)
   140005173:	e8 f8 f3 ff ff       	call   140004570 <__pformat_float>
   140005178:	eb c6                	jmp    140005140 <__mingw_pformat+0x4d0>
   14000517a:	8b 44 24 78          	mov    0x78(%rsp),%eax
   14000517e:	49 8b 55 00          	mov    0x0(%r13),%rdx
   140005182:	83 c8 20             	or     $0x20,%eax
   140005185:	89 44 24 78          	mov    %eax,0x78(%rsp)
   140005189:	a8 04                	test   $0x4,%al
   14000518b:	0f 84 76 01 00 00    	je     140005307 <__mingw_pformat+0x697>
   140005191:	db 2a                	fldt   (%rdx)
   140005193:	48 8d 4c 24 40       	lea    0x40(%rsp),%rcx
   140005198:	48 8d 54 24 70       	lea    0x70(%rsp),%rdx
   14000519d:	db 7c 24 40          	fstpt  0x40(%rsp)
   1400051a1:	e8 2a f3 ff ff       	call   1400044d0 <__pformat_efloat>
   1400051a6:	eb 98                	jmp    140005140 <__mingw_pformat+0x4d0>
   1400051a8:	45 85 f6             	test   %r14d,%r14d
   1400051ab:	0f 85 5f fc ff ff    	jne    140004e10 <__mingw_pformat+0x1a0>
   1400051b1:	0f b6 46 01          	movzbl 0x1(%rsi),%eax
   1400051b5:	83 4c 24 78 40       	orl    $0x40,0x78(%rsp)
   1400051ba:	48 89 ee             	mov    %rbp,%rsi
   1400051bd:	e9 55 fc ff ff       	jmp    140004e17 <__mingw_pformat+0x1a7>
   1400051c2:	45 85 f6             	test   %r14d,%r14d
   1400051c5:	0f 85 45 fc ff ff    	jne    140004e10 <__mingw_pformat+0x1a0>
   1400051cb:	0f b6 46 01          	movzbl 0x1(%rsi),%eax
   1400051cf:	81 4c 24 78 00 04 00 	orl    $0x400,0x78(%rsp)
   1400051d6:	00 
   1400051d7:	48 89 ee             	mov    %rbp,%rsi
   1400051da:	e9 38 fc ff ff       	jmp    140004e17 <__mingw_pformat+0x1a7>
   1400051df:	41 83 fe 01          	cmp    $0x1,%r14d
   1400051e3:	0f 86 0b 04 00 00    	jbe    1400055f4 <__mingw_pformat+0x984>
   1400051e9:	0f b6 46 01          	movzbl 0x1(%rsi),%eax
   1400051ed:	41 be 04 00 00 00    	mov    $0x4,%r14d
   1400051f3:	48 89 ee             	mov    %rbp,%rsi
   1400051f6:	e9 1c fc ff ff       	jmp    140004e17 <__mingw_pformat+0x1a7>
   1400051fb:	45 85 f6             	test   %r14d,%r14d
   1400051fe:	0f 85 16 03 00 00    	jne    14000551a <__mingw_pformat+0x8aa>
   140005204:	0f b6 46 01          	movzbl 0x1(%rsi),%eax
   140005208:	81 4c 24 78 00 02 00 	orl    $0x200,0x78(%rsp)
   14000520f:	00 
   140005210:	48 89 ee             	mov    %rbp,%rsi
   140005213:	e9 ff fb ff ff       	jmp    140004e17 <__mingw_pformat+0x1a7>
   140005218:	8b 44 24 78          	mov    0x78(%rsp),%eax
   14000521c:	49 8b 4d 00          	mov    0x0(%r13),%rcx
   140005220:	a8 04                	test   $0x4,%al
   140005222:	0f 85 06 fe ff ff    	jne    14000502e <__mingw_pformat+0x3be>
   140005228:	49 89 c8             	mov    %rcx,%r8
   14000522b:	89 ca                	mov    %ecx,%edx
   14000522d:	49 c1 e8 20          	shr    $0x20,%r8
   140005231:	f7 da                	neg    %edx
   140005233:	45 89 c1             	mov    %r8d,%r9d
   140005236:	09 ca                	or     %ecx,%edx
   140005238:	41 81 e1 ff ff ff 7f 	and    $0x7fffffff,%r9d
   14000523f:	c1 ea 1f             	shr    $0x1f,%edx
   140005242:	44 09 ca             	or     %r9d,%edx
   140005245:	41 b9 00 00 f0 7f    	mov    $0x7ff00000,%r9d
   14000524b:	41 39 d1             	cmp    %edx,%r9d
   14000524e:	0f 88 e7 02 00 00    	js     14000553b <__mingw_pformat+0x8cb>
   140005254:	48 89 4c 24 20       	mov    %rcx,0x20(%rsp)
   140005259:	dd 44 24 20          	fldl   0x20(%rsp)
   14000525d:	db 7c 24 20          	fstpt  0x20(%rsp)
   140005261:	48 8b 54 24 28       	mov    0x28(%rsp),%rdx
   140005266:	66 85 d2             	test   %dx,%dx
   140005269:	79 06                	jns    140005271 <__mingw_pformat+0x601>
   14000526b:	0c 80                	or     $0x80,%al
   14000526d:	89 44 24 78          	mov    %eax,0x78(%rsp)
   140005271:	44 89 c0             	mov    %r8d,%eax
   140005274:	41 81 e0 00 00 f0 7f 	and    $0x7ff00000,%r8d
   14000527b:	25 ff ff 0f 00       	and    $0xfffff,%eax
   140005280:	09 c8                	or     %ecx,%eax
   140005282:	0f 95 c1             	setne  %cl
   140005285:	41 81 f8 00 00 f0 7f 	cmp    $0x7ff00000,%r8d
   14000528c:	41 0f 95 c1          	setne  %r9b
   140005290:	44 08 c9             	or     %r9b,%cl
   140005293:	0f 85 f6 01 00 00    	jne    14000548f <__mingw_pformat+0x81f>
   140005299:	44 09 c0             	or     %r8d,%eax
   14000529c:	0f 84 ed 01 00 00    	je     14000548f <__mingw_pformat+0x81f>
   1400052a2:	89 d1                	mov    %edx,%ecx
   1400052a4:	4c 8d 44 24 70       	lea    0x70(%rsp),%r8
   1400052a9:	48 8d 15 fa 51 00 00 	lea    0x51fa(%rip),%rdx        # 14000a4aa <.rdata+0x1a>
   1400052b0:	81 e1 00 80 00 00    	and    $0x8000,%ecx
   1400052b6:	e8 35 e3 ff ff       	call   1400035f0 <__pformat_emit_inf_or_nan>
   1400052bb:	e9 80 fe ff ff       	jmp    140005140 <__mingw_pformat+0x4d0>
   1400052c0:	c7 84 24 80 00 00 00 	movl   $0xffffffff,0x80(%rsp)
   1400052c7:	ff ff ff ff 
   1400052cb:	49 8d 5d 08          	lea    0x8(%r13),%rbx
   1400052cf:	41 8b 45 00          	mov    0x0(%r13),%eax
   1400052d3:	48 8d 4c 24 60       	lea    0x60(%rsp),%rcx
   1400052d8:	4c 8d 44 24 70       	lea    0x70(%rsp),%r8
   1400052dd:	49 89 dd             	mov    %rbx,%r13
   1400052e0:	ba 01 00 00 00       	mov    $0x1,%edx
   1400052e5:	48 89 eb             	mov    %rbp,%rbx
   1400052e8:	66 89 44 24 60       	mov    %ax,0x60(%rsp)
   1400052ed:	e8 ce df ff ff       	call   1400032c0 <__pformat_wputchars>
   1400052f2:	e9 65 fa ff ff       	jmp    140004d5c <__mingw_pformat+0xec>
   1400052f7:	8b 44 24 78          	mov    0x78(%rsp),%eax
   1400052fb:	49 8b 55 00          	mov    0x0(%r13),%rdx
   1400052ff:	a8 04                	test   $0x4,%al
   140005301:	0f 85 8a fe ff ff    	jne    140005191 <__mingw_pformat+0x521>
   140005307:	48 89 54 24 20       	mov    %rdx,0x20(%rsp)
   14000530c:	dd 44 24 20          	fldl   0x20(%rsp)
   140005310:	48 8d 54 24 70       	lea    0x70(%rsp),%rdx
   140005315:	48 8d 4c 24 40       	lea    0x40(%rsp),%rcx
   14000531a:	db 7c 24 40          	fstpt  0x40(%rsp)
   14000531e:	e8 ad f1 ff ff       	call   1400044d0 <__pformat_efloat>
   140005323:	e9 18 fe ff ff       	jmp    140005140 <__mingw_pformat+0x4d0>
   140005328:	8b 44 24 78          	mov    0x78(%rsp),%eax
   14000532c:	49 8b 55 00          	mov    0x0(%r13),%rdx
   140005330:	a8 04                	test   $0x4,%al
   140005332:	0f 85 2b fe ff ff    	jne    140005163 <__mingw_pformat+0x4f3>
   140005338:	48 89 54 24 20       	mov    %rdx,0x20(%rsp)
   14000533d:	dd 44 24 20          	fldl   0x20(%rsp)
   140005341:	48 8d 54 24 70       	lea    0x70(%rsp),%rdx
   140005346:	48 8d 4c 24 40       	lea    0x40(%rsp),%rcx
   14000534b:	db 7c 24 40          	fstpt  0x40(%rsp)
   14000534f:	e8 1c f2 ff ff       	call   140004570 <__pformat_float>
   140005354:	e9 e7 fd ff ff       	jmp    140005140 <__mingw_pformat+0x4d0>
   140005359:	8b 44 24 78          	mov    0x78(%rsp),%eax
   14000535d:	49 8b 55 00          	mov    0x0(%r13),%rdx
   140005361:	a8 04                	test   $0x4,%al
   140005363:	0f 85 c2 fd ff ff    	jne    14000512b <__mingw_pformat+0x4bb>
   140005369:	48 89 54 24 20       	mov    %rdx,0x20(%rsp)
   14000536e:	dd 44 24 20          	fldl   0x20(%rsp)
   140005372:	48 8d 54 24 70       	lea    0x70(%rsp),%rdx
   140005377:	48 8d 4c 24 40       	lea    0x40(%rsp),%rcx
   14000537c:	db 7c 24 40          	fstpt  0x40(%rsp)
   140005380:	e8 cb f2 ff ff       	call   140004650 <__pformat_gfloat>
   140005385:	e9 b6 fd ff ff       	jmp    140005140 <__mingw_pformat+0x4d0>
   14000538a:	48 8d 54 24 70       	lea    0x70(%rsp),%rdx
   14000538f:	b9 25 00 00 00       	mov    $0x25,%ecx
   140005394:	48 89 eb             	mov    %rbp,%rbx
   140005397:	e8 c4 de ff ff       	call   140003260 <__pformat_putc>
   14000539c:	e9 bb f9 ff ff       	jmp    140004d5c <__mingw_pformat+0xec>
   1400053a1:	45 85 f6             	test   %r14d,%r14d
   1400053a4:	0f 85 66 fa ff ff    	jne    140004e10 <__mingw_pformat+0x1a0>
   1400053aa:	4c 8d 4c 24 60       	lea    0x60(%rsp),%r9
   1400053af:	4c 89 5c 24 38       	mov    %r11,0x38(%rsp)
   1400053b4:	44 89 54 24 34       	mov    %r10d,0x34(%rsp)
   1400053b9:	81 4c 24 78 00 10 00 	orl    $0x1000,0x78(%rsp)
   1400053c0:	00 
   1400053c1:	4c 89 4c 24 20       	mov    %r9,0x20(%rsp)
   1400053c6:	c7 44 24 60 00 00 00 	movl   $0x0,0x60(%rsp)
   1400053cd:	00 
   1400053ce:	e8 b5 32 00 00       	call   140008688 <localeconv>
   1400053d3:	4c 8b 4c 24 20       	mov    0x20(%rsp),%r9
   1400053d8:	48 8d 4c 24 5e       	lea    0x5e(%rsp),%rcx
   1400053dd:	41 b8 10 00 00 00    	mov    $0x10,%r8d
   1400053e3:	48 8b 50 08          	mov    0x8(%rax),%rdx
   1400053e7:	e8 14 30 00 00       	call   140008400 <mbrtowc>
   1400053ec:	44 8b 54 24 34       	mov    0x34(%rsp),%r10d
   1400053f1:	4c 8b 5c 24 38       	mov    0x38(%rsp),%r11
   1400053f6:	85 c0                	test   %eax,%eax
   1400053f8:	7e 0d                	jle    140005407 <__mingw_pformat+0x797>
   1400053fa:	0f b7 54 24 5e       	movzwl 0x5e(%rsp),%edx
   1400053ff:	66 89 94 24 90 00 00 	mov    %dx,0x90(%rsp)
   140005406:	00 
   140005407:	89 84 24 8c 00 00 00 	mov    %eax,0x8c(%rsp)
   14000540e:	0f b6 46 01          	movzbl 0x1(%rsi),%eax
   140005412:	48 89 ee             	mov    %rbp,%rsi
   140005415:	e9 fd f9 ff ff       	jmp    140004e17 <__mingw_pformat+0x1a7>
   14000541a:	4d 85 db             	test   %r11,%r11
   14000541d:	0f 84 c6 fd ff ff    	je     1400051e9 <__mingw_pformat+0x579>
   140005423:	41 f7 c6 fd ff ff ff 	test   $0xfffffffd,%r14d
   14000542a:	0f 85 23 01 00 00    	jne    140005553 <__mingw_pformat+0x8e3>
   140005430:	41 8b 45 00          	mov    0x0(%r13),%eax
   140005434:	49 8d 55 08          	lea    0x8(%r13),%rdx
   140005438:	41 89 03             	mov    %eax,(%r11)
   14000543b:	85 c0                	test   %eax,%eax
   14000543d:	0f 88 83 02 00 00    	js     1400056c6 <__mingw_pformat+0xa56>
   140005443:	0f b6 46 01          	movzbl 0x1(%rsi),%eax
   140005447:	49 89 d5             	mov    %rdx,%r13
   14000544a:	48 89 ee             	mov    %rbp,%rsi
   14000544d:	45 31 db             	xor    %r11d,%r11d
   140005450:	e9 c2 f9 ff ff       	jmp    140004e17 <__mingw_pformat+0x1a7>
   140005455:	45 85 f6             	test   %r14d,%r14d
   140005458:	0f 85 b2 f9 ff ff    	jne    140004e10 <__mingw_pformat+0x1a0>
   14000545e:	0f b6 46 01          	movzbl 0x1(%rsi),%eax
   140005462:	81 4c 24 78 00 01 00 	orl    $0x100,0x78(%rsp)
   140005469:	00 
   14000546a:	48 89 ee             	mov    %rbp,%rsi
   14000546d:	e9 a5 f9 ff ff       	jmp    140004e17 <__mingw_pformat+0x1a7>
   140005472:	45 85 f6             	test   %r14d,%r14d
   140005475:	0f 85 95 f9 ff ff    	jne    140004e10 <__mingw_pformat+0x1a0>
   14000547b:	0f b6 46 01          	movzbl 0x1(%rsi),%eax
   14000547f:	81 4c 24 78 00 08 00 	orl    $0x800,0x78(%rsp)
   140005486:	00 
   140005487:	48 89 ee             	mov    %rbp,%rsi
   14000548a:	e9 88 f9 ff ff       	jmp    140004e17 <__mingw_pformat+0x1a7>
   14000548f:	48 8b 44 24 20       	mov    0x20(%rsp),%rax
   140005494:	66 81 e2 ff 7f       	and    $0x7fff,%dx
   140005499:	0f 84 1a 01 00 00    	je     1400055b9 <__mingw_pformat+0x949>
   14000549f:	66 81 fa 00 3c       	cmp    $0x3c00,%dx
   1400054a4:	0f 8f 06 01 00 00    	jg     1400055b0 <__mingw_pformat+0x940>
   1400054aa:	44 0f bf c2          	movswl %dx,%r8d
   1400054ae:	b9 01 3c 00 00       	mov    $0x3c01,%ecx
   1400054b3:	44 29 c1             	sub    %r8d,%ecx
   1400054b6:	48 d3 e8             	shr    %cl,%rax
   1400054b9:	01 ca                	add    %ecx,%edx
   1400054bb:	66 81 ea fc 3f       	sub    $0x3ffc,%dx
   1400054c0:	48 c1 e8 03          	shr    $0x3,%rax
   1400054c4:	48 89 c1             	mov    %rax,%rcx
   1400054c7:	4c 8d 44 24 70       	lea    0x70(%rsp),%r8
   1400054cc:	e8 ff f2 ff ff       	call   1400047d0 <__pformat_emit_xfloat.isra.0>
   1400054d1:	e9 6a fc ff ff       	jmp    140005140 <__mingw_pformat+0x4d0>
   1400054d6:	49 8d 5d 08          	lea    0x8(%r13),%rbx
   1400054da:	49 8b 75 00          	mov    0x0(%r13),%rsi
   1400054de:	48 8d 05 b3 4f 00 00 	lea    0x4fb3(%rip),%rax        # 14000a498 <.rdata+0x8>
   1400054e5:	48 85 f6             	test   %rsi,%rsi
   1400054e8:	48 0f 44 f0          	cmove  %rax,%rsi
   1400054ec:	8b 84 24 80 00 00 00 	mov    0x80(%rsp),%eax
   1400054f3:	85 c0                	test   %eax,%eax
   1400054f5:	0f 88 30 01 00 00    	js     14000562b <__mingw_pformat+0x9bb>
   1400054fb:	48 89 f1             	mov    %rsi,%rcx
   1400054fe:	48 63 d0             	movslq %eax,%rdx
   140005501:	e8 6a 2a 00 00       	call   140007f70 <wcsnlen>
   140005506:	4c 8d 44 24 70       	lea    0x70(%rsp),%r8
   14000550b:	48 89 f1             	mov    %rsi,%rcx
   14000550e:	89 c2                	mov    %eax,%edx
   140005510:	e8 ab dd ff ff       	call   1400032c0 <__pformat_wputchars>
   140005515:	e9 ef fb ff ff       	jmp    140005109 <__mingw_pformat+0x499>
   14000551a:	41 83 fe 04          	cmp    $0x4,%r14d
   14000551e:	0f 84 c3 fa ff ff    	je     140004fe7 <__mingw_pformat+0x377>
   140005524:	b9 30 00 00 00       	mov    $0x30,%ecx
   140005529:	41 83 fe 02          	cmp    $0x2,%r14d
   14000552d:	b8 03 00 00 00       	mov    $0x3,%eax
   140005532:	44 0f 44 f0          	cmove  %eax,%r14d
   140005536:	e9 b1 f8 ff ff       	jmp    140004dec <__mingw_pformat+0x17c>
   14000553b:	4c 8d 44 24 70       	lea    0x70(%rsp),%r8
   140005540:	48 8d 15 5f 4f 00 00 	lea    0x4f5f(%rip),%rdx        # 14000a4a6 <.rdata+0x16>
   140005547:	31 c9                	xor    %ecx,%ecx
   140005549:	e8 a2 e0 ff ff       	call   1400035f0 <__pformat_emit_inf_or_nan>
   14000554e:	e9 ed fb ff ff       	jmp    140005140 <__mingw_pformat+0x4d0>
   140005553:	0f b6 46 01          	movzbl 0x1(%rsi),%eax
   140005557:	45 31 db             	xor    %r11d,%r11d
   14000555a:	48 89 ee             	mov    %rbp,%rsi
   14000555d:	41 be 04 00 00 00    	mov    $0x4,%r14d
   140005563:	e9 af f8 ff ff       	jmp    140004e17 <__mingw_pformat+0x1a7>
   140005568:	48 85 c9             	test   %rcx,%rcx
   14000556b:	b8 02 c0 ff ff       	mov    $0xffffc002,%eax
   140005570:	0f 45 d0             	cmovne %eax,%edx
   140005573:	e9 4f ff ff ff       	jmp    1400054c7 <__mingw_pformat+0x857>
   140005578:	48 89 ee             	mov    %rbp,%rsi
   14000557b:	41 ba 03 00 00 00    	mov    $0x3,%r10d
   140005581:	41 be 04 00 00 00    	mov    $0x4,%r14d
   140005587:	e9 8b f8 ff ff       	jmp    140004e17 <__mingw_pformat+0x1a7>
   14000558c:	0c 80                	or     $0x80,%al
   14000558e:	89 44 24 78          	mov    %eax,0x78(%rsp)
   140005592:	e9 e9 fa ff ff       	jmp    140005080 <__mingw_pformat+0x410>
   140005597:	c7 84 24 80 00 00 00 	movl   $0x10,0x80(%rsp)
   14000559e:	10 00 00 00 
   1400055a2:	89 f8                	mov    %edi,%eax
   1400055a4:	80 cc 02             	or     $0x2,%ah
   1400055a7:	89 44 24 78          	mov    %eax,0x78(%rsp)
   1400055ab:	e9 62 f9 ff ff       	jmp    140004f12 <__mingw_pformat+0x2a2>
   1400055b0:	66 85 d2             	test   %dx,%dx
   1400055b3:	0f 85 02 ff ff ff    	jne    1400054bb <__mingw_pformat+0x84b>
   1400055b9:	48 85 c0             	test   %rax,%rax
   1400055bc:	b9 05 fc ff ff       	mov    $0xfffffc05,%ecx
   1400055c1:	0f 45 d1             	cmovne %ecx,%edx
   1400055c4:	e9 f7 fe ff ff       	jmp    1400054c0 <__mingw_pformat+0x850>
   1400055c9:	48 0f bf c9          	movswq %cx,%rcx
   1400055cd:	e9 1c f9 ff ff       	jmp    140004eee <__mingw_pformat+0x27e>
   1400055d2:	0f b7 c0             	movzwl %ax,%eax
   1400055d5:	e9 9d f8 ff ff       	jmp    140004e77 <__mingw_pformat+0x207>
   1400055da:	48 89 02             	mov    %rax,(%rdx)
   1400055dd:	e9 5e fb ff ff       	jmp    140005140 <__mingw_pformat+0x4d0>
   1400055e2:	83 e9 30             	sub    $0x30,%ecx
   1400055e5:	0f b6 46 01          	movzbl 0x1(%rsi),%eax
   1400055e9:	48 89 ee             	mov    %rbp,%rsi
   1400055ec:	41 89 0b             	mov    %ecx,(%r11)
   1400055ef:	e9 23 f8 ff ff       	jmp    140004e17 <__mingw_pformat+0x1a7>
   1400055f4:	0f b6 46 01          	movzbl 0x1(%rsi),%eax
   1400055f8:	41 be 02 00 00 00    	mov    $0x2,%r14d
   1400055fe:	48 89 ee             	mov    %rbp,%rsi
   140005601:	c7 84 24 80 00 00 00 	movl   $0x0,0x80(%rsp)
   140005608:	00 00 00 00 
   14000560c:	4c 8d 9c 24 80 00 00 	lea    0x80(%rsp),%r11
   140005613:	00 
   140005614:	e9 fe f7 ff ff       	jmp    140004e17 <__mingw_pformat+0x1a7>
   140005619:	49 8b 4d 00          	mov    0x0(%r13),%rcx
   14000561d:	e9 cc f8 ff ff       	jmp    140004eee <__mingw_pformat+0x27e>
   140005622:	49 8b 45 00          	mov    0x0(%r13),%rax
   140005626:	e9 4c f8 ff ff       	jmp    140004e77 <__mingw_pformat+0x207>
   14000562b:	48 89 f1             	mov    %rsi,%rcx
   14000562e:	e8 9d 30 00 00       	call   1400086d0 <wcslen>
   140005633:	4c 8d 44 24 70       	lea    0x70(%rsp),%r8
   140005638:	48 89 f1             	mov    %rsi,%rcx
   14000563b:	89 c2                	mov    %eax,%edx
   14000563d:	e8 7e dc ff ff       	call   1400032c0 <__pformat_wputchars>
   140005642:	e9 c2 fa ff ff       	jmp    140005109 <__mingw_pformat+0x499>
   140005647:	80 7e 02 34          	cmpb   $0x34,0x2(%rsi)
   14000564b:	0f 85 96 f9 ff ff    	jne    140004fe7 <__mingw_pformat+0x377>
   140005651:	0f b6 46 03          	movzbl 0x3(%rsi),%eax
   140005655:	41 ba 03 00 00 00    	mov    $0x3,%r10d
   14000565b:	48 83 c6 03          	add    $0x3,%rsi
   14000565f:	41 be 04 00 00 00    	mov    $0x4,%r14d
   140005665:	e9 ad f7 ff ff       	jmp    140004e17 <__mingw_pformat+0x1a7>
   14000566a:	88 02                	mov    %al,(%rdx)
   14000566c:	e9 cf fa ff ff       	jmp    140005140 <__mingw_pformat+0x4d0>
   140005671:	0f b6 46 02          	movzbl 0x2(%rsi),%eax
   140005675:	41 ba 05 00 00 00    	mov    $0x5,%r10d
   14000567b:	48 83 c6 02          	add    $0x2,%rsi
   14000567f:	41 be 04 00 00 00    	mov    $0x4,%r14d
   140005685:	e9 8d f7 ff ff       	jmp    140004e17 <__mingw_pformat+0x1a7>
   14000568a:	0f b6 46 02          	movzbl 0x2(%rsi),%eax
   14000568e:	41 ba 03 00 00 00    	mov    $0x3,%r10d
   140005694:	48 83 c6 02          	add    $0x2,%rsi
   140005698:	41 be 04 00 00 00    	mov    $0x4,%r14d
   14000569e:	e9 74 f7 ff ff       	jmp    140004e17 <__mingw_pformat+0x1a7>
   1400056a3:	48 8d 54 24 70       	lea    0x70(%rsp),%rdx
   1400056a8:	48 89 c1             	mov    %rax,%rcx
   1400056ab:	e8 90 e4 ff ff       	call   140003b40 <__pformat_int.isra.0>
   1400056b0:	e9 8b fa ff ff       	jmp    140005140 <__mingw_pformat+0x4d0>
   1400056b5:	41 8b 45 00          	mov    0x0(%r13),%eax
   1400056b9:	e9 b9 f7 ff ff       	jmp    140004e77 <__mingw_pformat+0x207>
   1400056be:	66 89 02             	mov    %ax,(%rdx)
   1400056c1:	e9 7a fa ff ff       	jmp    140005140 <__mingw_pformat+0x4d0>
   1400056c6:	45 85 f6             	test   %r14d,%r14d
   1400056c9:	75 2a                	jne    1400056f5 <__mingw_pformat+0xa85>
   1400056cb:	81 4c 24 78 00 04 00 	orl    $0x400,0x78(%rsp)
   1400056d2:	00 
   1400056d3:	f7 5c 24 7c          	negl   0x7c(%rsp)
   1400056d7:	e9 67 fd ff ff       	jmp    140005443 <__mingw_pformat+0x7d3>
   1400056dc:	0f b6 46 03          	movzbl 0x3(%rsi),%eax
   1400056e0:	41 ba 02 00 00 00    	mov    $0x2,%r10d
   1400056e6:	48 83 c6 03          	add    $0x3,%rsi
   1400056ea:	41 be 04 00 00 00    	mov    $0x4,%r14d
   1400056f0:	e9 22 f7 ff ff       	jmp    140004e17 <__mingw_pformat+0x1a7>
   1400056f5:	0f b6 46 01          	movzbl 0x1(%rsi),%eax
   1400056f9:	49 89 d5             	mov    %rdx,%r13
   1400056fc:	48 89 ee             	mov    %rbp,%rsi
   1400056ff:	45 31 db             	xor    %r11d,%r11d
   140005702:	c7 84 24 80 00 00 00 	movl   $0xffffffff,0x80(%rsp)
   140005709:	ff ff ff ff 
   14000570d:	41 be 02 00 00 00    	mov    $0x2,%r14d
   140005713:	e9 ff f6 ff ff       	jmp    140004e17 <__mingw_pformat+0x1a7>
   140005718:	44 89 d1             	mov    %r10d,%ecx
   14000571b:	4c 8d 44 24 70       	lea    0x70(%rsp),%r8
   140005720:	48 8d 15 83 4d 00 00 	lea    0x4d83(%rip),%rdx        # 14000a4aa <.rdata+0x1a>
   140005727:	81 e1 00 80 00 00    	and    $0x8000,%ecx
   14000572d:	e8 be de ff ff       	call   1400035f0 <__pformat_emit_inf_or_nan>
   140005732:	e9 09 fa ff ff       	jmp    140005140 <__mingw_pformat+0x4d0>
   140005737:	90                   	nop
   140005738:	90                   	nop
   140005739:	90                   	nop
   14000573a:	90                   	nop
   14000573b:	90                   	nop
   14000573c:	90                   	nop
   14000573d:	90                   	nop
   14000573e:	90                   	nop
   14000573f:	90                   	nop

0000000140005740 <__rv_alloc_D2A>:
   140005740:	53                   	push   %rbx
   140005741:	48 83 ec 20          	sub    $0x20,%rsp
   140005745:	31 db                	xor    %ebx,%ebx
   140005747:	83 f9 1b             	cmp    $0x1b,%ecx
   14000574a:	7e 18                	jle    140005764 <__rv_alloc_D2A+0x24>
   14000574c:	b8 04 00 00 00       	mov    $0x4,%eax
   140005751:	0f 1f 80 00 00 00 00 	nopl   0x0(%rax)
   140005758:	01 c0                	add    %eax,%eax
   14000575a:	83 c3 01             	add    $0x1,%ebx
   14000575d:	8d 50 17             	lea    0x17(%rax),%edx
   140005760:	39 ca                	cmp    %ecx,%edx
   140005762:	7c f4                	jl     140005758 <__rv_alloc_D2A+0x18>
   140005764:	89 d9                	mov    %ebx,%ecx
   140005766:	e8 95 1c 00 00       	call   140007400 <__Balloc_D2A>
   14000576b:	89 18                	mov    %ebx,(%rax)
   14000576d:	48 83 c0 04          	add    $0x4,%rax
   140005771:	48 83 c4 20          	add    $0x20,%rsp
   140005775:	5b                   	pop    %rbx
   140005776:	c3                   	ret
   140005777:	66 0f 1f 84 00 00 00 	nopw   0x0(%rax,%rax,1)
   14000577e:	00 00 

0000000140005780 <__nrv_alloc_D2A>:
   140005780:	57                   	push   %rdi
   140005781:	56                   	push   %rsi
   140005782:	53                   	push   %rbx
   140005783:	48 83 ec 20          	sub    $0x20,%rsp
   140005787:	48 89 ce             	mov    %rcx,%rsi
   14000578a:	48 89 d7             	mov    %rdx,%rdi
   14000578d:	41 83 f8 1b          	cmp    $0x1b,%r8d
   140005791:	7e 65                	jle    1400057f8 <__nrv_alloc_D2A+0x78>
   140005793:	b8 04 00 00 00       	mov    $0x4,%eax
   140005798:	31 db                	xor    %ebx,%ebx
   14000579a:	66 0f 1f 44 00 00    	nopw   0x0(%rax,%rax,1)
   1400057a0:	01 c0                	add    %eax,%eax
   1400057a2:	83 c3 01             	add    $0x1,%ebx
   1400057a5:	8d 50 17             	lea    0x17(%rax),%edx
   1400057a8:	41 39 d0             	cmp    %edx,%r8d
   1400057ab:	7f f3                	jg     1400057a0 <__nrv_alloc_D2A+0x20>
   1400057ad:	89 d9                	mov    %ebx,%ecx
   1400057af:	e8 4c 1c 00 00       	call   140007400 <__Balloc_D2A>
   1400057b4:	48 8d 56 01          	lea    0x1(%rsi),%rdx
   1400057b8:	89 18                	mov    %ebx,(%rax)
   1400057ba:	0f b6 0e             	movzbl (%rsi),%ecx
   1400057bd:	4c 8d 40 04          	lea    0x4(%rax),%r8
   1400057c1:	88 48 04             	mov    %cl,0x4(%rax)
   1400057c4:	4c 89 c0             	mov    %r8,%rax
   1400057c7:	84 c9                	test   %cl,%cl
   1400057c9:	74 16                	je     1400057e1 <__nrv_alloc_D2A+0x61>
   1400057cb:	0f 1f 44 00 00       	nopl   0x0(%rax,%rax,1)
   1400057d0:	0f b6 0a             	movzbl (%rdx),%ecx
   1400057d3:	48 83 c0 01          	add    $0x1,%rax
   1400057d7:	48 83 c2 01          	add    $0x1,%rdx
   1400057db:	88 08                	mov    %cl,(%rax)
   1400057dd:	84 c9                	test   %cl,%cl
   1400057df:	75 ef                	jne    1400057d0 <__nrv_alloc_D2A+0x50>
   1400057e1:	48 85 ff             	test   %rdi,%rdi
   1400057e4:	74 03                	je     1400057e9 <__nrv_alloc_D2A+0x69>
   1400057e6:	48 89 07             	mov    %rax,(%rdi)
   1400057e9:	4c 89 c0             	mov    %r8,%rax
   1400057ec:	48 83 c4 20          	add    $0x20,%rsp
   1400057f0:	5b                   	pop    %rbx
   1400057f1:	5e                   	pop    %rsi
   1400057f2:	5f                   	pop    %rdi
   1400057f3:	c3                   	ret
   1400057f4:	0f 1f 40 00          	nopl   0x0(%rax)
   1400057f8:	31 db                	xor    %ebx,%ebx
   1400057fa:	eb b1                	jmp    1400057ad <__nrv_alloc_D2A+0x2d>
   1400057fc:	0f 1f 40 00          	nopl   0x0(%rax)

0000000140005800 <__freedtoa>:
   140005800:	ba 01 00 00 00       	mov    $0x1,%edx
   140005805:	48 89 c8             	mov    %rcx,%rax
   140005808:	8b 49 fc             	mov    -0x4(%rcx),%ecx
   14000580b:	d3 e2                	shl    %cl,%edx
   14000580d:	66 0f 6e c1          	movd   %ecx,%xmm0
   140005811:	48 8d 48 fc          	lea    -0x4(%rax),%rcx
   140005815:	66 0f 6e ca          	movd   %edx,%xmm1
   140005819:	66 0f 62 c1          	punpckldq %xmm1,%xmm0
   14000581d:	66 0f d6 40 04       	movq   %xmm0,0x4(%rax)
   140005822:	e9 c9 1c 00 00       	jmp    1400074f0 <__Bfree_D2A>
   140005827:	66 0f 1f 84 00 00 00 	nopw   0x0(%rax,%rax,1)
   14000582e:	00 00 

0000000140005830 <__quorem_D2A>:
   140005830:	41 57                	push   %r15
   140005832:	41 56                	push   %r14
   140005834:	41 55                	push   %r13
   140005836:	41 54                	push   %r12
   140005838:	55                   	push   %rbp
   140005839:	57                   	push   %rdi
   14000583a:	56                   	push   %rsi
   14000583b:	53                   	push   %rbx
   14000583c:	48 83 ec 38          	sub    $0x38,%rsp
   140005840:	31 c0                	xor    %eax,%eax
   140005842:	8b 72 14             	mov    0x14(%rdx),%esi
   140005845:	49 89 cc             	mov    %rcx,%r12
   140005848:	49 89 d3             	mov    %rdx,%r11
   14000584b:	39 71 14             	cmp    %esi,0x14(%rcx)
   14000584e:	0f 8c f0 00 00 00    	jl     140005944 <__quorem_D2A+0x114>
   140005854:	83 ee 01             	sub    $0x1,%esi
   140005857:	48 8d 5a 18          	lea    0x18(%rdx),%rbx
   14000585b:	48 8d 69 18          	lea    0x18(%rcx),%rbp
   14000585f:	31 d2                	xor    %edx,%edx
   140005861:	4c 63 d6             	movslq %esi,%r10
   140005864:	49 c1 e2 02          	shl    $0x2,%r10
   140005868:	4a 8d 3c 13          	lea    (%rbx,%r10,1),%rdi
   14000586c:	49 01 ea             	add    %rbp,%r10
   14000586f:	8b 07                	mov    (%rdi),%eax
   140005871:	45 8b 02             	mov    (%r10),%r8d
   140005874:	8d 48 01             	lea    0x1(%rax),%ecx
   140005877:	44 89 c0             	mov    %r8d,%eax
   14000587a:	f7 f1                	div    %ecx
   14000587c:	89 44 24 2c          	mov    %eax,0x2c(%rsp)
   140005880:	41 89 c5             	mov    %eax,%r13d
   140005883:	41 39 c8             	cmp    %ecx,%r8d
   140005886:	72 5e                	jb     1400058e6 <__quorem_D2A+0xb6>
   140005888:	41 89 c7             	mov    %eax,%r15d
   14000588b:	49 89 d9             	mov    %rbx,%r9
   14000588e:	49 89 e8             	mov    %rbp,%r8
   140005891:	45 31 f6             	xor    %r14d,%r14d
   140005894:	31 c9                	xor    %ecx,%ecx
   140005896:	66 2e 0f 1f 84 00 00 	cs nopw 0x0(%rax,%rax,1)
   14000589d:	00 00 00 
   1400058a0:	41 8b 01             	mov    (%r9),%eax
   1400058a3:	41 8b 10             	mov    (%r8),%edx
   1400058a6:	49 83 c1 04          	add    $0x4,%r9
   1400058aa:	49 83 c0 04          	add    $0x4,%r8
   1400058ae:	49 0f af c7          	imul   %r15,%rax
   1400058b2:	4c 01 f0             	add    %r14,%rax
   1400058b5:	49 89 c6             	mov    %rax,%r14
   1400058b8:	89 c0                	mov    %eax,%eax
   1400058ba:	48 29 c2             	sub    %rax,%rdx
   1400058bd:	49 c1 ee 20          	shr    $0x20,%r14
   1400058c1:	48 89 d0             	mov    %rdx,%rax
   1400058c4:	48 29 c8             	sub    %rcx,%rax
   1400058c7:	48 89 c1             	mov    %rax,%rcx
   1400058ca:	41 89 40 fc          	mov    %eax,-0x4(%r8)
   1400058ce:	48 c1 e9 20          	shr    $0x20,%rcx
   1400058d2:	83 e1 01             	and    $0x1,%ecx
   1400058d5:	4c 39 cf             	cmp    %r9,%rdi
   1400058d8:	73 c6                	jae    1400058a0 <__quorem_D2A+0x70>
   1400058da:	45 8b 0a             	mov    (%r10),%r9d
   1400058dd:	45 85 c9             	test   %r9d,%r9d
   1400058e0:	0f 84 a5 00 00 00    	je     14000598b <__quorem_D2A+0x15b>
   1400058e6:	4c 89 da             	mov    %r11,%rdx
   1400058e9:	4c 89 e1             	mov    %r12,%rcx
   1400058ec:	e8 df 21 00 00       	call   140007ad0 <__cmp_D2A>
   1400058f1:	85 c0                	test   %eax,%eax
   1400058f3:	78 4b                	js     140005940 <__quorem_D2A+0x110>
   1400058f5:	48 89 e9             	mov    %rbp,%rcx
   1400058f8:	31 d2                	xor    %edx,%edx
   1400058fa:	66 0f 1f 44 00 00    	nopw   0x0(%rax,%rax,1)
   140005900:	8b 01                	mov    (%rcx),%eax
   140005902:	44 8b 03             	mov    (%rbx),%r8d
   140005905:	48 83 c3 04          	add    $0x4,%rbx
   140005909:	48 83 c1 04          	add    $0x4,%rcx
   14000590d:	4c 29 c0             	sub    %r8,%rax
   140005910:	48 29 d0             	sub    %rdx,%rax
   140005913:	48 89 c2             	mov    %rax,%rdx
   140005916:	89 41 fc             	mov    %eax,-0x4(%rcx)
   140005919:	48 c1 ea 20          	shr    $0x20,%rdx
   14000591d:	83 e2 01             	and    $0x1,%edx
   140005920:	48 39 df             	cmp    %rbx,%rdi
   140005923:	73 db                	jae    140005900 <__quorem_D2A+0xd0>
   140005925:	48 63 c6             	movslq %esi,%rax
   140005928:	48 8d 44 85 00       	lea    0x0(%rbp,%rax,4),%rax
   14000592d:	8b 08                	mov    (%rax),%ecx
   14000592f:	85 c9                	test   %ecx,%ecx
   140005931:	74 2e                	je     140005961 <__quorem_D2A+0x131>
   140005933:	41 8d 45 01          	lea    0x1(%r13),%eax
   140005937:	89 44 24 2c          	mov    %eax,0x2c(%rsp)
   14000593b:	0f 1f 44 00 00       	nopl   0x0(%rax,%rax,1)
   140005940:	8b 44 24 2c          	mov    0x2c(%rsp),%eax
   140005944:	48 83 c4 38          	add    $0x38,%rsp
   140005948:	5b                   	pop    %rbx
   140005949:	5e                   	pop    %rsi
   14000594a:	5f                   	pop    %rdi
   14000594b:	5d                   	pop    %rbp
   14000594c:	41 5c                	pop    %r12
   14000594e:	41 5d                	pop    %r13
   140005950:	41 5e                	pop    %r14
   140005952:	41 5f                	pop    %r15
   140005954:	c3                   	ret
   140005955:	0f 1f 00             	nopl   (%rax)
   140005958:	8b 10                	mov    (%rax),%edx
   14000595a:	85 d2                	test   %edx,%edx
   14000595c:	75 0c                	jne    14000596a <__quorem_D2A+0x13a>
   14000595e:	83 ee 01             	sub    $0x1,%esi
   140005961:	48 83 e8 04          	sub    $0x4,%rax
   140005965:	48 39 c5             	cmp    %rax,%rbp
   140005968:	72 ee                	jb     140005958 <__quorem_D2A+0x128>
   14000596a:	41 8d 45 01          	lea    0x1(%r13),%eax
   14000596e:	41 89 74 24 14       	mov    %esi,0x14(%r12)
   140005973:	89 44 24 2c          	mov    %eax,0x2c(%rsp)
   140005977:	eb c7                	jmp    140005940 <__quorem_D2A+0x110>
   140005979:	0f 1f 80 00 00 00 00 	nopl   0x0(%rax)
   140005980:	45 8b 02             	mov    (%r10),%r8d
   140005983:	45 85 c0             	test   %r8d,%r8d
   140005986:	75 0c                	jne    140005994 <__quorem_D2A+0x164>
   140005988:	83 ee 01             	sub    $0x1,%esi
   14000598b:	49 83 ea 04          	sub    $0x4,%r10
   14000598f:	4c 39 d5             	cmp    %r10,%rbp
   140005992:	72 ec                	jb     140005980 <__quorem_D2A+0x150>
   140005994:	41 89 74 24 14       	mov    %esi,0x14(%r12)
   140005999:	4c 89 da             	mov    %r11,%rdx
   14000599c:	4c 89 e1             	mov    %r12,%rcx
   14000599f:	e8 2c 21 00 00       	call   140007ad0 <__cmp_D2A>
   1400059a4:	85 c0                	test   %eax,%eax
   1400059a6:	0f 89 49 ff ff ff    	jns    1400058f5 <__quorem_D2A+0xc5>
   1400059ac:	eb 92                	jmp    140005940 <__quorem_D2A+0x110>
   1400059ae:	90                   	nop
   1400059af:	90                   	nop

00000001400059b0 <__gdtoa>:
   1400059b0:	41 57                	push   %r15
   1400059b2:	41 56                	push   %r14
   1400059b4:	41 55                	push   %r13
   1400059b6:	41 54                	push   %r12
   1400059b8:	55                   	push   %rbp
   1400059b9:	57                   	push   %rdi
   1400059ba:	56                   	push   %rsi
   1400059bb:	53                   	push   %rbx
   1400059bc:	48 81 ec b8 00 00 00 	sub    $0xb8,%rsp
   1400059c3:	8b 84 24 28 01 00 00 	mov    0x128(%rsp),%eax
   1400059ca:	41 8b 29             	mov    (%r9),%ebp
   1400059cd:	8b bc 24 20 01 00 00 	mov    0x120(%rsp),%edi
   1400059d4:	89 44 24 38          	mov    %eax,0x38(%rsp)
   1400059d8:	48 8b 84 24 30 01 00 	mov    0x130(%rsp),%rax
   1400059df:	00 
   1400059e0:	49 89 cd             	mov    %rcx,%r13
   1400059e3:	4c 89 c6             	mov    %r8,%rsi
   1400059e6:	89 54 24 30          	mov    %edx,0x30(%rsp)
   1400059ea:	48 89 44 24 20       	mov    %rax,0x20(%rsp)
   1400059ef:	48 8b 84 24 38 01 00 	mov    0x138(%rsp),%rax
   1400059f6:	00 
   1400059f7:	4c 89 4c 24 40       	mov    %r9,0x40(%rsp)
   1400059fc:	48 89 44 24 28       	mov    %rax,0x28(%rsp)
   140005a01:	89 e8                	mov    %ebp,%eax
   140005a03:	83 e0 cf             	and    $0xffffffcf,%eax
   140005a06:	41 89 01             	mov    %eax,(%r9)
   140005a09:	89 e8                	mov    %ebp,%eax
   140005a0b:	83 e0 07             	and    $0x7,%eax
   140005a0e:	83 f8 03             	cmp    $0x3,%eax
   140005a11:	0f 84 e1 02 00 00    	je     140005cf8 <__gdtoa+0x348>
   140005a17:	89 eb                	mov    %ebp,%ebx
   140005a19:	83 e3 04             	and    $0x4,%ebx
   140005a1c:	89 5c 24 48          	mov    %ebx,0x48(%rsp)
   140005a20:	0f 85 4a 02 00 00    	jne    140005c70 <__gdtoa+0x2c0>
   140005a26:	85 c0                	test   %eax,%eax
   140005a28:	0f 84 8a 02 00 00    	je     140005cb8 <__gdtoa+0x308>
   140005a2e:	44 8b 21             	mov    (%rcx),%r12d
   140005a31:	b8 20 00 00 00       	mov    $0x20,%eax
   140005a36:	31 c9                	xor    %ecx,%ecx
   140005a38:	41 83 fc 20          	cmp    $0x20,%r12d
   140005a3c:	7e 0a                	jle    140005a48 <__gdtoa+0x98>
   140005a3e:	01 c0                	add    %eax,%eax
   140005a40:	83 c1 01             	add    $0x1,%ecx
   140005a43:	41 39 c4             	cmp    %eax,%r12d
   140005a46:	7f f6                	jg     140005a3e <__gdtoa+0x8e>
   140005a48:	e8 b3 19 00 00       	call   140007400 <__Balloc_D2A>
   140005a4d:	45 8d 44 24 ff       	lea    -0x1(%r12),%r8d
   140005a52:	41 c1 f8 05          	sar    $0x5,%r8d
   140005a56:	48 89 c3             	mov    %rax,%rbx
   140005a59:	48 8d 50 18          	lea    0x18(%rax),%rdx
   140005a5d:	48 89 f0             	mov    %rsi,%rax
   140005a60:	4d 63 c0             	movslq %r8d,%r8
   140005a63:	4a 8d 0c 86          	lea    (%rsi,%r8,4),%rcx
   140005a67:	66 0f 1f 84 00 00 00 	nopw   0x0(%rax,%rax,1)
   140005a6e:	00 00 
   140005a70:	44 8b 08             	mov    (%rax),%r9d
   140005a73:	48 83 c0 04          	add    $0x4,%rax
   140005a77:	48 83 c2 04          	add    $0x4,%rdx
   140005a7b:	44 89 4a fc          	mov    %r9d,-0x4(%rdx)
   140005a7f:	48 39 c1             	cmp    %rax,%rcx
   140005a82:	73 ec                	jae    140005a70 <__gdtoa+0xc0>
   140005a84:	48 8d 56 01          	lea    0x1(%rsi),%rdx
   140005a88:	48 83 c1 01          	add    $0x1,%rcx
   140005a8c:	4a 8d 04 85 04 00 00 	lea    0x4(,%r8,4),%rax
   140005a93:	00 
   140005a94:	48 39 d1             	cmp    %rdx,%rcx
   140005a97:	ba 04 00 00 00       	mov    $0x4,%edx
   140005a9c:	48 0f 42 c2          	cmovb  %rdx,%rax
   140005aa0:	48 c1 f8 02          	sar    $0x2,%rax
   140005aa4:	41 89 c6             	mov    %eax,%r14d
   140005aa7:	48 8d 04 83          	lea    (%rbx,%rax,4),%rax
   140005aab:	eb 10                	jmp    140005abd <__gdtoa+0x10d>
   140005aad:	0f 1f 00             	nopl   (%rax)
   140005ab0:	48 83 e8 04          	sub    $0x4,%rax
   140005ab4:	45 85 f6             	test   %r14d,%r14d
   140005ab7:	0f 84 63 02 00 00    	je     140005d20 <__gdtoa+0x370>
   140005abd:	44 8b 78 14          	mov    0x14(%rax),%r15d
   140005ac1:	44 89 f2             	mov    %r14d,%edx
   140005ac4:	41 83 ee 01          	sub    $0x1,%r14d
   140005ac8:	45 85 ff             	test   %r15d,%r15d
   140005acb:	74 e3                	je     140005ab0 <__gdtoa+0x100>
   140005acd:	4d 63 f6             	movslq %r14d,%r14
   140005ad0:	89 53 14             	mov    %edx,0x14(%rbx)
   140005ad3:	c1 e2 05             	shl    $0x5,%edx
   140005ad6:	42 0f bd 44 b3 18    	bsr    0x18(%rbx,%r14,4),%eax
   140005adc:	83 f0 1f             	xor    $0x1f,%eax
   140005adf:	29 c2                	sub    %eax,%edx
   140005ae1:	41 89 d6             	mov    %edx,%r14d
   140005ae4:	48 89 d9             	mov    %rbx,%rcx
   140005ae7:	e8 a4 17 00 00       	call   140007290 <__trailz_D2A>
   140005aec:	8b 4c 24 30          	mov    0x30(%rsp),%ecx
   140005af0:	89 84 24 ac 00 00 00 	mov    %eax,0xac(%rsp)
   140005af7:	89 4c 24 60          	mov    %ecx,0x60(%rsp)
   140005afb:	85 c0                	test   %eax,%eax
   140005afd:	0f 85 2d 02 00 00    	jne    140005d30 <__gdtoa+0x380>
   140005b03:	44 8b 5b 14          	mov    0x14(%rbx),%r11d
   140005b07:	45 85 db             	test   %r11d,%r11d
   140005b0a:	0f 84 a0 01 00 00    	je     140005cb0 <__gdtoa+0x300>
   140005b10:	48 8d 94 24 ac 00 00 	lea    0xac(%rsp),%rdx
   140005b17:	00 
   140005b18:	48 89 d9             	mov    %rbx,%rcx
   140005b1b:	e8 e0 21 00 00       	call   140007d00 <__b2d_D2A>
   140005b20:	8b 44 24 60          	mov    0x60(%rsp),%eax
   140005b24:	66 0f ef c9          	pxor   %xmm1,%xmm1
   140005b28:	66 49 0f 7e c1       	movq   %xmm0,%r9
   140005b2d:	4c 89 ca             	mov    %r9,%rdx
   140005b30:	46 8d 04 30          	lea    (%rax,%r14,1),%r8d
   140005b34:	44 89 c8             	mov    %r9d,%eax
   140005b37:	48 c1 ea 20          	shr    $0x20,%rdx
   140005b3b:	41 8d 48 ff          	lea    -0x1(%r8),%ecx
   140005b3f:	81 e2 ff ff 0f 00    	and    $0xfffff,%edx
   140005b45:	f2 0f 2a c9          	cvtsi2sd %ecx,%xmm1
   140005b49:	f2 0f 59 0d f7 4a 00 	mulsd  0x4af7(%rip),%xmm1        # 14000a648 <.rdata+0x28>
   140005b50:	00 
   140005b51:	81 ca 00 00 f0 3f    	or     $0x3ff00000,%edx
   140005b57:	49 89 d2             	mov    %rdx,%r10
   140005b5a:	49 c1 e2 20          	shl    $0x20,%r10
   140005b5e:	4c 09 d0             	or     %r10,%rax
   140005b61:	41 ba 01 00 00 00    	mov    $0x1,%r10d
   140005b67:	45 29 c2             	sub    %r8d,%r10d
   140005b6a:	66 48 0f 6e c0       	movq   %rax,%xmm0
   140005b6f:	85 c9                	test   %ecx,%ecx
   140005b71:	f2 0f 5c 05 b7 4a 00 	subsd  0x4ab7(%rip),%xmm0        # 14000a630 <.rdata+0x10>
   140005b78:	00 
   140005b79:	f2 0f 59 05 b7 4a 00 	mulsd  0x4ab7(%rip),%xmm0        # 14000a638 <.rdata+0x18>
   140005b80:	00 
   140005b81:	44 0f 49 d1          	cmovns %ecx,%r10d
   140005b85:	f2 0f 58 05 b3 4a 00 	addsd  0x4ab3(%rip),%xmm0        # 14000a640 <.rdata+0x20>
   140005b8c:	00 
   140005b8d:	41 81 ea 35 04 00 00 	sub    $0x435,%r10d
   140005b94:	f2 0f 58 c1          	addsd  %xmm1,%xmm0
   140005b98:	45 85 d2             	test   %r10d,%r10d
   140005b9b:	7e 15                	jle    140005bb2 <__gdtoa+0x202>
   140005b9d:	66 0f ef c9          	pxor   %xmm1,%xmm1
   140005ba1:	f2 41 0f 2a ca       	cvtsi2sd %r10d,%xmm1
   140005ba6:	f2 0f 59 0d a2 4a 00 	mulsd  0x4aa2(%rip),%xmm1        # 14000a650 <.rdata+0x30>
   140005bad:	00 
   140005bae:	f2 0f 58 c1          	addsd  %xmm1,%xmm0
   140005bb2:	66 0f ef c9          	pxor   %xmm1,%xmm1
   140005bb6:	f2 44 0f 2c d8       	cvttsd2si %xmm0,%r11d
   140005bbb:	66 0f 2f c8          	comisd %xmm0,%xmm1
   140005bbf:	0f 87 eb 04 00 00    	ja     1400060b0 <__gdtoa+0x700>
   140005bc5:	41 89 ca             	mov    %ecx,%r10d
   140005bc8:	89 c0                	mov    %eax,%eax
   140005bca:	41 c1 e2 14          	shl    $0x14,%r10d
   140005bce:	44 01 d2             	add    %r10d,%edx
   140005bd1:	89 d2                	mov    %edx,%edx
   140005bd3:	48 c1 e2 20          	shl    $0x20,%rdx
   140005bd7:	48 09 d0             	or     %rdx,%rax
   140005bda:	48 89 84 24 90 00 00 	mov    %rax,0x90(%rsp)
   140005be1:	00 
   140005be2:	49 89 c7             	mov    %rax,%r15
   140005be5:	49 89 c1             	mov    %rax,%r9
   140005be8:	44 89 f0             	mov    %r14d,%eax
   140005beb:	29 c8                	sub    %ecx,%eax
   140005bed:	8d 50 ff             	lea    -0x1(%rax),%edx
   140005bf0:	89 54 24 5c          	mov    %edx,0x5c(%rsp)
   140005bf4:	41 83 fb 16          	cmp    $0x16,%r11d
   140005bf8:	0f 87 5a 01 00 00    	ja     140005d58 <__gdtoa+0x3a8>
   140005bfe:	48 8b 15 2b 4d 00 00 	mov    0x4d2b(%rip),%rdx        # 14000a930 <.refptr.__tens_D2A>
   140005c05:	49 63 cb             	movslq %r11d,%rcx
   140005c08:	66 49 0f 6e ef       	movq   %r15,%xmm5
   140005c0d:	f2 0f 10 04 ca       	movsd  (%rdx,%rcx,8),%xmm0
   140005c12:	66 0f 2f c5          	comisd %xmm5,%xmm0
   140005c16:	0f 87 14 05 00 00    	ja     140006130 <__gdtoa+0x780>
   140005c1c:	c7 84 24 84 00 00 00 	movl   $0x0,0x84(%rsp)
   140005c23:	00 00 00 00 
   140005c27:	c7 44 24 70 00 00 00 	movl   $0x0,0x70(%rsp)
   140005c2e:	00 
   140005c2f:	85 c0                	test   %eax,%eax
   140005c31:	7f 1d                	jg     140005c50 <__gdtoa+0x2a0>
   140005c33:	ba 01 00 00 00       	mov    $0x1,%edx
   140005c38:	c7 44 24 5c 00 00 00 	movl   $0x0,0x5c(%rsp)
   140005c3f:	00 
   140005c40:	29 c2                	sub    %eax,%edx
   140005c42:	89 54 24 70          	mov    %edx,0x70(%rsp)
   140005c46:	66 2e 0f 1f 84 00 00 	cs nopw 0x0(%rax,%rax,1)
   140005c4d:	00 00 00 
   140005c50:	44 01 5c 24 5c       	add    %r11d,0x5c(%rsp)
   140005c55:	44 89 5c 24 78       	mov    %r11d,0x78(%rsp)
   140005c5a:	c7 84 24 80 00 00 00 	movl   $0x0,0x80(%rsp)
   140005c61:	00 00 00 00 
   140005c65:	e9 40 01 00 00       	jmp    140005daa <__gdtoa+0x3fa>
   140005c6a:	66 0f 1f 44 00 00    	nopw   0x0(%rax,%rax,1)
   140005c70:	31 f6                	xor    %esi,%esi
   140005c72:	83 f8 04             	cmp    $0x4,%eax
   140005c75:	75 66                	jne    140005cdd <__gdtoa+0x32d>
   140005c77:	48 8b 44 24 20       	mov    0x20(%rsp),%rax
   140005c7c:	48 8b 54 24 28       	mov    0x28(%rsp),%rdx
   140005c81:	41 b8 03 00 00 00    	mov    $0x3,%r8d
   140005c87:	48 8d 0d 9b 49 00 00 	lea    0x499b(%rip),%rcx        # 14000a629 <.rdata+0x9>
   140005c8e:	c7 00 00 80 ff ff    	movl   $0xffff8000,(%rax)
   140005c94:	48 81 c4 b8 00 00 00 	add    $0xb8,%rsp
   140005c9b:	5b                   	pop    %rbx
   140005c9c:	5e                   	pop    %rsi
   140005c9d:	5f                   	pop    %rdi
   140005c9e:	5d                   	pop    %rbp
   140005c9f:	41 5c                	pop    %r12
   140005ca1:	41 5d                	pop    %r13
   140005ca3:	41 5e                	pop    %r14
   140005ca5:	41 5f                	pop    %r15
   140005ca7:	e9 d4 fa ff ff       	jmp    140005780 <__nrv_alloc_D2A>
   140005cac:	0f 1f 40 00          	nopl   0x0(%rax)
   140005cb0:	48 89 d9             	mov    %rbx,%rcx
   140005cb3:	e8 38 18 00 00       	call   1400074f0 <__Bfree_D2A>
   140005cb8:	48 8b 44 24 20       	mov    0x20(%rsp),%rax
   140005cbd:	48 8b 54 24 28       	mov    0x28(%rsp),%rdx
   140005cc2:	41 b8 01 00 00 00    	mov    $0x1,%r8d
   140005cc8:	48 8d 0d 5e 49 00 00 	lea    0x495e(%rip),%rcx        # 14000a62d <.rdata+0xd>
   140005ccf:	c7 00 01 00 00 00    	movl   $0x1,(%rax)
   140005cd5:	e8 a6 fa ff ff       	call   140005780 <__nrv_alloc_D2A>
   140005cda:	48 89 c6             	mov    %rax,%rsi
   140005cdd:	48 89 f0             	mov    %rsi,%rax
   140005ce0:	48 81 c4 b8 00 00 00 	add    $0xb8,%rsp
   140005ce7:	5b                   	pop    %rbx
   140005ce8:	5e                   	pop    %rsi
   140005ce9:	5f                   	pop    %rdi
   140005cea:	5d                   	pop    %rbp
   140005ceb:	41 5c                	pop    %r12
   140005ced:	41 5d                	pop    %r13
   140005cef:	41 5e                	pop    %r14
   140005cf1:	41 5f                	pop    %r15
   140005cf3:	c3                   	ret
   140005cf4:	0f 1f 40 00          	nopl   0x0(%rax)
   140005cf8:	48 8b 44 24 20       	mov    0x20(%rsp),%rax
   140005cfd:	48 8b 54 24 28       	mov    0x28(%rsp),%rdx
   140005d02:	41 b8 08 00 00 00    	mov    $0x8,%r8d
   140005d08:	48 8d 0d 11 49 00 00 	lea    0x4911(%rip),%rcx        # 14000a620 <.rdata>
   140005d0f:	c7 00 00 80 ff ff    	movl   $0xffff8000,(%rax)
   140005d15:	e9 7a ff ff ff       	jmp    140005c94 <__gdtoa+0x2e4>
   140005d1a:	66 0f 1f 44 00 00    	nopw   0x0(%rax,%rax,1)
   140005d20:	c7 43 14 00 00 00 00 	movl   $0x0,0x14(%rbx)
   140005d27:	e9 b8 fd ff ff       	jmp    140005ae4 <__gdtoa+0x134>
   140005d2c:	0f 1f 40 00          	nopl   0x0(%rax)
   140005d30:	89 c2                	mov    %eax,%edx
   140005d32:	48 89 d9             	mov    %rbx,%rcx
   140005d35:	e8 56 14 00 00       	call   140007190 <__rshift_D2A>
   140005d3a:	8b 84 24 ac 00 00 00 	mov    0xac(%rsp),%eax
   140005d41:	8b 4c 24 30          	mov    0x30(%rsp),%ecx
   140005d45:	01 c1                	add    %eax,%ecx
   140005d47:	41 29 c6             	sub    %eax,%r14d
   140005d4a:	89 4c 24 60          	mov    %ecx,0x60(%rsp)
   140005d4e:	e9 b0 fd ff ff       	jmp    140005b03 <__gdtoa+0x153>
   140005d53:	0f 1f 44 00 00       	nopl   0x0(%rax,%rax,1)
   140005d58:	c7 84 24 84 00 00 00 	movl   $0x1,0x84(%rsp)
   140005d5f:	01 00 00 00 
   140005d63:	44 8b 54 24 5c       	mov    0x5c(%rsp),%r10d
   140005d68:	c7 44 24 70 00 00 00 	movl   $0x0,0x70(%rsp)
   140005d6f:	00 
   140005d70:	45 85 d2             	test   %r10d,%r10d
   140005d73:	79 13                	jns    140005d88 <__gdtoa+0x3d8>
   140005d75:	ba 01 00 00 00       	mov    $0x1,%edx
   140005d7a:	c7 44 24 5c 00 00 00 	movl   $0x0,0x5c(%rsp)
   140005d81:	00 
   140005d82:	29 c2                	sub    %eax,%edx
   140005d84:	89 54 24 70          	mov    %edx,0x70(%rsp)
   140005d88:	45 85 db             	test   %r11d,%r11d
   140005d8b:	0f 89 bf fe ff ff    	jns    140005c50 <__gdtoa+0x2a0>
   140005d91:	44 89 d8             	mov    %r11d,%eax
   140005d94:	44 29 5c 24 70       	sub    %r11d,0x70(%rsp)
   140005d99:	f7 d8                	neg    %eax
   140005d9b:	44 89 5c 24 78       	mov    %r11d,0x78(%rsp)
   140005da0:	45 31 db             	xor    %r11d,%r11d
   140005da3:	89 84 24 80 00 00 00 	mov    %eax,0x80(%rsp)
   140005daa:	83 ff 09             	cmp    $0x9,%edi
   140005dad:	0f 87 6d 02 00 00    	ja     140006020 <__gdtoa+0x670>
   140005db3:	83 ff 05             	cmp    $0x5,%edi
   140005db6:	0f 8f 14 03 00 00    	jg     1400060d0 <__gdtoa+0x720>
   140005dbc:	41 81 c0 fd 03 00 00 	add    $0x3fd,%r8d
   140005dc3:	31 c0                	xor    %eax,%eax
   140005dc5:	41 81 f8 f7 07 00 00 	cmp    $0x7f7,%r8d
   140005dcc:	0f 96 c0             	setbe  %al
   140005dcf:	41 89 c7             	mov    %eax,%r15d
   140005dd2:	83 ff 04             	cmp    $0x4,%edi
   140005dd5:	0f 84 49 0d 00 00    	je     140006b24 <__gdtoa+0x1174>
   140005ddb:	83 ff 05             	cmp    $0x5,%edi
   140005dde:	0f 84 a4 0b 00 00    	je     140006988 <__gdtoa+0xfd8>
   140005de4:	83 ff 02             	cmp    $0x2,%edi
   140005de7:	0f 85 f3 06 00 00    	jne    1400064e0 <__gdtoa+0xb30>
   140005ded:	c7 44 24 7c 00 00 00 	movl   $0x0,0x7c(%rsp)
   140005df4:	00 
   140005df5:	8b 44 24 38          	mov    0x38(%rsp),%eax
   140005df9:	b9 01 00 00 00       	mov    $0x1,%ecx
   140005dfe:	85 c0                	test   %eax,%eax
   140005e00:	0f 4f c8             	cmovg  %eax,%ecx
   140005e03:	89 8c 24 9c 00 00 00 	mov    %ecx,0x9c(%rsp)
   140005e0a:	89 c8                	mov    %ecx,%eax
   140005e0c:	89 4c 24 50          	mov    %ecx,0x50(%rsp)
   140005e10:	89 4c 24 38          	mov    %ecx,0x38(%rsp)
   140005e14:	4c 89 8c 24 88 00 00 	mov    %r9,0x88(%rsp)
   140005e1b:	00 
   140005e1c:	44 89 9c 24 98 00 00 	mov    %r11d,0x98(%rsp)
   140005e23:	00 
   140005e24:	89 84 24 ac 00 00 00 	mov    %eax,0xac(%rsp)
   140005e2b:	e8 10 f9 ff ff       	call   140005740 <__rv_alloc_D2A>
   140005e30:	44 8b 9c 24 98 00 00 	mov    0x98(%rsp),%r11d
   140005e37:	00 
   140005e38:	4c 8b 8c 24 88 00 00 	mov    0x88(%rsp),%r9
   140005e3f:	00 
   140005e40:	48 89 44 24 68       	mov    %rax,0x68(%rsp)
   140005e45:	41 8b 45 0c          	mov    0xc(%r13),%eax
   140005e49:	83 e8 01             	sub    $0x1,%eax
   140005e4c:	89 44 24 58          	mov    %eax,0x58(%rsp)
   140005e50:	74 28                	je     140005e7a <__gdtoa+0x4ca>
   140005e52:	8b 4c 24 58          	mov    0x58(%rsp),%ecx
   140005e56:	b8 02 00 00 00       	mov    $0x2,%eax
   140005e5b:	85 c9                	test   %ecx,%ecx
   140005e5d:	0f 49 c1             	cmovns %ecx,%eax
   140005e60:	83 e5 08             	and    $0x8,%ebp
   140005e63:	89 44 24 58          	mov    %eax,0x58(%rsp)
   140005e67:	89 c1                	mov    %eax,%ecx
   140005e69:	0f 84 31 04 00 00    	je     1400062a0 <__gdtoa+0x8f0>
   140005e6f:	b8 03 00 00 00       	mov    $0x3,%eax
   140005e74:	29 c8                	sub    %ecx,%eax
   140005e76:	89 44 24 58          	mov    %eax,0x58(%rsp)
   140005e7a:	8b 54 24 50          	mov    0x50(%rsp),%edx
   140005e7e:	45 89 fa             	mov    %r15d,%r10d
   140005e81:	83 fa 0e             	cmp    $0xe,%edx
   140005e84:	0f 96 c0             	setbe  %al
   140005e87:	41 20 c2             	and    %al,%r10b
   140005e8a:	0f 84 10 04 00 00    	je     1400062a0 <__gdtoa+0x8f0>
   140005e90:	8b 44 24 78          	mov    0x78(%rsp),%eax
   140005e94:	0b 44 24 58          	or     0x58(%rsp),%eax
   140005e98:	0f 85 02 04 00 00    	jne    1400062a0 <__gdtoa+0x8f0>
   140005e9e:	f2 0f 10 84 24 90 00 	movsd  0x90(%rsp),%xmm0
   140005ea5:	00 00 
   140005ea7:	8b 8c 24 84 00 00 00 	mov    0x84(%rsp),%ecx
   140005eae:	c7 84 24 ac 00 00 00 	movl   $0x0,0xac(%rsp)
   140005eb5:	00 00 00 00 
   140005eb9:	85 c9                	test   %ecx,%ecx
   140005ebb:	74 12                	je     140005ecf <__gdtoa+0x51f>
   140005ebd:	f2 0f 10 25 9b 47 00 	movsd  0x479b(%rip),%xmm4        # 14000a660 <.rdata+0x40>
   140005ec4:	00 
   140005ec5:	66 0f 2f e0          	comisd %xmm0,%xmm4
   140005ec9:	0f 87 cb 0e 00 00    	ja     140006d9a <__gdtoa+0x13ea>
   140005ecf:	66 0f 28 c8          	movapd %xmm0,%xmm1
   140005ed3:	f2 0f 58 c8          	addsd  %xmm0,%xmm1
   140005ed7:	f2 0f 58 0d 99 47 00 	addsd  0x4799(%rip),%xmm1        # 14000a678 <.rdata+0x58>
   140005ede:	00 
   140005edf:	66 48 0f 7e c8       	movq   %xmm1,%rax
   140005ee4:	48 89 c2             	mov    %rax,%rdx
   140005ee7:	89 c0                	mov    %eax,%eax
   140005ee9:	48 c1 ea 20          	shr    $0x20,%rdx
   140005eed:	81 ea 00 00 40 03    	sub    $0x3400000,%edx
   140005ef3:	48 c1 e2 20          	shl    $0x20,%rdx
   140005ef7:	48 09 d0             	or     %rdx,%rax
   140005efa:	8b 54 24 50          	mov    0x50(%rsp),%edx
   140005efe:	85 d2                	test   %edx,%edx
   140005f00:	0f 84 5f 03 00 00    	je     140006265 <__gdtoa+0x8b5>
   140005f06:	8b 6c 24 50          	mov    0x50(%rsp),%ebp
   140005f0a:	45 31 ff             	xor    %r15d,%r15d
   140005f0d:	48 8b 15 1c 4a 00 00 	mov    0x4a1c(%rip),%rdx        # 14000a930 <.refptr.__tens_D2A>
   140005f14:	66 48 0f 6e d0       	movq   %rax,%xmm2
   140005f19:	8d 45 ff             	lea    -0x1(%rbp),%eax
   140005f1c:	48 98                	cltq
   140005f1e:	f2 0f 10 1c c2       	movsd  (%rdx,%rax,8),%xmm3
   140005f23:	8b 44 24 7c          	mov    0x7c(%rsp),%eax
   140005f27:	85 c0                	test   %eax,%eax
   140005f29:	0f 84 e6 05 00 00    	je     140006515 <__gdtoa+0xb65>
   140005f2f:	f2 0f 10 0d 69 47 00 	movsd  0x4769(%rip),%xmm1        # 14000a6a0 <.rdata+0x80>
   140005f36:	00 
   140005f37:	f2 0f 2c c0          	cvttsd2si %xmm0,%eax
   140005f3b:	48 8b 4c 24 68       	mov    0x68(%rsp),%rcx
   140005f40:	f2 0f 5e cb          	divsd  %xmm3,%xmm1
   140005f44:	48 8d 51 01          	lea    0x1(%rcx),%rdx
   140005f48:	f2 0f 5c ca          	subsd  %xmm2,%xmm1
   140005f4c:	66 0f ef d2          	pxor   %xmm2,%xmm2
   140005f50:	f2 0f 2a d0          	cvtsi2sd %eax,%xmm2
   140005f54:	83 c0 30             	add    $0x30,%eax
   140005f57:	88 01                	mov    %al,(%rcx)
   140005f59:	f2 0f 5c c2          	subsd  %xmm2,%xmm0
   140005f5d:	66 0f 2f c8          	comisd %xmm0,%xmm1
   140005f61:	0f 87 61 10 00 00    	ja     140006fc8 <__gdtoa+0x1618>
   140005f67:	f2 0f 10 25 f1 46 00 	movsd  0x46f1(%rip),%xmm4        # 14000a660 <.rdata+0x40>
   140005f6e:	00 
   140005f6f:	f2 0f 10 1d f1 46 00 	movsd  0x46f1(%rip),%xmm3        # 14000a668 <.rdata+0x48>
   140005f76:	00 
   140005f77:	eb 4c                	jmp    140005fc5 <__gdtoa+0x615>
   140005f79:	0f 1f 80 00 00 00 00 	nopl   0x0(%rax)
   140005f80:	8b 84 24 ac 00 00 00 	mov    0xac(%rsp),%eax
   140005f87:	83 c0 01             	add    $0x1,%eax
   140005f8a:	89 84 24 ac 00 00 00 	mov    %eax,0xac(%rsp)
   140005f91:	39 e8                	cmp    %ebp,%eax
   140005f93:	0f 8d f5 02 00 00    	jge    14000628e <__gdtoa+0x8de>
   140005f99:	f2 0f 59 c3          	mulsd  %xmm3,%xmm0
   140005f9d:	66 0f ef d2          	pxor   %xmm2,%xmm2
   140005fa1:	48 83 c2 01          	add    $0x1,%rdx
   140005fa5:	f2 0f 59 cb          	mulsd  %xmm3,%xmm1
   140005fa9:	f2 0f 2c c0          	cvttsd2si %xmm0,%eax
   140005fad:	f2 0f 2a d0          	cvtsi2sd %eax,%xmm2
   140005fb1:	83 c0 30             	add    $0x30,%eax
   140005fb4:	88 42 ff             	mov    %al,-0x1(%rdx)
   140005fb7:	f2 0f 5c c2          	subsd  %xmm2,%xmm0
   140005fbb:	66 0f 2f c8          	comisd %xmm0,%xmm1
   140005fbf:	0f 87 03 10 00 00    	ja     140006fc8 <__gdtoa+0x1618>
   140005fc5:	66 0f 28 d4          	movapd %xmm4,%xmm2
   140005fc9:	f2 0f 5c d0          	subsd  %xmm0,%xmm2
   140005fcd:	66 0f 2f ca          	comisd %xmm2,%xmm1
   140005fd1:	76 ad                	jbe    140005f80 <__gdtoa+0x5d0>
   140005fd3:	44 0f b6 42 ff       	movzbl -0x1(%rdx),%r8d
   140005fd8:	48 8b 74 24 68       	mov    0x68(%rsp),%rsi
   140005fdd:	eb 12                	jmp    140005ff1 <__gdtoa+0x641>
   140005fdf:	90                   	nop
   140005fe0:	48 39 c6             	cmp    %rax,%rsi
   140005fe3:	0f 84 b2 0e 00 00    	je     140006e9b <__gdtoa+0x14eb>
   140005fe9:	44 0f b6 40 ff       	movzbl -0x1(%rax),%r8d
   140005fee:	48 89 c2             	mov    %rax,%rdx
   140005ff1:	48 8d 42 ff          	lea    -0x1(%rdx),%rax
   140005ff5:	41 80 f8 39          	cmp    $0x39,%r8b
   140005ff9:	74 e5                	je     140005fe0 <__gdtoa+0x630>
   140005ffb:	48 89 54 24 68       	mov    %rdx,0x68(%rsp)
   140006000:	41 83 c0 01          	add    $0x1,%r8d
   140006004:	44 88 00             	mov    %r8b,(%rax)
   140006007:	41 83 c7 01          	add    $0x1,%r15d
   14000600b:	c7 44 24 48 20 00 00 	movl   $0x20,0x48(%rsp)
   140006012:	00 
   140006013:	e9 ed 01 00 00       	jmp    140006205 <__gdtoa+0x855>
   140006018:	0f 1f 84 00 00 00 00 	nopl   0x0(%rax,%rax,1)
   14000601f:	00 
   140006020:	41 81 c0 fd 03 00 00 	add    $0x3fd,%r8d
   140006027:	31 c0                	xor    %eax,%eax
   140006029:	41 81 f8 f7 07 00 00 	cmp    $0x7f7,%r8d
   140006030:	0f 96 c0             	setbe  %al
   140006033:	31 ff                	xor    %edi,%edi
   140006035:	41 89 c7             	mov    %eax,%r15d
   140006038:	66 0f ef c0          	pxor   %xmm0,%xmm0
   14000603c:	4c 89 4c 24 50       	mov    %r9,0x50(%rsp)
   140006041:	f2 41 0f 2a c4       	cvtsi2sd %r12d,%xmm0
   140006046:	f2 0f 59 05 0a 46 00 	mulsd  0x460a(%rip),%xmm0        # 14000a658 <.rdata+0x38>
   14000604d:	00 
   14000604e:	44 89 5c 24 38       	mov    %r11d,0x38(%rsp)
   140006053:	f2 0f 2c c8          	cvttsd2si %xmm0,%ecx
   140006057:	83 c1 03             	add    $0x3,%ecx
   14000605a:	89 8c 24 ac 00 00 00 	mov    %ecx,0xac(%rsp)
   140006061:	e8 da f6 ff ff       	call   140005740 <__rv_alloc_D2A>
   140006066:	44 8b 5c 24 38       	mov    0x38(%rsp),%r11d
   14000606b:	4c 8b 4c 24 50       	mov    0x50(%rsp),%r9
   140006070:	48 89 44 24 68       	mov    %rax,0x68(%rsp)
   140006075:	41 8b 45 0c          	mov    0xc(%r13),%eax
   140006079:	83 e8 01             	sub    $0x1,%eax
   14000607c:	89 44 24 58          	mov    %eax,0x58(%rsp)
   140006080:	0f 84 be 00 00 00    	je     140006144 <__gdtoa+0x794>
   140006086:	c7 44 24 38 00 00 00 	movl   $0x0,0x38(%rsp)
   14000608d:	00 
   14000608e:	c7 44 24 7c 01 00 00 	movl   $0x1,0x7c(%rsp)
   140006095:	00 
   140006096:	c7 84 24 9c 00 00 00 	movl   $0xffffffff,0x9c(%rsp)
   14000609d:	ff ff ff ff 
   1400060a1:	c7 44 24 50 ff ff ff 	movl   $0xffffffff,0x50(%rsp)
   1400060a8:	ff 
   1400060a9:	e9 a4 fd ff ff       	jmp    140005e52 <__gdtoa+0x4a2>
   1400060ae:	66 90                	xchg   %ax,%ax
   1400060b0:	66 0f ef c9          	pxor   %xmm1,%xmm1
   1400060b4:	f2 41 0f 2a cb       	cvtsi2sd %r11d,%xmm1
   1400060b9:	66 0f 2e c8          	ucomisd %xmm0,%xmm1
   1400060bd:	7a 06                	jp     1400060c5 <__gdtoa+0x715>
   1400060bf:	0f 84 00 fb ff ff    	je     140005bc5 <__gdtoa+0x215>
   1400060c5:	41 83 eb 01          	sub    $0x1,%r11d
   1400060c9:	e9 f7 fa ff ff       	jmp    140005bc5 <__gdtoa+0x215>
   1400060ce:	66 90                	xchg   %ax,%ax
   1400060d0:	83 ef 04             	sub    $0x4,%edi
   1400060d3:	45 31 ff             	xor    %r15d,%r15d
   1400060d6:	83 ff 04             	cmp    $0x4,%edi
   1400060d9:	0f 84 45 0a 00 00    	je     140006b24 <__gdtoa+0x1174>
   1400060df:	83 ff 05             	cmp    $0x5,%edi
   1400060e2:	0f 84 a0 08 00 00    	je     140006988 <__gdtoa+0xfd8>
   1400060e8:	c7 44 24 7c 00 00 00 	movl   $0x0,0x7c(%rsp)
   1400060ef:	00 
   1400060f0:	83 ff 02             	cmp    $0x2,%edi
   1400060f3:	0f 84 fc fc ff ff    	je     140005df5 <__gdtoa+0x445>
   1400060f9:	bf 03 00 00 00       	mov    $0x3,%edi
   1400060fe:	66 90                	xchg   %ax,%ax
   140006100:	8b 4c 24 38          	mov    0x38(%rsp),%ecx
   140006104:	8b 44 24 78          	mov    0x78(%rsp),%eax
   140006108:	01 c8                	add    %ecx,%eax
   14000610a:	8d 50 01             	lea    0x1(%rax),%edx
   14000610d:	89 84 24 9c 00 00 00 	mov    %eax,0x9c(%rsp)
   140006114:	b8 01 00 00 00       	mov    $0x1,%eax
   140006119:	85 d2                	test   %edx,%edx
   14000611b:	89 54 24 50          	mov    %edx,0x50(%rsp)
   14000611f:	0f 4f c2             	cmovg  %edx,%eax
   140006122:	89 c1                	mov    %eax,%ecx
   140006124:	e9 eb fc ff ff       	jmp    140005e14 <__gdtoa+0x464>
   140006129:	0f 1f 80 00 00 00 00 	nopl   0x0(%rax)
   140006130:	c7 84 24 84 00 00 00 	movl   $0x0,0x84(%rsp)
   140006137:	00 00 00 00 
   14000613b:	41 83 eb 01          	sub    $0x1,%r11d
   14000613f:	e9 1f fc ff ff       	jmp    140005d63 <__gdtoa+0x3b3>
   140006144:	8b 44 24 60          	mov    0x60(%rsp),%eax
   140006148:	c7 44 24 38 00 00 00 	movl   $0x0,0x38(%rsp)
   14000614f:	00 
   140006150:	c7 44 24 50 ff ff ff 	movl   $0xffffffff,0x50(%rsp)
   140006157:	ff 
   140006158:	85 c0                	test   %eax,%eax
   14000615a:	0f 88 e4 0d 00 00    	js     140006f44 <__gdtoa+0x1594>
   140006160:	c7 44 24 7c 01 00 00 	movl   $0x1,0x7c(%rsp)
   140006167:	00 
   140006168:	c7 84 24 9c 00 00 00 	movl   $0xffffffff,0x9c(%rsp)
   14000616f:	ff ff ff ff 
   140006173:	0f 1f 44 00 00       	nopl   0x0(%rax,%rax,1)
   140006178:	8b 44 24 78          	mov    0x78(%rsp),%eax
   14000617c:	41 3b 45 14          	cmp    0x14(%r13),%eax
   140006180:	0f 8f 28 01 00 00    	jg     1400062ae <__gdtoa+0x8fe>
   140006186:	48 8b 15 a3 47 00 00 	mov    0x47a3(%rip),%rdx        # 14000a930 <.refptr.__tens_D2A>
   14000618d:	48 63 44 24 78       	movslq 0x78(%rsp),%rax
   140006192:	8b 4c 24 38          	mov    0x38(%rsp),%ecx
   140006196:	f2 0f 10 14 c2       	movsd  (%rdx,%rax,8),%xmm2
   14000619b:	48 89 c6             	mov    %rax,%rsi
   14000619e:	85 c9                	test   %ecx,%ecx
   1400061a0:	0f 89 96 08 00 00    	jns    140006a3c <__gdtoa+0x108c>
   1400061a6:	8b 44 24 50          	mov    0x50(%rsp),%eax
   1400061aa:	85 c0                	test   %eax,%eax
   1400061ac:	0f 8f 8a 08 00 00    	jg     140006a3c <__gdtoa+0x108c>
   1400061b2:	0f 85 3e 03 00 00    	jne    1400064f6 <__gdtoa+0xb46>
   1400061b8:	f2 0f 59 15 c0 44 00 	mulsd  0x44c0(%rip),%xmm2        # 14000a680 <.rdata+0x60>
   1400061bf:	00 
   1400061c0:	66 0f 2f 94 24 90 00 	comisd 0x90(%rsp),%xmm2
   1400061c7:	00 00 
   1400061c9:	0f 83 27 03 00 00    	jae    1400064f6 <__gdtoa+0xb46>
   1400061cf:	83 c6 02             	add    $0x2,%esi
   1400061d2:	45 31 d2             	xor    %r10d,%r10d
   1400061d5:	31 ed                	xor    %ebp,%ebp
   1400061d7:	41 89 f7             	mov    %esi,%r15d
   1400061da:	48 8b 74 24 68       	mov    0x68(%rsp),%rsi
   1400061df:	48 83 44 24 68 01    	addq   $0x1,0x68(%rsp)
   1400061e5:	c6 06 31             	movb   $0x31,(%rsi)
   1400061e8:	c7 44 24 48 20 00 00 	movl   $0x20,0x48(%rsp)
   1400061ef:	00 
   1400061f0:	4c 89 d1             	mov    %r10,%rcx
   1400061f3:	e8 f8 12 00 00       	call   1400074f0 <__Bfree_D2A>
   1400061f8:	48 85 ed             	test   %rbp,%rbp
   1400061fb:	74 08                	je     140006205 <__gdtoa+0x855>
   1400061fd:	48 89 e9             	mov    %rbp,%rcx
   140006200:	e8 eb 12 00 00       	call   1400074f0 <__Bfree_D2A>
   140006205:	48 89 d9             	mov    %rbx,%rcx
   140006208:	e8 e3 12 00 00       	call   1400074f0 <__Bfree_D2A>
   14000620d:	48 8b 7c 24 20       	mov    0x20(%rsp),%rdi
   140006212:	48 8b 44 24 68       	mov    0x68(%rsp),%rax
   140006217:	c6 00 00             	movb   $0x0,(%rax)
   14000621a:	44 89 3f             	mov    %r15d,(%rdi)
   14000621d:	48 8b 7c 24 28       	mov    0x28(%rsp),%rdi
   140006222:	48 85 ff             	test   %rdi,%rdi
   140006225:	74 03                	je     14000622a <__gdtoa+0x87a>
   140006227:	48 89 07             	mov    %rax,(%rdi)
   14000622a:	48 8b 44 24 40       	mov    0x40(%rsp),%rax
   14000622f:	8b 7c 24 48          	mov    0x48(%rsp),%edi
   140006233:	09 38                	or     %edi,(%rax)
   140006235:	e9 a3 fa ff ff       	jmp    140005cdd <__gdtoa+0x32d>
   14000623a:	66 0f 28 c8          	movapd %xmm0,%xmm1
   14000623e:	f2 0f 58 c8          	addsd  %xmm0,%xmm1
   140006242:	f2 0f 58 0d 2e 44 00 	addsd  0x442e(%rip),%xmm1        # 14000a678 <.rdata+0x58>
   140006249:	00 
   14000624a:	66 48 0f 7e c8       	movq   %xmm1,%rax
   14000624f:	48 89 c2             	mov    %rax,%rdx
   140006252:	89 c0                	mov    %eax,%eax
   140006254:	48 c1 ea 20          	shr    $0x20,%rdx
   140006258:	81 ea 00 00 40 03    	sub    $0x3400000,%edx
   14000625e:	48 c1 e2 20          	shl    $0x20,%rdx
   140006262:	48 09 d0             	or     %rdx,%rax
   140006265:	f2 0f 5c 05 13 44 00 	subsd  0x4413(%rip),%xmm0        # 14000a680 <.rdata+0x60>
   14000626c:	00 
   14000626d:	66 48 0f 6e c8       	movq   %rax,%xmm1
   140006272:	66 0f 2f c1          	comisd %xmm1,%xmm0
   140006276:	0f 87 bf 0b 00 00    	ja     140006e3b <__gdtoa+0x148b>
   14000627c:	66 0f 57 0d 0c 44 00 	xorpd  0x440c(%rip),%xmm1        # 14000a690 <.rdata+0x70>
   140006283:	00 
   140006284:	66 0f 2f c8          	comisd %xmm0,%xmm1
   140006288:	0f 87 68 02 00 00    	ja     1400064f6 <__gdtoa+0xb46>
   14000628e:	c7 44 24 58 00 00 00 	movl   $0x0,0x58(%rsp)
   140006295:	00 
   140006296:	66 2e 0f 1f 84 00 00 	cs nopw 0x0(%rax,%rax,1)
   14000629d:	00 00 00 
   1400062a0:	44 8b 44 24 60       	mov    0x60(%rsp),%r8d
   1400062a5:	45 85 c0             	test   %r8d,%r8d
   1400062a8:	0f 89 ca fe ff ff    	jns    140006178 <__gdtoa+0x7c8>
   1400062ae:	8b 54 24 7c          	mov    0x7c(%rsp),%edx
   1400062b2:	85 d2                	test   %edx,%edx
   1400062b4:	0f 84 1e 03 00 00    	je     1400065d8 <__gdtoa+0xc28>
   1400062ba:	44 8b 7c 24 60       	mov    0x60(%rsp),%r15d
   1400062bf:	45 29 f4             	sub    %r14d,%r12d
   1400062c2:	41 8b 55 04          	mov    0x4(%r13),%edx
   1400062c6:	41 8d 44 24 01       	lea    0x1(%r12),%eax
   1400062cb:	44 89 f9             	mov    %r15d,%ecx
   1400062ce:	89 84 24 ac 00 00 00 	mov    %eax,0xac(%rsp)
   1400062d5:	44 29 e1             	sub    %r12d,%ecx
   1400062d8:	39 d1                	cmp    %edx,%ecx
   1400062da:	0f 8d 38 07 00 00    	jge    140006a18 <__gdtoa+0x1068>
   1400062e0:	8d 47 fd             	lea    -0x3(%rdi),%eax
   1400062e3:	83 e0 fd             	and    $0xfffffffd,%eax
   1400062e6:	0f 84 e4 06 00 00    	je     1400069d0 <__gdtoa+0x1020>
   1400062ec:	44 89 f8             	mov    %r15d,%eax
   1400062ef:	44 8b 7c 24 50       	mov    0x50(%rsp),%r15d
   1400062f4:	29 d0                	sub    %edx,%eax
   1400062f6:	83 c0 01             	add    $0x1,%eax
   1400062f9:	83 ff 01             	cmp    $0x1,%edi
   1400062fc:	0f 9f c1             	setg   %cl
   1400062ff:	45 85 ff             	test   %r15d,%r15d
   140006302:	89 84 24 ac 00 00 00 	mov    %eax,0xac(%rsp)
   140006309:	0f 9f c2             	setg   %dl
   14000630c:	84 d1                	test   %dl,%cl
   14000630e:	74 09                	je     140006319 <__gdtoa+0x969>
   140006310:	44 39 f8             	cmp    %r15d,%eax
   140006313:	0f 8f a1 0d 00 00    	jg     1400070ba <__gdtoa+0x170a>
   140006319:	8b 54 24 70          	mov    0x70(%rsp),%edx
   14000631d:	01 44 24 5c          	add    %eax,0x5c(%rsp)
   140006321:	44 8b a4 24 80 00 00 	mov    0x80(%rsp),%r12d
   140006328:	00 
   140006329:	01 d0                	add    %edx,%eax
   14000632b:	89 54 24 60          	mov    %edx,0x60(%rsp)
   14000632f:	89 44 24 70          	mov    %eax,0x70(%rsp)
   140006333:	b9 01 00 00 00       	mov    $0x1,%ecx
   140006338:	44 89 9c 24 98 00 00 	mov    %r11d,0x98(%rsp)
   14000633f:	00 
   140006340:	e8 db 12 00 00       	call   140007620 <__i2b_D2A>
   140006345:	c7 44 24 7c 01 00 00 	movl   $0x1,0x7c(%rsp)
   14000634c:	00 
   14000634d:	44 8b 9c 24 98 00 00 	mov    0x98(%rsp),%r11d
   140006354:	00 
   140006355:	48 89 c5             	mov    %rax,%rbp
   140006358:	8b 4c 24 60          	mov    0x60(%rsp),%ecx
   14000635c:	85 c9                	test   %ecx,%ecx
   14000635e:	7e 26                	jle    140006386 <__gdtoa+0x9d6>
   140006360:	8b 54 24 5c          	mov    0x5c(%rsp),%edx
   140006364:	85 d2                	test   %edx,%edx
   140006366:	7e 1e                	jle    140006386 <__gdtoa+0x9d6>
   140006368:	39 d1                	cmp    %edx,%ecx
   14000636a:	89 d0                	mov    %edx,%eax
   14000636c:	0f 4e c1             	cmovle %ecx,%eax
   14000636f:	29 44 24 70          	sub    %eax,0x70(%rsp)
   140006373:	29 c1                	sub    %eax,%ecx
   140006375:	29 c2                	sub    %eax,%edx
   140006377:	89 84 24 ac 00 00 00 	mov    %eax,0xac(%rsp)
   14000637e:	89 4c 24 60          	mov    %ecx,0x60(%rsp)
   140006382:	89 54 24 5c          	mov    %edx,0x5c(%rsp)
   140006386:	8b 84 24 80 00 00 00 	mov    0x80(%rsp),%eax
   14000638d:	85 c0                	test   %eax,%eax
   14000638f:	74 33                	je     1400063c4 <__gdtoa+0xa14>
   140006391:	8b 44 24 7c          	mov    0x7c(%rsp),%eax
   140006395:	85 c0                	test   %eax,%eax
   140006397:	74 09                	je     1400063a2 <__gdtoa+0x9f2>
   140006399:	45 85 e4             	test   %r12d,%r12d
   14000639c:	0f 85 67 08 00 00    	jne    140006c09 <__gdtoa+0x1259>
   1400063a2:	8b 94 24 80 00 00 00 	mov    0x80(%rsp),%edx
   1400063a9:	48 89 d9             	mov    %rbx,%rcx
   1400063ac:	44 89 9c 24 98 00 00 	mov    %r11d,0x98(%rsp)
   1400063b3:	00 
   1400063b4:	e8 87 14 00 00       	call   140007840 <__pow5mult_D2A>
   1400063b9:	44 8b 9c 24 98 00 00 	mov    0x98(%rsp),%r11d
   1400063c0:	00 
   1400063c1:	48 89 c3             	mov    %rax,%rbx
   1400063c4:	b9 01 00 00 00       	mov    $0x1,%ecx
   1400063c9:	44 89 9c 24 80 00 00 	mov    %r11d,0x80(%rsp)
   1400063d0:	00 
   1400063d1:	e8 4a 12 00 00       	call   140007620 <__i2b_D2A>
   1400063d6:	44 8b 9c 24 80 00 00 	mov    0x80(%rsp),%r11d
   1400063dd:	00 
   1400063de:	49 89 c2             	mov    %rax,%r10
   1400063e1:	45 85 db             	test   %r11d,%r11d
   1400063e4:	0f 85 66 05 00 00    	jne    140006950 <__gdtoa+0xfa0>
   1400063ea:	83 ff 01             	cmp    $0x1,%edi
   1400063ed:	0f 8e a5 05 00 00    	jle    140006998 <__gdtoa+0xfe8>
   1400063f3:	41 bc 1f 00 00 00    	mov    $0x1f,%r12d
   1400063f9:	8b 44 24 5c          	mov    0x5c(%rsp),%eax
   1400063fd:	41 29 c4             	sub    %eax,%r12d
   140006400:	8b 44 24 70          	mov    0x70(%rsp),%eax
   140006404:	41 83 ec 04          	sub    $0x4,%r12d
   140006408:	41 83 e4 1f          	and    $0x1f,%r12d
   14000640c:	44 01 e0             	add    %r12d,%eax
   14000640f:	44 89 a4 24 ac 00 00 	mov    %r12d,0xac(%rsp)
   140006416:	00 
   140006417:	44 89 e2             	mov    %r12d,%edx
   14000641a:	85 c0                	test   %eax,%eax
   14000641c:	7e 28                	jle    140006446 <__gdtoa+0xa96>
   14000641e:	89 c2                	mov    %eax,%edx
   140006420:	48 89 d9             	mov    %rbx,%rcx
   140006423:	4c 89 54 24 70       	mov    %r10,0x70(%rsp)
   140006428:	44 89 5c 24 30       	mov    %r11d,0x30(%rsp)
   14000642d:	e8 8e 15 00 00       	call   1400079c0 <__lshift_D2A>
   140006432:	4c 8b 54 24 70       	mov    0x70(%rsp),%r10
   140006437:	44 8b 5c 24 30       	mov    0x30(%rsp),%r11d
   14000643c:	8b 94 24 ac 00 00 00 	mov    0xac(%rsp),%edx
   140006443:	48 89 c3             	mov    %rax,%rbx
   140006446:	8b 44 24 5c          	mov    0x5c(%rsp),%eax
   14000644a:	01 d0                	add    %edx,%eax
   14000644c:	89 c2                	mov    %eax,%edx
   14000644e:	85 c0                	test   %eax,%eax
   140006450:	7e 15                	jle    140006467 <__gdtoa+0xab7>
   140006452:	4c 89 d1             	mov    %r10,%rcx
   140006455:	44 89 5c 24 30       	mov    %r11d,0x30(%rsp)
   14000645a:	e8 61 15 00 00       	call   1400079c0 <__lshift_D2A>
   14000645f:	44 8b 5c 24 30       	mov    0x30(%rsp),%r11d
   140006464:	49 89 c2             	mov    %rax,%r10
   140006467:	8b 84 24 84 00 00 00 	mov    0x84(%rsp),%eax
   14000646e:	83 ff 02             	cmp    $0x2,%edi
   140006471:	41 0f 9f c5          	setg   %r13b
   140006475:	85 c0                	test   %eax,%eax
   140006477:	0f 85 93 03 00 00    	jne    140006810 <__gdtoa+0xe60>
   14000647d:	44 8b 7c 24 50       	mov    0x50(%rsp),%r15d
   140006482:	45 85 ff             	test   %r15d,%r15d
   140006485:	0f 8f 65 01 00 00    	jg     1400065f0 <__gdtoa+0xc40>
   14000648b:	45 84 ed             	test   %r13b,%r13b
   14000648e:	0f 84 5c 01 00 00    	je     1400065f0 <__gdtoa+0xc40>
   140006494:	44 8b 74 24 50       	mov    0x50(%rsp),%r14d
   140006499:	45 85 f6             	test   %r14d,%r14d
   14000649c:	75 5d                	jne    1400064fb <__gdtoa+0xb4b>
   14000649e:	4c 89 d1             	mov    %r10,%rcx
   1400064a1:	45 31 c0             	xor    %r8d,%r8d
   1400064a4:	ba 05 00 00 00       	mov    $0x5,%edx
   1400064a9:	e8 b2 10 00 00       	call   140007560 <__multadd_D2A>
   1400064ae:	48 89 d9             	mov    %rbx,%rcx
   1400064b1:	48 89 c2             	mov    %rax,%rdx
   1400064b4:	48 89 44 24 30       	mov    %rax,0x30(%rsp)
   1400064b9:	e8 12 16 00 00       	call   140007ad0 <__cmp_D2A>
   1400064be:	4c 8b 54 24 30       	mov    0x30(%rsp),%r10
   1400064c3:	85 c0                	test   %eax,%eax
   1400064c5:	7e 34                	jle    1400064fb <__gdtoa+0xb4b>
   1400064c7:	44 8b 7c 24 78       	mov    0x78(%rsp),%r15d
   1400064cc:	48 8b 74 24 68       	mov    0x68(%rsp),%rsi
   1400064d1:	41 83 c7 02          	add    $0x2,%r15d
   1400064d5:	e9 05 fd ff ff       	jmp    1400061df <__gdtoa+0x82f>
   1400064da:	66 0f 1f 44 00 00    	nopw   0x0(%rax,%rax,1)
   1400064e0:	83 ff 03             	cmp    $0x3,%edi
   1400064e3:	0f 85 4f fb ff ff    	jne    140006038 <__gdtoa+0x688>
   1400064e9:	c7 44 24 7c 00 00 00 	movl   $0x0,0x7c(%rsp)
   1400064f0:	00 
   1400064f1:	e9 0a fc ff ff       	jmp    140006100 <__gdtoa+0x750>
   1400064f6:	45 31 d2             	xor    %r10d,%r10d
   1400064f9:	31 ed                	xor    %ebp,%ebp
   1400064fb:	44 8b 7c 24 38       	mov    0x38(%rsp),%r15d
   140006500:	c7 44 24 48 10 00 00 	movl   $0x10,0x48(%rsp)
   140006507:	00 
   140006508:	48 8b 74 24 68       	mov    0x68(%rsp),%rsi
   14000650d:	41 f7 df             	neg    %r15d
   140006510:	e9 db fc ff ff       	jmp    1400061f0 <__gdtoa+0x840>
   140006515:	f2 0f 59 da          	mulsd  %xmm2,%xmm3
   140006519:	66 49 0f 6e d1       	movq   %r9,%xmm2
   14000651e:	c7 84 24 ac 00 00 00 	movl   $0x1,0xac(%rsp)
   140006525:	01 00 00 00 
   140006529:	48 8b 4c 24 68       	mov    0x68(%rsp),%rcx
   14000652e:	f2 0f 10 0d 32 41 00 	movsd  0x4132(%rip),%xmm1        # 14000a668 <.rdata+0x48>
   140006535:	00 
   140006536:	66 0f 28 c2          	movapd %xmm2,%xmm0
   14000653a:	45 31 c9             	xor    %r9d,%r9d
   14000653d:	eb 12                	jmp    140006551 <__gdtoa+0xba1>
   14000653f:	90                   	nop
   140006540:	f2 0f 59 c1          	mulsd  %xmm1,%xmm0
   140006544:	83 c0 01             	add    $0x1,%eax
   140006547:	45 89 d1             	mov    %r10d,%r9d
   14000654a:	89 84 24 ac 00 00 00 	mov    %eax,0xac(%rsp)
   140006551:	f2 0f 2c c0          	cvttsd2si %xmm0,%eax
   140006555:	85 c0                	test   %eax,%eax
   140006557:	74 0f                	je     140006568 <__gdtoa+0xbb8>
   140006559:	66 0f ef e4          	pxor   %xmm4,%xmm4
   14000655d:	45 89 d1             	mov    %r10d,%r9d
   140006560:	f2 0f 2a e0          	cvtsi2sd %eax,%xmm4
   140006564:	f2 0f 5c c4          	subsd  %xmm4,%xmm0
   140006568:	44 8d 40 30          	lea    0x30(%rax),%r8d
   14000656c:	48 83 c1 01          	add    $0x1,%rcx
   140006570:	44 88 41 ff          	mov    %r8b,-0x1(%rcx)
   140006574:	8b 84 24 ac 00 00 00 	mov    0xac(%rsp),%eax
   14000657b:	39 e8                	cmp    %ebp,%eax
   14000657d:	75 c1                	jne    140006540 <__gdtoa+0xb90>
   14000657f:	45 84 c9             	test   %r9b,%r9b
   140006582:	0f 84 6f 0a 00 00    	je     140006ff7 <__gdtoa+0x1647>
   140006588:	f2 0f 10 0d 10 41 00 	movsd  0x4110(%rip),%xmm1        # 14000a6a0 <.rdata+0x80>
   14000658f:	00 
   140006590:	66 0f 28 d3          	movapd %xmm3,%xmm2
   140006594:	f2 0f 58 d1          	addsd  %xmm1,%xmm2
   140006598:	66 0f 2f c2          	comisd %xmm2,%xmm0
   14000659c:	0f 87 19 0a 00 00    	ja     140006fbb <__gdtoa+0x160b>
   1400065a2:	f2 0f 5c cb          	subsd  %xmm3,%xmm1
   1400065a6:	66 0f 2f c8          	comisd %xmm0,%xmm1
   1400065aa:	0f 87 ab 0a 00 00    	ja     14000705b <__gdtoa+0x16ab>
   1400065b0:	44 8b 54 24 60       	mov    0x60(%rsp),%r10d
   1400065b5:	45 85 d2             	test   %r10d,%r10d
   1400065b8:	0f 88 37 0b 00 00    	js     1400070f5 <__gdtoa+0x1745>
   1400065be:	45 8b 4d 14          	mov    0x14(%r13),%r9d
   1400065c2:	c7 44 24 58 00 00 00 	movl   $0x0,0x58(%rsp)
   1400065c9:	00 
   1400065ca:	45 85 c9             	test   %r9d,%r9d
   1400065cd:	0f 89 ba fb ff ff    	jns    14000618d <__gdtoa+0x7dd>
   1400065d3:	0f 1f 44 00 00       	nopl   0x0(%rax,%rax,1)
   1400065d8:	8b 44 24 70          	mov    0x70(%rsp),%eax
   1400065dc:	44 8b a4 24 80 00 00 	mov    0x80(%rsp),%r12d
   1400065e3:	00 
   1400065e4:	31 ed                	xor    %ebp,%ebp
   1400065e6:	89 44 24 60          	mov    %eax,0x60(%rsp)
   1400065ea:	e9 69 fd ff ff       	jmp    140006358 <__gdtoa+0x9a8>
   1400065ef:	90                   	nop
   1400065f0:	44 8b 7c 24 78       	mov    0x78(%rsp),%r15d
   1400065f5:	44 8b 6c 24 7c       	mov    0x7c(%rsp),%r13d
   1400065fa:	41 83 c7 01          	add    $0x1,%r15d
   1400065fe:	45 85 ed             	test   %r13d,%r13d
   140006601:	0f 84 91 02 00 00    	je     140006898 <__gdtoa+0xee8>
   140006607:	8b 54 24 60          	mov    0x60(%rsp),%edx
   14000660b:	44 01 e2             	add    %r12d,%edx
   14000660e:	85 d2                	test   %edx,%edx
   140006610:	7e 1f                	jle    140006631 <__gdtoa+0xc81>
   140006612:	48 89 e9             	mov    %rbp,%rcx
   140006615:	4c 89 54 24 38       	mov    %r10,0x38(%rsp)
   14000661a:	44 89 5c 24 30       	mov    %r11d,0x30(%rsp)
   14000661f:	e8 9c 13 00 00       	call   1400079c0 <__lshift_D2A>
   140006624:	4c 8b 54 24 38       	mov    0x38(%rsp),%r10
   140006629:	44 8b 5c 24 30       	mov    0x30(%rsp),%r11d
   14000662e:	48 89 c5             	mov    %rax,%rbp
   140006631:	49 89 ed             	mov    %rbp,%r13
   140006634:	45 85 db             	test   %r11d,%r11d
   140006637:	0f 85 bb 07 00 00    	jne    140006df8 <__gdtoa+0x1448>
   14000663d:	4c 8b 5c 24 68       	mov    0x68(%rsp),%r11
   140006642:	44 89 7c 24 70       	mov    %r15d,0x70(%rsp)
   140006647:	b8 01 00 00 00       	mov    $0x1,%eax
   14000664c:	49 89 f7             	mov    %rsi,%r15
   14000664f:	89 7c 24 38          	mov    %edi,0x38(%rsp)
   140006653:	4c 89 54 24 30       	mov    %r10,0x30(%rsp)
   140006658:	4c 89 df             	mov    %r11,%rdi
   14000665b:	e9 a2 00 00 00       	jmp    140006702 <__gdtoa+0xd52>
   140006660:	48 89 c1             	mov    %rax,%rcx
   140006663:	e8 88 0e 00 00       	call   1400074f0 <__Bfree_D2A>
   140006668:	ba 01 00 00 00       	mov    $0x1,%edx
   14000666d:	45 85 e4             	test   %r12d,%r12d
   140006670:	0f 88 52 06 00 00    	js     140006cc8 <__gdtoa+0x1318>
   140006676:	44 0b 64 24 38       	or     0x38(%rsp),%r12d
   14000667b:	75 0a                	jne    140006687 <__gdtoa+0xcd7>
   14000667d:	41 f6 07 01          	testb  $0x1,(%r15)
   140006681:	0f 84 41 06 00 00    	je     140006cc8 <__gdtoa+0x1318>
   140006687:	4c 8d 67 01          	lea    0x1(%rdi),%r12
   14000668b:	4d 89 e6             	mov    %r12,%r14
   14000668e:	85 d2                	test   %edx,%edx
   140006690:	7e 0b                	jle    14000669d <__gdtoa+0xced>
   140006692:	83 7c 24 58 02       	cmpl   $0x2,0x58(%rsp)
   140006697:	0f 85 b3 07 00 00    	jne    140006e50 <__gdtoa+0x14a0>
   14000669d:	41 88 74 24 ff       	mov    %sil,-0x1(%r12)
   1400066a2:	8b 44 24 50          	mov    0x50(%rsp),%eax
   1400066a6:	39 84 24 ac 00 00 00 	cmp    %eax,0xac(%rsp)
   1400066ad:	0f 84 d0 07 00 00    	je     140006e83 <__gdtoa+0x14d3>
   1400066b3:	48 89 d9             	mov    %rbx,%rcx
   1400066b6:	45 31 c0             	xor    %r8d,%r8d
   1400066b9:	ba 0a 00 00 00       	mov    $0xa,%edx
   1400066be:	e8 9d 0e 00 00       	call   140007560 <__multadd_D2A>
   1400066c3:	45 31 c0             	xor    %r8d,%r8d
   1400066c6:	ba 0a 00 00 00       	mov    $0xa,%edx
   1400066cb:	48 89 e9             	mov    %rbp,%rcx
   1400066ce:	48 89 c3             	mov    %rax,%rbx
   1400066d1:	4c 39 ed             	cmp    %r13,%rbp
   1400066d4:	0f 84 1e 01 00 00    	je     1400067f8 <__gdtoa+0xe48>
   1400066da:	e8 81 0e 00 00       	call   140007560 <__multadd_D2A>
   1400066df:	4c 89 e9             	mov    %r13,%rcx
   1400066e2:	45 31 c0             	xor    %r8d,%r8d
   1400066e5:	ba 0a 00 00 00       	mov    $0xa,%edx
   1400066ea:	48 89 c5             	mov    %rax,%rbp
   1400066ed:	e8 6e 0e 00 00       	call   140007560 <__multadd_D2A>
   1400066f2:	49 89 c5             	mov    %rax,%r13
   1400066f5:	8b 84 24 ac 00 00 00 	mov    0xac(%rsp),%eax
   1400066fc:	4c 89 e7             	mov    %r12,%rdi
   1400066ff:	83 c0 01             	add    $0x1,%eax
   140006702:	48 8b 54 24 30       	mov    0x30(%rsp),%rdx
   140006707:	48 89 d9             	mov    %rbx,%rcx
   14000670a:	89 84 24 ac 00 00 00 	mov    %eax,0xac(%rsp)
   140006711:	e8 1a f1 ff ff       	call   140005830 <__quorem_D2A>
   140006716:	48 89 ea             	mov    %rbp,%rdx
   140006719:	48 89 d9             	mov    %rbx,%rcx
   14000671c:	41 89 c6             	mov    %eax,%r14d
   14000671f:	8d 70 30             	lea    0x30(%rax),%esi
   140006722:	e8 a9 13 00 00       	call   140007ad0 <__cmp_D2A>
   140006727:	48 8b 4c 24 30       	mov    0x30(%rsp),%rcx
   14000672c:	4c 89 ea             	mov    %r13,%rdx
   14000672f:	41 89 c4             	mov    %eax,%r12d
   140006732:	e8 e9 13 00 00       	call   140007b20 <__diff_D2A>
   140006737:	44 8b 50 10          	mov    0x10(%rax),%r10d
   14000673b:	48 89 c2             	mov    %rax,%rdx
   14000673e:	45 85 d2             	test   %r10d,%r10d
   140006741:	0f 85 19 ff ff ff    	jne    140006660 <__gdtoa+0xcb0>
   140006747:	48 89 d9             	mov    %rbx,%rcx
   14000674a:	48 89 44 24 60       	mov    %rax,0x60(%rsp)
   14000674f:	e8 7c 13 00 00       	call   140007ad0 <__cmp_D2A>
   140006754:	48 8b 4c 24 60       	mov    0x60(%rsp),%rcx
   140006759:	89 44 24 5c          	mov    %eax,0x5c(%rsp)
   14000675d:	e8 8e 0d 00 00       	call   1400074f0 <__Bfree_D2A>
   140006762:	8b 54 24 5c          	mov    0x5c(%rsp),%edx
   140006766:	8b 44 24 38          	mov    0x38(%rsp),%eax
   14000676a:	09 c2                	or     %eax,%edx
   14000676c:	0f 85 a9 03 00 00    	jne    140006b1b <__gdtoa+0x116b>
   140006772:	41 8b 07             	mov    (%r15),%eax
   140006775:	83 e0 01             	and    $0x1,%eax
   140006778:	0b 44 24 58          	or     0x58(%rsp),%eax
   14000677c:	0f 85 eb fe ff ff    	jne    14000666d <__gdtoa+0xcbd>
   140006782:	4c 8b 54 24 30       	mov    0x30(%rsp),%r10
   140006787:	44 8b 7c 24 70       	mov    0x70(%rsp),%r15d
   14000678c:	41 89 f0             	mov    %esi,%r8d
   14000678f:	49 89 fb             	mov    %rdi,%r11
   140006792:	83 fe 39             	cmp    $0x39,%esi
   140006795:	0f 84 8e 07 00 00    	je     140006f29 <__gdtoa+0x1579>
   14000679b:	45 85 e4             	test   %r12d,%r12d
   14000679e:	0f 8e bd 09 00 00    	jle    140007161 <__gdtoa+0x17b1>
   1400067a4:	c7 44 24 48 20 00 00 	movl   $0x20,0x48(%rsp)
   1400067ab:	00 
   1400067ac:	45 8d 46 31          	lea    0x31(%r14),%r8d
   1400067b0:	45 88 03             	mov    %r8b,(%r11)
   1400067b3:	48 89 ee             	mov    %rbp,%rsi
   1400067b6:	4d 8d 63 01          	lea    0x1(%r11),%r12
   1400067ba:	4c 89 ed             	mov    %r13,%rbp
   1400067bd:	0f 1f 00             	nopl   (%rax)
   1400067c0:	4c 89 d1             	mov    %r10,%rcx
   1400067c3:	e8 28 0d 00 00       	call   1400074f0 <__Bfree_D2A>
   1400067c8:	48 85 ed             	test   %rbp,%rbp
   1400067cb:	0f 84 9c 03 00 00    	je     140006b6d <__gdtoa+0x11bd>
   1400067d1:	48 85 f6             	test   %rsi,%rsi
   1400067d4:	74 0d                	je     1400067e3 <__gdtoa+0xe33>
   1400067d6:	48 39 ee             	cmp    %rbp,%rsi
   1400067d9:	74 08                	je     1400067e3 <__gdtoa+0xe33>
   1400067db:	48 89 f1             	mov    %rsi,%rcx
   1400067de:	e8 0d 0d 00 00       	call   1400074f0 <__Bfree_D2A>
   1400067e3:	48 8b 74 24 68       	mov    0x68(%rsp),%rsi
   1400067e8:	4c 89 64 24 68       	mov    %r12,0x68(%rsp)
   1400067ed:	e9 0b fa ff ff       	jmp    1400061fd <__gdtoa+0x84d>
   1400067f2:	66 0f 1f 44 00 00    	nopw   0x0(%rax,%rax,1)
   1400067f8:	e8 63 0d 00 00       	call   140007560 <__multadd_D2A>
   1400067fd:	48 89 c5             	mov    %rax,%rbp
   140006800:	49 89 c5             	mov    %rax,%r13
   140006803:	e9 ed fe ff ff       	jmp    1400066f5 <__gdtoa+0xd45>
   140006808:	0f 1f 84 00 00 00 00 	nopl   0x0(%rax,%rax,1)
   14000680f:	00 
   140006810:	4c 89 d2             	mov    %r10,%rdx
   140006813:	48 89 d9             	mov    %rbx,%rcx
   140006816:	44 89 5c 24 5c       	mov    %r11d,0x5c(%rsp)
   14000681b:	4c 89 54 24 30       	mov    %r10,0x30(%rsp)
   140006820:	e8 ab 12 00 00       	call   140007ad0 <__cmp_D2A>
   140006825:	4c 8b 54 24 30       	mov    0x30(%rsp),%r10
   14000682a:	44 8b 5c 24 5c       	mov    0x5c(%rsp),%r11d
   14000682f:	85 c0                	test   %eax,%eax
   140006831:	0f 89 46 fc ff ff    	jns    14000647d <__gdtoa+0xacd>
   140006837:	8b 44 24 78          	mov    0x78(%rsp),%eax
   14000683b:	45 31 c0             	xor    %r8d,%r8d
   14000683e:	48 89 d9             	mov    %rbx,%rcx
   140006841:	ba 0a 00 00 00       	mov    $0xa,%edx
   140006846:	4c 89 54 24 50       	mov    %r10,0x50(%rsp)
   14000684b:	44 89 5c 24 30       	mov    %r11d,0x30(%rsp)
   140006850:	44 8d 70 ff          	lea    -0x1(%rax),%r14d
   140006854:	e8 07 0d 00 00       	call   140007560 <__multadd_D2A>
   140006859:	4c 8b 54 24 50       	mov    0x50(%rsp),%r10
   14000685e:	48 89 c3             	mov    %rax,%rbx
   140006861:	8b 84 24 9c 00 00 00 	mov    0x9c(%rsp),%eax
   140006868:	85 c0                	test   %eax,%eax
   14000686a:	0f 9e c0             	setle  %al
   14000686d:	41 21 c5             	and    %eax,%r13d
   140006870:	8b 44 24 7c          	mov    0x7c(%rsp),%eax
   140006874:	85 c0                	test   %eax,%eax
   140006876:	0f 85 a4 07 00 00    	jne    140007020 <__gdtoa+0x1670>
   14000687c:	45 84 ed             	test   %r13b,%r13b
   14000687f:	0f 85 cf 06 00 00    	jne    140006f54 <__gdtoa+0x15a4>
   140006885:	8b 84 24 9c 00 00 00 	mov    0x9c(%rsp),%eax
   14000688c:	44 8b 7c 24 78       	mov    0x78(%rsp),%r15d
   140006891:	89 44 24 50          	mov    %eax,0x50(%rsp)
   140006895:	0f 1f 00             	nopl   (%rax)
   140006898:	4c 8b 74 24 68       	mov    0x68(%rsp),%r14
   14000689d:	8b 7c 24 50          	mov    0x50(%rsp),%edi
   1400068a1:	b8 01 00 00 00       	mov    $0x1,%eax
   1400068a6:	4c 89 d6             	mov    %r10,%rsi
   1400068a9:	eb 22                	jmp    1400068cd <__gdtoa+0xf1d>
   1400068ab:	0f 1f 44 00 00       	nopl   0x0(%rax,%rax,1)
   1400068b0:	48 89 d9             	mov    %rbx,%rcx
   1400068b3:	45 31 c0             	xor    %r8d,%r8d
   1400068b6:	ba 0a 00 00 00       	mov    $0xa,%edx
   1400068bb:	e8 a0 0c 00 00       	call   140007560 <__multadd_D2A>
   1400068c0:	48 89 c3             	mov    %rax,%rbx
   1400068c3:	8b 84 24 ac 00 00 00 	mov    0xac(%rsp),%eax
   1400068ca:	83 c0 01             	add    $0x1,%eax
   1400068cd:	48 89 f2             	mov    %rsi,%rdx
   1400068d0:	48 89 d9             	mov    %rbx,%rcx
   1400068d3:	89 84 24 ac 00 00 00 	mov    %eax,0xac(%rsp)
   1400068da:	49 83 c6 01          	add    $0x1,%r14
   1400068de:	e8 4d ef ff ff       	call   140005830 <__quorem_D2A>
   1400068e3:	44 8d 40 30          	lea    0x30(%rax),%r8d
   1400068e7:	45 88 46 ff          	mov    %r8b,-0x1(%r14)
   1400068eb:	39 bc 24 ac 00 00 00 	cmp    %edi,0xac(%rsp)
   1400068f2:	7c bc                	jl     1400068b0 <__gdtoa+0xf00>
   1400068f4:	49 89 f2             	mov    %rsi,%r10
   1400068f7:	31 f6                	xor    %esi,%esi
   1400068f9:	8b 7c 24 58          	mov    0x58(%rsp),%edi
   1400068fd:	85 ff                	test   %edi,%edi
   1400068ff:	0f 84 5d 03 00 00    	je     140006c62 <__gdtoa+0x12b2>
   140006905:	8b 43 14             	mov    0x14(%rbx),%eax
   140006908:	83 ff 02             	cmp    $0x2,%edi
   14000690b:	0f 84 96 03 00 00    	je     140006ca7 <__gdtoa+0x12f7>
   140006911:	83 f8 01             	cmp    $0x1,%eax
   140006914:	0f 8f 17 02 00 00    	jg     140006b31 <__gdtoa+0x1181>
   14000691a:	8b 43 18             	mov    0x18(%rbx),%eax
   14000691d:	85 c0                	test   %eax,%eax
   14000691f:	0f 85 0c 02 00 00    	jne    140006b31 <__gdtoa+0x1181>
   140006925:	85 c0                	test   %eax,%eax
   140006927:	0f 95 c0             	setne  %al
   14000692a:	0f b6 c0             	movzbl %al,%eax
   14000692d:	c1 e0 04             	shl    $0x4,%eax
   140006930:	89 44 24 48          	mov    %eax,0x48(%rsp)
   140006934:	0f 1f 40 00          	nopl   0x0(%rax)
   140006938:	4d 89 f4             	mov    %r14,%r12
   14000693b:	49 83 ee 01          	sub    $0x1,%r14
   14000693f:	41 80 3e 30          	cmpb   $0x30,(%r14)
   140006943:	74 f3                	je     140006938 <__gdtoa+0xf88>
   140006945:	e9 76 fe ff ff       	jmp    1400067c0 <__gdtoa+0xe10>
   14000694a:	66 0f 1f 44 00 00    	nopw   0x0(%rax,%rax,1)
   140006950:	44 89 da             	mov    %r11d,%edx
   140006953:	48 89 c1             	mov    %rax,%rcx
   140006956:	e8 e5 0e 00 00       	call   140007840 <__pow5mult_D2A>
   14000695b:	49 89 c2             	mov    %rax,%r10
   14000695e:	83 ff 01             	cmp    $0x1,%edi
   140006961:	0f 8e 4f 02 00 00    	jle    140006bb6 <__gdtoa+0x1206>
   140006967:	45 31 db             	xor    %r11d,%r11d
   14000696a:	41 8b 42 14          	mov    0x14(%r10),%eax
   14000696e:	83 e8 01             	sub    $0x1,%eax
   140006971:	48 98                	cltq
   140006973:	45 0f bd 64 82 18    	bsr    0x18(%r10,%rax,4),%r12d
   140006979:	41 83 f4 1f          	xor    $0x1f,%r12d
   14000697d:	e9 77 fa ff ff       	jmp    1400063f9 <__gdtoa+0xa49>
   140006982:	66 0f 1f 44 00 00    	nopw   0x0(%rax,%rax,1)
   140006988:	c7 44 24 7c 01 00 00 	movl   $0x1,0x7c(%rsp)
   14000698f:	00 
   140006990:	e9 6b f7 ff ff       	jmp    140006100 <__gdtoa+0x750>
   140006995:	0f 1f 00             	nopl   (%rax)
   140006998:	41 83 fe 01          	cmp    $0x1,%r14d
   14000699c:	0f 85 51 fa ff ff    	jne    1400063f3 <__gdtoa+0xa43>
   1400069a2:	41 8b 45 04          	mov    0x4(%r13),%eax
   1400069a6:	83 c0 01             	add    $0x1,%eax
   1400069a9:	39 44 24 30          	cmp    %eax,0x30(%rsp)
   1400069ad:	0f 8e 40 fa ff ff    	jle    1400063f3 <__gdtoa+0xa43>
   1400069b3:	83 44 24 70 01       	addl   $0x1,0x70(%rsp)
   1400069b8:	41 bb 01 00 00 00    	mov    $0x1,%r11d
   1400069be:	83 44 24 5c 01       	addl   $0x1,0x5c(%rsp)
   1400069c3:	e9 2b fa ff ff       	jmp    1400063f3 <__gdtoa+0xa43>
   1400069c8:	0f 1f 84 00 00 00 00 	nopl   0x0(%rax,%rax,1)
   1400069cf:	00 
   1400069d0:	8b 4c 24 50          	mov    0x50(%rsp),%ecx
   1400069d4:	8b 94 24 80 00 00 00 	mov    0x80(%rsp),%edx
   1400069db:	8d 41 ff             	lea    -0x1(%rcx),%eax
   1400069de:	39 c2                	cmp    %eax,%edx
   1400069e0:	0f 8c 96 01 00 00    	jl     140006b7c <__gdtoa+0x11cc>
   1400069e6:	41 89 d4             	mov    %edx,%r12d
   1400069e9:	41 29 c4             	sub    %eax,%r12d
   1400069ec:	85 c9                	test   %ecx,%ecx
   1400069ee:	0f 89 0c 06 00 00    	jns    140007000 <__gdtoa+0x1650>
   1400069f4:	8b 44 24 70          	mov    0x70(%rsp),%eax
   1400069f8:	8b 54 24 50          	mov    0x50(%rsp),%edx
   1400069fc:	c7 84 24 ac 00 00 00 	movl   $0x0,0xac(%rsp)
   140006a03:	00 00 00 00 
   140006a07:	29 d0                	sub    %edx,%eax
   140006a09:	89 44 24 60          	mov    %eax,0x60(%rsp)
   140006a0d:	e9 21 f9 ff ff       	jmp    140006333 <__gdtoa+0x983>
   140006a12:	66 0f 1f 44 00 00    	nopw   0x0(%rax,%rax,1)
   140006a18:	83 ff 01             	cmp    $0x1,%edi
   140006a1b:	7f b3                	jg     1400069d0 <__gdtoa+0x1020>
   140006a1d:	8b 4c 24 70          	mov    0x70(%rsp),%ecx
   140006a21:	01 44 24 5c          	add    %eax,0x5c(%rsp)
   140006a25:	44 8b a4 24 80 00 00 	mov    0x80(%rsp),%r12d
   140006a2c:	00 
   140006a2d:	01 c8                	add    %ecx,%eax
   140006a2f:	89 4c 24 60          	mov    %ecx,0x60(%rsp)
   140006a33:	89 44 24 70          	mov    %eax,0x70(%rsp)
   140006a37:	e9 f7 f8 ff ff       	jmp    140006333 <__gdtoa+0x983>
   140006a3c:	f2 0f 10 84 24 90 00 	movsd  0x90(%rsp),%xmm0
   140006a43:	00 00 
   140006a45:	48 8b 74 24 68       	mov    0x68(%rsp),%rsi
   140006a4a:	c7 84 24 ac 00 00 00 	movl   $0x1,0xac(%rsp)
   140006a51:	01 00 00 00 
   140006a55:	8b 7c 24 78          	mov    0x78(%rsp),%edi
   140006a59:	66 0f 28 c8          	movapd %xmm0,%xmm1
   140006a5d:	48 8d 4e 01          	lea    0x1(%rsi),%rcx
   140006a61:	f2 0f 5e ca          	divsd  %xmm2,%xmm1
   140006a65:	44 8d 7f 01          	lea    0x1(%rdi),%r15d
   140006a69:	f2 0f 2c c1          	cvttsd2si %xmm1,%eax
   140006a6d:	66 0f ef c9          	pxor   %xmm1,%xmm1
   140006a71:	f2 0f 2a c8          	cvtsi2sd %eax,%xmm1
   140006a75:	8d 50 30             	lea    0x30(%rax),%edx
   140006a78:	88 16                	mov    %dl,(%rsi)
   140006a7a:	f2 0f 59 ca          	mulsd  %xmm2,%xmm1
   140006a7e:	f2 0f 5c c1          	subsd  %xmm1,%xmm0
   140006a82:	66 0f ef c9          	pxor   %xmm1,%xmm1
   140006a86:	66 0f 2e c1          	ucomisd %xmm1,%xmm0
   140006a8a:	7a 06                	jp     140006a92 <__gdtoa+0x10e2>
   140006a8c:	0f 84 c1 01 00 00    	je     140006c53 <__gdtoa+0x12a3>
   140006a92:	f2 0f 10 25 ce 3b 00 	movsd  0x3bce(%rip),%xmm4        # 14000a668 <.rdata+0x48>
   140006a99:	00 
   140006a9a:	66 0f ef db          	pxor   %xmm3,%xmm3
   140006a9e:	eb 40                	jmp    140006ae0 <__gdtoa+0x1130>
   140006aa0:	f2 0f 59 c4          	mulsd  %xmm4,%xmm0
   140006aa4:	83 c2 01             	add    $0x1,%edx
   140006aa7:	48 83 c1 01          	add    $0x1,%rcx
   140006aab:	89 94 24 ac 00 00 00 	mov    %edx,0xac(%rsp)
   140006ab2:	66 0f 28 c8          	movapd %xmm0,%xmm1
   140006ab6:	f2 0f 5e ca          	divsd  %xmm2,%xmm1
   140006aba:	f2 0f 2c c1          	cvttsd2si %xmm1,%eax
   140006abe:	66 0f ef c9          	pxor   %xmm1,%xmm1
   140006ac2:	f2 0f 2a c8          	cvtsi2sd %eax,%xmm1
   140006ac6:	8d 50 30             	lea    0x30(%rax),%edx
   140006ac9:	88 51 ff             	mov    %dl,-0x1(%rcx)
   140006acc:	f2 0f 59 ca          	mulsd  %xmm2,%xmm1
   140006ad0:	f2 0f 5c c1          	subsd  %xmm1,%xmm0
   140006ad4:	66 0f 2e c3          	ucomisd %xmm3,%xmm0
   140006ad8:	7a 06                	jp     140006ae0 <__gdtoa+0x1130>
   140006ada:	0f 84 73 01 00 00    	je     140006c53 <__gdtoa+0x12a3>
   140006ae0:	8b 94 24 ac 00 00 00 	mov    0xac(%rsp),%edx
   140006ae7:	8b 7c 24 50          	mov    0x50(%rsp),%edi
   140006aeb:	39 fa                	cmp    %edi,%edx
   140006aed:	75 b1                	jne    140006aa0 <__gdtoa+0x10f0>
   140006aef:	8b 7c 24 58          	mov    0x58(%rsp),%edi
   140006af3:	85 ff                	test   %edi,%edi
   140006af5:	0f 84 6e 04 00 00    	je     140006f69 <__gdtoa+0x15b9>
   140006afb:	83 ff 01             	cmp    $0x1,%edi
   140006afe:	0f 84 7d 05 00 00    	je     140007081 <__gdtoa+0x16d1>
   140006b04:	48 8b 74 24 68       	mov    0x68(%rsp),%rsi
   140006b09:	c7 44 24 48 10 00 00 	movl   $0x10,0x48(%rsp)
   140006b10:	00 
   140006b11:	48 89 4c 24 68       	mov    %rcx,0x68(%rsp)
   140006b16:	e9 ea f6 ff ff       	jmp    140006205 <__gdtoa+0x855>
   140006b1b:	8b 54 24 5c          	mov    0x5c(%rsp),%edx
   140006b1f:	e9 49 fb ff ff       	jmp    14000666d <__gdtoa+0xcbd>
   140006b24:	c7 44 24 7c 01 00 00 	movl   $0x1,0x7c(%rsp)
   140006b2b:	00 
   140006b2c:	e9 c4 f2 ff ff       	jmp    140005df5 <__gdtoa+0x445>
   140006b31:	48 8b 54 24 68       	mov    0x68(%rsp),%rdx
   140006b36:	eb 11                	jmp    140006b49 <__gdtoa+0x1199>
   140006b38:	0f 1f 84 00 00 00 00 	nopl   0x0(%rax,%rax,1)
   140006b3f:	00 
   140006b40:	4c 39 f2             	cmp    %r14,%rdx
   140006b43:	0f 84 a7 00 00 00    	je     140006bf0 <__gdtoa+0x1240>
   140006b49:	4d 89 f4             	mov    %r14,%r12
   140006b4c:	4d 8d 76 ff          	lea    -0x1(%r14),%r14
   140006b50:	41 0f b6 44 24 ff    	movzbl -0x1(%r12),%eax
   140006b56:	3c 39                	cmp    $0x39,%al
   140006b58:	74 e6                	je     140006b40 <__gdtoa+0x1190>
   140006b5a:	83 c0 01             	add    $0x1,%eax
   140006b5d:	c7 44 24 48 20 00 00 	movl   $0x20,0x48(%rsp)
   140006b64:	00 
   140006b65:	41 88 06             	mov    %al,(%r14)
   140006b68:	e9 53 fc ff ff       	jmp    1400067c0 <__gdtoa+0xe10>
   140006b6d:	48 8b 74 24 68       	mov    0x68(%rsp),%rsi
   140006b72:	4c 89 64 24 68       	mov    %r12,0x68(%rsp)
   140006b77:	e9 89 f6 ff ff       	jmp    140006205 <__gdtoa+0x855>
   140006b7c:	8b 8c 24 80 00 00 00 	mov    0x80(%rsp),%ecx
   140006b83:	89 c2                	mov    %eax,%edx
   140006b85:	89 84 24 80 00 00 00 	mov    %eax,0x80(%rsp)
   140006b8c:	45 31 e4             	xor    %r12d,%r12d
   140006b8f:	29 ca                	sub    %ecx,%edx
   140006b91:	8b 4c 24 70          	mov    0x70(%rsp),%ecx
   140006b95:	41 01 d3             	add    %edx,%r11d
   140006b98:	8b 54 24 50          	mov    0x50(%rsp),%edx
   140006b9c:	01 54 24 5c          	add    %edx,0x5c(%rsp)
   140006ba0:	89 4c 24 60          	mov    %ecx,0x60(%rsp)
   140006ba4:	89 94 24 ac 00 00 00 	mov    %edx,0xac(%rsp)
   140006bab:	01 ca                	add    %ecx,%edx
   140006bad:	89 54 24 70          	mov    %edx,0x70(%rsp)
   140006bb1:	e9 7d f7 ff ff       	jmp    140006333 <__gdtoa+0x983>
   140006bb6:	41 83 fe 01          	cmp    $0x1,%r14d
   140006bba:	0f 85 a7 fd ff ff    	jne    140006967 <__gdtoa+0xfb7>
   140006bc0:	41 8b 45 04          	mov    0x4(%r13),%eax
   140006bc4:	83 c0 01             	add    $0x1,%eax
   140006bc7:	39 44 24 30          	cmp    %eax,0x30(%rsp)
   140006bcb:	0f 8e 96 fd ff ff    	jle    140006967 <__gdtoa+0xfb7>
   140006bd1:	83 44 24 70 01       	addl   $0x1,0x70(%rsp)
   140006bd6:	41 bb 01 00 00 00    	mov    $0x1,%r11d
   140006bdc:	83 44 24 5c 01       	addl   $0x1,0x5c(%rsp)
   140006be1:	e9 84 fd ff ff       	jmp    14000696a <__gdtoa+0xfba>
   140006be6:	66 2e 0f 1f 84 00 00 	cs nopw 0x0(%rax,%rax,1)
   140006bed:	00 00 00 
   140006bf0:	48 8b 44 24 68       	mov    0x68(%rsp),%rax
   140006bf5:	c7 44 24 48 20 00 00 	movl   $0x20,0x48(%rsp)
   140006bfc:	00 
   140006bfd:	41 83 c7 01          	add    $0x1,%r15d
   140006c01:	c6 00 31             	movb   $0x31,(%rax)
   140006c04:	e9 b7 fb ff ff       	jmp    1400067c0 <__gdtoa+0xe10>
   140006c09:	48 89 e9             	mov    %rbp,%rcx
   140006c0c:	44 89 e2             	mov    %r12d,%edx
   140006c0f:	44 89 9c 24 98 00 00 	mov    %r11d,0x98(%rsp)
   140006c16:	00 
   140006c17:	e8 24 0c 00 00       	call   140007840 <__pow5mult_D2A>
   140006c1c:	48 89 da             	mov    %rbx,%rdx
   140006c1f:	48 89 c1             	mov    %rax,%rcx
   140006c22:	48 89 c5             	mov    %rax,%rbp
   140006c25:	e8 b6 0a 00 00       	call   1400076e0 <__mult_D2A>
   140006c2a:	48 89 d9             	mov    %rbx,%rcx
   140006c2d:	49 89 c7             	mov    %rax,%r15
   140006c30:	e8 bb 08 00 00       	call   1400074f0 <__Bfree_D2A>
   140006c35:	44 29 a4 24 80 00 00 	sub    %r12d,0x80(%rsp)
   140006c3c:	00 
   140006c3d:	4c 89 fb             	mov    %r15,%rbx
   140006c40:	44 8b 9c 24 98 00 00 	mov    0x98(%rsp),%r11d
   140006c47:	00 
   140006c48:	0f 84 76 f7 ff ff    	je     1400063c4 <__gdtoa+0xa14>
   140006c4e:	e9 4f f7 ff ff       	jmp    1400063a2 <__gdtoa+0x9f2>
   140006c53:	48 8b 74 24 68       	mov    0x68(%rsp),%rsi
   140006c58:	48 89 4c 24 68       	mov    %rcx,0x68(%rsp)
   140006c5d:	e9 a3 f5 ff ff       	jmp    140006205 <__gdtoa+0x855>
   140006c62:	48 89 d9             	mov    %rbx,%rcx
   140006c65:	ba 01 00 00 00       	mov    $0x1,%edx
   140006c6a:	4c 89 54 24 30       	mov    %r10,0x30(%rsp)
   140006c6f:	44 89 44 24 38       	mov    %r8d,0x38(%rsp)
   140006c74:	e8 47 0d 00 00       	call   1400079c0 <__lshift_D2A>
   140006c79:	48 8b 54 24 30       	mov    0x30(%rsp),%rdx
   140006c7e:	48 89 c1             	mov    %rax,%rcx
   140006c81:	48 89 c3             	mov    %rax,%rbx
   140006c84:	e8 47 0e 00 00       	call   140007ad0 <__cmp_D2A>
   140006c89:	4c 8b 54 24 30       	mov    0x30(%rsp),%r10
   140006c8e:	85 c0                	test   %eax,%eax
   140006c90:	0f 8f 9b fe ff ff    	jg     140006b31 <__gdtoa+0x1181>
   140006c96:	75 0f                	jne    140006ca7 <__gdtoa+0x12f7>
   140006c98:	44 8b 44 24 38       	mov    0x38(%rsp),%r8d
   140006c9d:	41 83 e0 01          	and    $0x1,%r8d
   140006ca1:	0f 85 8a fe ff ff    	jne    140006b31 <__gdtoa+0x1181>
   140006ca7:	83 7b 14 01          	cmpl   $0x1,0x14(%rbx)
   140006cab:	c7 44 24 48 10 00 00 	movl   $0x10,0x48(%rsp)
   140006cb2:	00 
   140006cb3:	0f 8f 7f fc ff ff    	jg     140006938 <__gdtoa+0xf88>
   140006cb9:	8b 43 18             	mov    0x18(%rbx),%eax
   140006cbc:	e9 64 fc ff ff       	jmp    140006925 <__gdtoa+0xf75>
   140006cc1:	0f 1f 80 00 00 00 00 	nopl   0x0(%rax)
   140006cc8:	44 8b 4c 24 58       	mov    0x58(%rsp),%r9d
   140006ccd:	4c 8b 54 24 30       	mov    0x30(%rsp),%r10
   140006cd2:	41 89 f0             	mov    %esi,%r8d
   140006cd5:	49 89 fb             	mov    %rdi,%r11
   140006cd8:	44 8b 7c 24 70       	mov    0x70(%rsp),%r15d
   140006cdd:	45 85 c9             	test   %r9d,%r9d
   140006ce0:	0f 84 c9 01 00 00    	je     140006eaf <__gdtoa+0x14ff>
   140006ce6:	83 7b 14 01          	cmpl   $0x1,0x14(%rbx)
   140006cea:	0f 8e a8 03 00 00    	jle    140007098 <__gdtoa+0x16e8>
   140006cf0:	83 7c 24 58 02       	cmpl   $0x2,0x58(%rsp)
   140006cf5:	0f 84 17 02 00 00    	je     140006f12 <__gdtoa+0x1562>
   140006cfb:	44 89 7c 24 30       	mov    %r15d,0x30(%rsp)
   140006d00:	44 89 c7             	mov    %r8d,%edi
   140006d03:	4d 89 d6             	mov    %r10,%r14
   140006d06:	4d 89 df             	mov    %r11,%r15
   140006d09:	eb 4b                	jmp    140006d56 <__gdtoa+0x13a6>
   140006d0b:	0f 1f 44 00 00       	nopl   0x0(%rax,%rax,1)
   140006d10:	41 88 7c 24 ff       	mov    %dil,-0x1(%r12)
   140006d15:	45 31 c0             	xor    %r8d,%r8d
   140006d18:	4c 89 e9             	mov    %r13,%rcx
   140006d1b:	ba 0a 00 00 00       	mov    $0xa,%edx
   140006d20:	4d 89 e7             	mov    %r12,%r15
   140006d23:	e8 38 08 00 00       	call   140007560 <__multadd_D2A>
   140006d28:	4c 39 ed             	cmp    %r13,%rbp
   140006d2b:	48 89 d9             	mov    %rbx,%rcx
   140006d2e:	ba 0a 00 00 00       	mov    $0xa,%edx
   140006d33:	48 0f 44 e8          	cmove  %rax,%rbp
   140006d37:	45 31 c0             	xor    %r8d,%r8d
   140006d3a:	48 89 c6             	mov    %rax,%rsi
   140006d3d:	e8 1e 08 00 00       	call   140007560 <__multadd_D2A>
   140006d42:	4c 89 f2             	mov    %r14,%rdx
   140006d45:	49 89 f5             	mov    %rsi,%r13
   140006d48:	48 89 c1             	mov    %rax,%rcx
   140006d4b:	48 89 c3             	mov    %rax,%rbx
   140006d4e:	e8 dd ea ff ff       	call   140005830 <__quorem_D2A>
   140006d53:	8d 78 30             	lea    0x30(%rax),%edi
   140006d56:	4c 89 ea             	mov    %r13,%rdx
   140006d59:	4c 89 f1             	mov    %r14,%rcx
   140006d5c:	4d 8d 67 01          	lea    0x1(%r15),%r12
   140006d60:	e8 6b 0d 00 00       	call   140007ad0 <__cmp_D2A>
   140006d65:	85 c0                	test   %eax,%eax
   140006d67:	7f a7                	jg     140006d10 <__gdtoa+0x1360>
   140006d69:	4d 89 fb             	mov    %r15,%r11
   140006d6c:	41 89 f8             	mov    %edi,%r8d
   140006d6f:	44 8b 7c 24 30       	mov    0x30(%rsp),%r15d
   140006d74:	4d 89 f2             	mov    %r14,%r10
   140006d77:	83 ff 39             	cmp    $0x39,%edi
   140006d7a:	0f 84 ad 01 00 00    	je     140006f2d <__gdtoa+0x157d>
   140006d80:	c7 44 24 48 20 00 00 	movl   $0x20,0x48(%rsp)
   140006d87:	00 
   140006d88:	48 89 ee             	mov    %rbp,%rsi
   140006d8b:	41 83 c0 01          	add    $0x1,%r8d
   140006d8f:	4c 89 ed             	mov    %r13,%rbp
   140006d92:	45 88 03             	mov    %r8b,(%r11)
   140006d95:	e9 26 fa ff ff       	jmp    1400067c0 <__gdtoa+0xe10>
   140006d9a:	85 d2                	test   %edx,%edx
   140006d9c:	0f 84 98 f4 ff ff    	je     14000623a <__gdtoa+0x88a>
   140006da2:	8b ac 24 9c 00 00 00 	mov    0x9c(%rsp),%ebp
   140006da9:	85 ed                	test   %ebp,%ebp
   140006dab:	0f 8e dd f4 ff ff    	jle    14000628e <__gdtoa+0x8de>
   140006db1:	f2 0f 59 05 af 38 00 	mulsd  0x38af(%rip),%xmm0        # 14000a668 <.rdata+0x48>
   140006db8:	00 
   140006db9:	f2 0f 10 0d af 38 00 	movsd  0x38af(%rip),%xmm1        # 14000a670 <.rdata+0x50>
   140006dc0:	00 
   140006dc1:	41 bf ff ff ff ff    	mov    $0xffffffff,%r15d
   140006dc7:	f2 0f 59 c8          	mulsd  %xmm0,%xmm1
   140006dcb:	66 49 0f 7e c1       	movq   %xmm0,%r9
   140006dd0:	f2 0f 58 0d a0 38 00 	addsd  0x38a0(%rip),%xmm1        # 14000a678 <.rdata+0x58>
   140006dd7:	00 
   140006dd8:	66 48 0f 7e c8       	movq   %xmm1,%rax
   140006ddd:	48 89 c2             	mov    %rax,%rdx
   140006de0:	89 c0                	mov    %eax,%eax
   140006de2:	48 c1 ea 20          	shr    $0x20,%rdx
   140006de6:	81 ea 00 00 40 03    	sub    $0x3400000,%edx
   140006dec:	48 c1 e2 20          	shl    $0x20,%rdx
   140006df0:	48 09 d0             	or     %rdx,%rax
   140006df3:	e9 15 f1 ff ff       	jmp    140005f0d <__gdtoa+0x55d>
   140006df8:	8b 4d 08             	mov    0x8(%rbp),%ecx
   140006dfb:	4c 89 54 24 30       	mov    %r10,0x30(%rsp)
   140006e00:	e8 fb 05 00 00       	call   140007400 <__Balloc_D2A>
   140006e05:	48 8d 55 10          	lea    0x10(%rbp),%rdx
   140006e09:	48 8d 48 10          	lea    0x10(%rax),%rcx
   140006e0d:	49 89 c4             	mov    %rax,%r12
   140006e10:	48 63 45 14          	movslq 0x14(%rbp),%rax
   140006e14:	4c 8d 04 85 08 00 00 	lea    0x8(,%rax,4),%r8
   140006e1b:	00 
   140006e1c:	e8 77 18 00 00       	call   140008698 <memcpy>
   140006e21:	ba 01 00 00 00       	mov    $0x1,%edx
   140006e26:	4c 89 e1             	mov    %r12,%rcx
   140006e29:	e8 92 0b 00 00       	call   1400079c0 <__lshift_D2A>
   140006e2e:	4c 8b 54 24 30       	mov    0x30(%rsp),%r10
   140006e33:	49 89 c5             	mov    %rax,%r13
   140006e36:	e9 02 f8 ff ff       	jmp    14000663d <__gdtoa+0xc8d>
   140006e3b:	48 8b 74 24 68       	mov    0x68(%rsp),%rsi
   140006e40:	41 bf 02 00 00 00    	mov    $0x2,%r15d
   140006e46:	45 31 d2             	xor    %r10d,%r10d
   140006e49:	31 ed                	xor    %ebp,%ebp
   140006e4b:	e9 8f f3 ff ff       	jmp    1400061df <__gdtoa+0x82f>
   140006e50:	4c 8b 54 24 30       	mov    0x30(%rsp),%r10
   140006e55:	44 8b 7c 24 70       	mov    0x70(%rsp),%r15d
   140006e5a:	41 89 f0             	mov    %esi,%r8d
   140006e5d:	49 89 fb             	mov    %rdi,%r11
   140006e60:	83 fe 39             	cmp    $0x39,%esi
   140006e63:	0f 84 c4 00 00 00    	je     140006f2d <__gdtoa+0x157d>
   140006e69:	41 83 c0 01          	add    $0x1,%r8d
   140006e6d:	48 89 ee             	mov    %rbp,%rsi
   140006e70:	c7 44 24 48 20 00 00 	movl   $0x20,0x48(%rsp)
   140006e77:	00 
   140006e78:	4c 89 ed             	mov    %r13,%rbp
   140006e7b:	44 88 07             	mov    %r8b,(%rdi)
   140006e7e:	e9 3d f9 ff ff       	jmp    1400067c0 <__gdtoa+0xe10>
   140006e83:	41 89 f0             	mov    %esi,%r8d
   140006e86:	4c 8b 54 24 30       	mov    0x30(%rsp),%r10
   140006e8b:	48 89 ee             	mov    %rbp,%rsi
   140006e8e:	44 8b 7c 24 70       	mov    0x70(%rsp),%r15d
   140006e93:	4c 89 ed             	mov    %r13,%rbp
   140006e96:	e9 5e fa ff ff       	jmp    1400068f9 <__gdtoa+0xf49>
   140006e9b:	48 89 54 24 68       	mov    %rdx,0x68(%rsp)
   140006ea0:	41 83 c7 01          	add    $0x1,%r15d
   140006ea4:	41 b8 31 00 00 00    	mov    $0x31,%r8d
   140006eaa:	e9 55 f1 ff ff       	jmp    140006004 <__gdtoa+0x654>
   140006eaf:	85 d2                	test   %edx,%edx
   140006eb1:	7e 55                	jle    140006f08 <__gdtoa+0x1558>
   140006eb3:	48 89 d9             	mov    %rbx,%rcx
   140006eb6:	ba 01 00 00 00       	mov    $0x1,%edx
   140006ebb:	4c 89 54 24 30       	mov    %r10,0x30(%rsp)
   140006ec0:	4c 89 5c 24 48       	mov    %r11,0x48(%rsp)
   140006ec5:	44 89 44 24 38       	mov    %r8d,0x38(%rsp)
   140006eca:	e8 f1 0a 00 00       	call   1400079c0 <__lshift_D2A>
   140006ecf:	48 8b 54 24 30       	mov    0x30(%rsp),%rdx
   140006ed4:	48 89 c1             	mov    %rax,%rcx
   140006ed7:	48 89 c3             	mov    %rax,%rbx
   140006eda:	e8 f1 0b 00 00       	call   140007ad0 <__cmp_D2A>
   140006edf:	4c 8b 54 24 30       	mov    0x30(%rsp),%r10
   140006ee4:	44 8b 44 24 38       	mov    0x38(%rsp),%r8d
   140006ee9:	85 c0                	test   %eax,%eax
   140006eeb:	4c 8b 5c 24 48       	mov    0x48(%rsp),%r11
   140006ef0:	0f 8e 52 02 00 00    	jle    140007148 <__gdtoa+0x1798>
   140006ef6:	41 83 f8 39          	cmp    $0x39,%r8d
   140006efa:	74 2d                	je     140006f29 <__gdtoa+0x1579>
   140006efc:	c7 44 24 58 20 00 00 	movl   $0x20,0x58(%rsp)
   140006f03:	00 
   140006f04:	45 8d 46 31          	lea    0x31(%r14),%r8d
   140006f08:	83 7b 14 01          	cmpl   $0x1,0x14(%rbx)
   140006f0c:	0f 8e 14 02 00 00    	jle    140007126 <__gdtoa+0x1776>
   140006f12:	48 89 ee             	mov    %rbp,%rsi
   140006f15:	4c 89 ed             	mov    %r13,%rbp
   140006f18:	c7 44 24 48 10 00 00 	movl   $0x10,0x48(%rsp)
   140006f1f:	00 
   140006f20:	4d 8d 63 01          	lea    0x1(%r11),%r12
   140006f24:	e9 69 fe ff ff       	jmp    140006d92 <__gdtoa+0x13e2>
   140006f29:	4d 8d 63 01          	lea    0x1(%r11),%r12
   140006f2d:	48 89 ee             	mov    %rbp,%rsi
   140006f30:	41 c6 03 39          	movb   $0x39,(%r11)
   140006f34:	48 8b 54 24 68       	mov    0x68(%rsp),%rdx
   140006f39:	4d 89 e6             	mov    %r12,%r14
   140006f3c:	4c 89 ed             	mov    %r13,%rbp
   140006f3f:	e9 05 fc ff ff       	jmp    140006b49 <__gdtoa+0x1199>
   140006f44:	c7 84 24 9c 00 00 00 	movl   $0xffffffff,0x9c(%rsp)
   140006f4b:	ff ff ff ff 
   140006f4f:	e9 66 f3 ff ff       	jmp    1400062ba <__gdtoa+0x90a>
   140006f54:	8b 84 24 9c 00 00 00 	mov    0x9c(%rsp),%eax
   140006f5b:	44 89 74 24 78       	mov    %r14d,0x78(%rsp)
   140006f60:	89 44 24 50          	mov    %eax,0x50(%rsp)
   140006f64:	e9 2b f5 ff ff       	jmp    140006494 <__gdtoa+0xae4>
   140006f69:	f2 0f 58 c0          	addsd  %xmm0,%xmm0
   140006f6d:	44 0f b6 41 ff       	movzbl -0x1(%rcx),%r8d
   140006f72:	66 0f 2f c2          	comisd %xmm2,%xmm0
   140006f76:	0f 87 98 01 00 00    	ja     140007114 <__gdtoa+0x1764>
   140006f7c:	66 0f 2e c2          	ucomisd %xmm2,%xmm0
   140006f80:	48 8b 74 24 68       	mov    0x68(%rsp),%rsi
   140006f85:	44 8b 7c 24 78       	mov    0x78(%rsp),%r15d
   140006f8a:	7a 06                	jp     140006f92 <__gdtoa+0x15e2>
   140006f8c:	75 04                	jne    140006f92 <__gdtoa+0x15e2>
   140006f8e:	a8 01                	test   $0x1,%al
   140006f90:	75 2e                	jne    140006fc0 <__gdtoa+0x1610>
   140006f92:	c7 44 24 48 10 00 00 	movl   $0x10,0x48(%rsp)
   140006f99:	00 
   140006f9a:	66 0f 1f 44 00 00    	nopw   0x0(%rax,%rax,1)
   140006fa0:	48 89 c8             	mov    %rcx,%rax
   140006fa3:	48 8d 49 ff          	lea    -0x1(%rcx),%rcx
   140006fa7:	80 78 ff 30          	cmpb   $0x30,-0x1(%rax)
   140006fab:	74 f3                	je     140006fa0 <__gdtoa+0x15f0>
   140006fad:	48 89 44 24 68       	mov    %rax,0x68(%rsp)
   140006fb2:	41 83 c7 01          	add    $0x1,%r15d
   140006fb6:	e9 4a f2 ff ff       	jmp    140006205 <__gdtoa+0x855>
   140006fbb:	48 8b 74 24 68       	mov    0x68(%rsp),%rsi
   140006fc0:	48 89 ca             	mov    %rcx,%rdx
   140006fc3:	e9 29 f0 ff ff       	jmp    140005ff1 <__gdtoa+0x641>
   140006fc8:	66 0f ef c9          	pxor   %xmm1,%xmm1
   140006fcc:	31 c0                	xor    %eax,%eax
   140006fce:	b9 01 00 00 00       	mov    $0x1,%ecx
   140006fd3:	48 8b 74 24 68       	mov    0x68(%rsp),%rsi
   140006fd8:	66 0f 2e c1          	ucomisd %xmm1,%xmm0
   140006fdc:	48 89 54 24 68       	mov    %rdx,0x68(%rsp)
   140006fe1:	0f 9a c0             	setp   %al
   140006fe4:	0f 45 c1             	cmovne %ecx,%eax
   140006fe7:	41 83 c7 01          	add    $0x1,%r15d
   140006feb:	c1 e0 04             	shl    $0x4,%eax
   140006fee:	89 44 24 48          	mov    %eax,0x48(%rsp)
   140006ff2:	e9 0e f2 ff ff       	jmp    140006205 <__gdtoa+0x855>
   140006ff7:	66 0f 28 c2          	movapd %xmm2,%xmm0
   140006ffb:	e9 88 f5 ff ff       	jmp    140006588 <__gdtoa+0xbd8>
   140007000:	8b 54 24 70          	mov    0x70(%rsp),%edx
   140007004:	89 c8                	mov    %ecx,%eax
   140007006:	01 4c 24 5c          	add    %ecx,0x5c(%rsp)
   14000700a:	89 8c 24 ac 00 00 00 	mov    %ecx,0xac(%rsp)
   140007011:	01 d0                	add    %edx,%eax
   140007013:	89 54 24 60          	mov    %edx,0x60(%rsp)
   140007017:	89 44 24 70          	mov    %eax,0x70(%rsp)
   14000701b:	e9 13 f3 ff ff       	jmp    140006333 <__gdtoa+0x983>
   140007020:	45 31 c0             	xor    %r8d,%r8d
   140007023:	48 89 e9             	mov    %rbp,%rcx
   140007026:	ba 0a 00 00 00       	mov    $0xa,%edx
   14000702b:	e8 30 05 00 00       	call   140007560 <__multadd_D2A>
   140007030:	45 84 ed             	test   %r13b,%r13b
   140007033:	4c 8b 54 24 50       	mov    0x50(%rsp),%r10
   140007038:	48 89 c5             	mov    %rax,%rbp
   14000703b:	0f 85 13 ff ff ff    	jne    140006f54 <__gdtoa+0x15a4>
   140007041:	8b 84 24 9c 00 00 00 	mov    0x9c(%rsp),%eax
   140007048:	44 8b 7c 24 78       	mov    0x78(%rsp),%r15d
   14000704d:	44 8b 5c 24 30       	mov    0x30(%rsp),%r11d
   140007052:	89 44 24 50          	mov    %eax,0x50(%rsp)
   140007056:	e9 ac f5 ff ff       	jmp    140006607 <__gdtoa+0xc57>
   14000705b:	66 0f ef c9          	pxor   %xmm1,%xmm1
   14000705f:	31 c0                	xor    %eax,%eax
   140007061:	ba 01 00 00 00       	mov    $0x1,%edx
   140007066:	48 8b 74 24 68       	mov    0x68(%rsp),%rsi
   14000706b:	66 0f 2e c1          	ucomisd %xmm1,%xmm0
   14000706f:	0f 9a c0             	setp   %al
   140007072:	0f 45 c2             	cmovne %edx,%eax
   140007075:	c1 e0 04             	shl    $0x4,%eax
   140007078:	89 44 24 48          	mov    %eax,0x48(%rsp)
   14000707c:	e9 1f ff ff ff       	jmp    140006fa0 <__gdtoa+0x15f0>
   140007081:	44 0f b6 41 ff       	movzbl -0x1(%rcx),%r8d
   140007086:	48 8b 74 24 68       	mov    0x68(%rsp),%rsi
   14000708b:	48 89 ca             	mov    %rcx,%rdx
   14000708e:	44 8b 7c 24 78       	mov    0x78(%rsp),%r15d
   140007093:	e9 59 ef ff ff       	jmp    140005ff1 <__gdtoa+0x641>
   140007098:	8b 4b 18             	mov    0x18(%rbx),%ecx
   14000709b:	85 c9                	test   %ecx,%ecx
   14000709d:	0f 85 4d fc ff ff    	jne    140006cf0 <__gdtoa+0x1340>
   1400070a3:	85 d2                	test   %edx,%edx
   1400070a5:	0f 8f 08 fe ff ff    	jg     140006eb3 <__gdtoa+0x1503>
   1400070ab:	48 89 ee             	mov    %rbp,%rsi
   1400070ae:	4c 8d 67 01          	lea    0x1(%rdi),%r12
   1400070b2:	4c 89 ed             	mov    %r13,%rbp
   1400070b5:	e9 d8 fc ff ff       	jmp    140006d92 <__gdtoa+0x13e2>
   1400070ba:	8b 4c 24 50          	mov    0x50(%rsp),%ecx
   1400070be:	8b 94 24 80 00 00 00 	mov    0x80(%rsp),%edx
   1400070c5:	8d 41 ff             	lea    -0x1(%rcx),%eax
   1400070c8:	39 c2                	cmp    %eax,%edx
   1400070ca:	0f 8c ac fa ff ff    	jl     140006b7c <__gdtoa+0x11cc>
   1400070d0:	29 c2                	sub    %eax,%edx
   1400070d2:	01 4c 24 5c          	add    %ecx,0x5c(%rsp)
   1400070d6:	89 c8                	mov    %ecx,%eax
   1400070d8:	89 8c 24 ac 00 00 00 	mov    %ecx,0xac(%rsp)
   1400070df:	8b 4c 24 70          	mov    0x70(%rsp),%ecx
   1400070e3:	41 89 d4             	mov    %edx,%r12d
   1400070e6:	01 c8                	add    %ecx,%eax
   1400070e8:	89 4c 24 60          	mov    %ecx,0x60(%rsp)
   1400070ec:	89 44 24 70          	mov    %eax,0x70(%rsp)
   1400070f0:	e9 3e f2 ff ff       	jmp    140006333 <__gdtoa+0x983>
   1400070f5:	8b 44 24 70          	mov    0x70(%rsp),%eax
   1400070f9:	c7 44 24 58 00 00 00 	movl   $0x0,0x58(%rsp)
   140007100:	00 
   140007101:	31 ed                	xor    %ebp,%ebp
   140007103:	44 8b a4 24 80 00 00 	mov    0x80(%rsp),%r12d
   14000710a:	00 
   14000710b:	89 44 24 60          	mov    %eax,0x60(%rsp)
   14000710f:	e9 44 f2 ff ff       	jmp    140006358 <__gdtoa+0x9a8>
   140007114:	48 8b 74 24 68       	mov    0x68(%rsp),%rsi
   140007119:	44 8b 7c 24 78       	mov    0x78(%rsp),%r15d
   14000711e:	48 89 ca             	mov    %rcx,%rdx
   140007121:	e9 cb ee ff ff       	jmp    140005ff1 <__gdtoa+0x641>
   140007126:	8b 53 18             	mov    0x18(%rbx),%edx
   140007129:	48 89 ee             	mov    %rbp,%rsi
   14000712c:	4c 89 ed             	mov    %r13,%rbp
   14000712f:	85 d2                	test   %edx,%edx
   140007131:	0f 85 e1 fd ff ff    	jne    140006f18 <__gdtoa+0x1568>
   140007137:	8b 44 24 58          	mov    0x58(%rsp),%eax
   14000713b:	4d 8d 63 01          	lea    0x1(%r11),%r12
   14000713f:	89 44 24 48          	mov    %eax,0x48(%rsp)
   140007143:	e9 4a fc ff ff       	jmp    140006d92 <__gdtoa+0x13e2>
   140007148:	75 0a                	jne    140007154 <__gdtoa+0x17a4>
   14000714a:	41 f6 c0 01          	test   $0x1,%r8b
   14000714e:	0f 85 a2 fd ff ff    	jne    140006ef6 <__gdtoa+0x1546>
   140007154:	c7 44 24 58 20 00 00 	movl   $0x20,0x58(%rsp)
   14000715b:	00 
   14000715c:	e9 a7 fd ff ff       	jmp    140006f08 <__gdtoa+0x1558>
   140007161:	83 7b 14 01          	cmpl   $0x1,0x14(%rbx)
   140007165:	c7 44 24 48 10 00 00 	movl   $0x10,0x48(%rsp)
   14000716c:	00 
   14000716d:	0f 8f 3d f6 ff ff    	jg     1400067b0 <__gdtoa+0xe00>
   140007173:	31 c0                	xor    %eax,%eax
   140007175:	83 7b 18 00          	cmpl   $0x0,0x18(%rbx)
   140007179:	0f 95 c0             	setne  %al
   14000717c:	c1 e0 04             	shl    $0x4,%eax
   14000717f:	89 44 24 48          	mov    %eax,0x48(%rsp)
   140007183:	e9 28 f6 ff ff       	jmp    1400067b0 <__gdtoa+0xe00>
   140007188:	90                   	nop
   140007189:	90                   	nop
   14000718a:	90                   	nop
   14000718b:	90                   	nop
   14000718c:	90                   	nop
   14000718d:	90                   	nop
   14000718e:	90                   	nop
   14000718f:	90                   	nop

0000000140007190 <__rshift_D2A>:
   140007190:	41 54                	push   %r12
   140007192:	55                   	push   %rbp
   140007193:	57                   	push   %rdi
   140007194:	56                   	push   %rsi
   140007195:	53                   	push   %rbx
   140007196:	48 63 59 14          	movslq 0x14(%rcx),%rbx
   14000719a:	89 d5                	mov    %edx,%ebp
   14000719c:	49 89 ca             	mov    %rcx,%r10
   14000719f:	c1 fd 05             	sar    $0x5,%ebp
   1400071a2:	39 eb                	cmp    %ebp,%ebx
   1400071a4:	7f 1a                	jg     1400071c0 <__rshift_D2A+0x30>
   1400071a6:	41 c7 42 14 00 00 00 	movl   $0x0,0x14(%r10)
   1400071ad:	00 
   1400071ae:	41 c7 42 18 00 00 00 	movl   $0x0,0x18(%r10)
   1400071b5:	00 
   1400071b6:	5b                   	pop    %rbx
   1400071b7:	5e                   	pop    %rsi
   1400071b8:	5f                   	pop    %rdi
   1400071b9:	5d                   	pop    %rbp
   1400071ba:	41 5c                	pop    %r12
   1400071bc:	c3                   	ret
   1400071bd:	0f 1f 00             	nopl   (%rax)
   1400071c0:	4c 8d 61 18          	lea    0x18(%rcx),%r12
   1400071c4:	48 63 ed             	movslq %ebp,%rbp
   1400071c7:	4d 8d 1c 9c          	lea    (%r12,%rbx,4),%r11
   1400071cb:	49 8d 34 ac          	lea    (%r12,%rbp,4),%rsi
   1400071cf:	83 e2 1f             	and    $0x1f,%edx
   1400071d2:	74 64                	je     140007238 <__rshift_D2A+0xa8>
   1400071d4:	44 8b 0e             	mov    (%rsi),%r9d
   1400071d7:	bf 20 00 00 00       	mov    $0x20,%edi
   1400071dc:	89 d1                	mov    %edx,%ecx
   1400071de:	4c 8d 46 04          	lea    0x4(%rsi),%r8
   1400071e2:	29 d7                	sub    %edx,%edi
   1400071e4:	41 d3 e9             	shr    %cl,%r9d
   1400071e7:	4d 39 d8             	cmp    %r11,%r8
   1400071ea:	0f 83 80 00 00 00    	jae    140007270 <__rshift_D2A+0xe0>
   1400071f0:	4c 89 e6             	mov    %r12,%rsi
   1400071f3:	0f 1f 44 00 00       	nopl   0x0(%rax,%rax,1)
   1400071f8:	41 8b 00             	mov    (%r8),%eax
   1400071fb:	89 f9                	mov    %edi,%ecx
   1400071fd:	48 83 c6 04          	add    $0x4,%rsi
   140007201:	49 83 c0 04          	add    $0x4,%r8
   140007205:	d3 e0                	shl    %cl,%eax
   140007207:	89 d1                	mov    %edx,%ecx
   140007209:	44 09 c8             	or     %r9d,%eax
   14000720c:	89 46 fc             	mov    %eax,-0x4(%rsi)
   14000720f:	45 8b 48 fc          	mov    -0x4(%r8),%r9d
   140007213:	41 d3 e9             	shr    %cl,%r9d
   140007216:	4d 39 d8             	cmp    %r11,%r8
   140007219:	72 dd                	jb     1400071f8 <__rshift_D2A+0x68>
   14000721b:	48 29 eb             	sub    %rbp,%rbx
   14000721e:	49 8d 44 9c fc       	lea    -0x4(%r12,%rbx,4),%rax
   140007223:	44 89 08             	mov    %r9d,(%rax)
   140007226:	45 85 c9             	test   %r9d,%r9d
   140007229:	74 2a                	je     140007255 <__rshift_D2A+0xc5>
   14000722b:	48 83 c0 04          	add    $0x4,%rax
   14000722f:	eb 24                	jmp    140007255 <__rshift_D2A+0xc5>
   140007231:	0f 1f 80 00 00 00 00 	nopl   0x0(%rax)
   140007238:	4c 89 e7             	mov    %r12,%rdi
   14000723b:	4c 39 de             	cmp    %r11,%rsi
   14000723e:	0f 83 62 ff ff ff    	jae    1400071a6 <__rshift_D2A+0x16>
   140007244:	0f 1f 40 00          	nopl   0x0(%rax)
   140007248:	a5                   	movsl  %ds:(%rsi),%es:(%rdi)
   140007249:	4c 39 de             	cmp    %r11,%rsi
   14000724c:	72 fa                	jb     140007248 <__rshift_D2A+0xb8>
   14000724e:	48 29 eb             	sub    %rbp,%rbx
   140007251:	49 8d 04 9c          	lea    (%r12,%rbx,4),%rax
   140007255:	4c 29 e0             	sub    %r12,%rax
   140007258:	48 c1 f8 02          	sar    $0x2,%rax
   14000725c:	41 89 42 14          	mov    %eax,0x14(%r10)
   140007260:	85 c0                	test   %eax,%eax
   140007262:	0f 84 46 ff ff ff    	je     1400071ae <__rshift_D2A+0x1e>
   140007268:	5b                   	pop    %rbx
   140007269:	5e                   	pop    %rsi
   14000726a:	5f                   	pop    %rdi
   14000726b:	5d                   	pop    %rbp
   14000726c:	41 5c                	pop    %r12
   14000726e:	c3                   	ret
   14000726f:	90                   	nop
   140007270:	45 89 4a 18          	mov    %r9d,0x18(%r10)
   140007274:	45 85 c9             	test   %r9d,%r9d
   140007277:	0f 84 29 ff ff ff    	je     1400071a6 <__rshift_D2A+0x16>
   14000727d:	4c 89 e0             	mov    %r12,%rax
   140007280:	eb a9                	jmp    14000722b <__rshift_D2A+0x9b>
   140007282:	66 66 2e 0f 1f 84 00 	data16 cs nopw 0x0(%rax,%rax,1)
   140007289:	00 00 00 00 
   14000728d:	0f 1f 00             	nopl   (%rax)

0000000140007290 <__trailz_D2A>:
   140007290:	48 63 51 14          	movslq 0x14(%rcx),%rdx
   140007294:	48 8d 41 18          	lea    0x18(%rcx),%rax
   140007298:	48 8d 0c 90          	lea    (%rax,%rdx,4),%rcx
   14000729c:	31 d2                	xor    %edx,%edx
   14000729e:	48 39 c8             	cmp    %rcx,%rax
   1400072a1:	72 11                	jb     1400072b4 <__trailz_D2A+0x24>
   1400072a3:	eb 22                	jmp    1400072c7 <__trailz_D2A+0x37>
   1400072a5:	0f 1f 00             	nopl   (%rax)
   1400072a8:	48 83 c0 04          	add    $0x4,%rax
   1400072ac:	83 c2 20             	add    $0x20,%edx
   1400072af:	48 39 c8             	cmp    %rcx,%rax
   1400072b2:	73 13                	jae    1400072c7 <__trailz_D2A+0x37>
   1400072b4:	44 8b 00             	mov    (%rax),%r8d
   1400072b7:	45 85 c0             	test   %r8d,%r8d
   1400072ba:	74 ec                	je     1400072a8 <__trailz_D2A+0x18>
   1400072bc:	48 39 c8             	cmp    %rcx,%rax
   1400072bf:	73 06                	jae    1400072c7 <__trailz_D2A+0x37>
   1400072c1:	f3 0f bc 00          	tzcnt  (%rax),%eax
   1400072c5:	01 c2                	add    %eax,%edx
   1400072c7:	89 d0                	mov    %edx,%eax
   1400072c9:	c3                   	ret
   1400072ca:	90                   	nop
   1400072cb:	90                   	nop
   1400072cc:	90                   	nop
   1400072cd:	90                   	nop
   1400072ce:	90                   	nop
   1400072cf:	90                   	nop

00000001400072d0 <dtoa_lock>:
   1400072d0:	57                   	push   %rdi
   1400072d1:	56                   	push   %rsi
   1400072d2:	53                   	push   %rbx
   1400072d3:	48 83 ec 20          	sub    $0x20,%rsp
   1400072d7:	8b 05 33 7c 00 00    	mov    0x7c33(%rip),%eax        # 14000ef10 <dtoa_CS_init>
   1400072dd:	89 ce                	mov    %ecx,%esi
   1400072df:	83 f8 02             	cmp    $0x2,%eax
   1400072e2:	0f 84 b8 00 00 00    	je     1400073a0 <dtoa_lock+0xd0>
   1400072e8:	85 c0                	test   %eax,%eax
   1400072ea:	74 3c                	je     140007328 <dtoa_lock+0x58>
   1400072ec:	83 f8 01             	cmp    $0x1,%eax
   1400072ef:	75 2a                	jne    14000731b <dtoa_lock+0x4b>
   1400072f1:	48 8b 1d 80 7f 00 00 	mov    0x7f80(%rip),%rbx        # 14000f278 <__imp_Sleep>
   1400072f8:	0f 1f 84 00 00 00 00 	nopl   0x0(%rax,%rax,1)
   1400072ff:	00 
   140007300:	b9 01 00 00 00       	mov    $0x1,%ecx
   140007305:	ff d3                	call   *%rbx
   140007307:	8b 05 03 7c 00 00    	mov    0x7c03(%rip),%eax        # 14000ef10 <dtoa_CS_init>
   14000730d:	83 f8 01             	cmp    $0x1,%eax
   140007310:	74 ee                	je     140007300 <dtoa_lock+0x30>
   140007312:	83 f8 02             	cmp    $0x2,%eax
   140007315:	0f 84 85 00 00 00    	je     1400073a0 <dtoa_lock+0xd0>
   14000731b:	48 83 c4 20          	add    $0x20,%rsp
   14000731f:	5b                   	pop    %rbx
   140007320:	5e                   	pop    %rsi
   140007321:	5f                   	pop    %rdi
   140007322:	c3                   	ret
   140007323:	0f 1f 44 00 00       	nopl   0x0(%rax,%rax,1)
   140007328:	b8 01 00 00 00       	mov    $0x1,%eax
   14000732d:	87 05 dd 7b 00 00    	xchg   %eax,0x7bdd(%rip)        # 14000ef10 <dtoa_CS_init>
   140007333:	85 c0                	test   %eax,%eax
   140007335:	75 49                	jne    140007380 <dtoa_lock+0xb0>
   140007337:	48 8d 1d e2 7b 00 00 	lea    0x7be2(%rip),%rbx        # 14000ef20 <dtoa_CritSec>
   14000733e:	48 8b 3d 03 7f 00 00 	mov    0x7f03(%rip),%rdi        # 14000f248 <__imp_InitializeCriticalSection>
   140007345:	48 89 d9             	mov    %rbx,%rcx
   140007348:	ff d7                	call   *%rdi
   14000734a:	48 8d 4b 28          	lea    0x28(%rbx),%rcx
   14000734e:	ff d7                	call   *%rdi
   140007350:	48 8d 0d 59 00 00 00 	lea    0x59(%rip),%rcx        # 1400073b0 <dtoa_lock_cleanup>
   140007357:	e8 b4 a0 ff ff       	call   140001410 <atexit>
   14000735c:	c7 05 aa 7b 00 00 02 	movl   $0x2,0x7baa(%rip)        # 14000ef10 <dtoa_CS_init>
   140007363:	00 00 00 
   140007366:	48 63 ce             	movslq %esi,%rcx
   140007369:	48 8d 04 89          	lea    (%rcx,%rcx,4),%rax
   14000736d:	48 8d 0c c3          	lea    (%rbx,%rax,8),%rcx
   140007371:	48 83 c4 20          	add    $0x20,%rsp
   140007375:	5b                   	pop    %rbx
   140007376:	5e                   	pop    %rsi
   140007377:	5f                   	pop    %rdi
   140007378:	48 ff 25 b1 7e 00 00 	rex.W jmp *0x7eb1(%rip)        # 14000f230 <__imp_EnterCriticalSection>
   14000737f:	90                   	nop
   140007380:	48 8d 1d 99 7b 00 00 	lea    0x7b99(%rip),%rbx        # 14000ef20 <dtoa_CritSec>
   140007387:	83 f8 02             	cmp    $0x2,%eax
   14000738a:	74 d0                	je     14000735c <dtoa_lock+0x8c>
   14000738c:	8b 05 7e 7b 00 00    	mov    0x7b7e(%rip),%eax        # 14000ef10 <dtoa_CS_init>
   140007392:	83 f8 01             	cmp    $0x1,%eax
   140007395:	0f 84 56 ff ff ff    	je     1400072f1 <dtoa_lock+0x21>
   14000739b:	e9 72 ff ff ff       	jmp    140007312 <dtoa_lock+0x42>
   1400073a0:	48 8d 1d 79 7b 00 00 	lea    0x7b79(%rip),%rbx        # 14000ef20 <dtoa_CritSec>
   1400073a7:	eb bd                	jmp    140007366 <dtoa_lock+0x96>
   1400073a9:	0f 1f 80 00 00 00 00 	nopl   0x0(%rax)

00000001400073b0 <dtoa_lock_cleanup>:
   1400073b0:	53                   	push   %rbx
   1400073b1:	48 83 ec 20          	sub    $0x20,%rsp
   1400073b5:	b8 03 00 00 00       	mov    $0x3,%eax
   1400073ba:	87 05 50 7b 00 00    	xchg   %eax,0x7b50(%rip)        # 14000ef10 <dtoa_CS_init>
   1400073c0:	83 f8 02             	cmp    $0x2,%eax
   1400073c3:	74 0b                	je     1400073d0 <dtoa_lock_cleanup+0x20>
   1400073c5:	48 83 c4 20          	add    $0x20,%rsp
   1400073c9:	5b                   	pop    %rbx
   1400073ca:	c3                   	ret
   1400073cb:	0f 1f 44 00 00       	nopl   0x0(%rax,%rax,1)
   1400073d0:	48 8b 1d 51 7e 00 00 	mov    0x7e51(%rip),%rbx        # 14000f228 <__imp_DeleteCriticalSection>
   1400073d7:	48 8d 0d 42 7b 00 00 	lea    0x7b42(%rip),%rcx        # 14000ef20 <dtoa_CritSec>
   1400073de:	ff d3                	call   *%rbx
   1400073e0:	48 8d 0d 61 7b 00 00 	lea    0x7b61(%rip),%rcx        # 14000ef48 <dtoa_CritSec+0x28>
   1400073e7:	48 89 d8             	mov    %rbx,%rax
   1400073ea:	48 83 c4 20          	add    $0x20,%rsp
   1400073ee:	5b                   	pop    %rbx
   1400073ef:	48 ff e0             	rex.W jmp *%rax
   1400073f2:	66 66 2e 0f 1f 84 00 	data16 cs nopw 0x0(%rax,%rax,1)
   1400073f9:	00 00 00 00 
   1400073fd:	0f 1f 00             	nopl   (%rax)

0000000140007400 <__Balloc_D2A>:
   140007400:	56                   	push   %rsi
   140007401:	53                   	push   %rbx
   140007402:	48 83 ec 38          	sub    $0x38,%rsp
   140007406:	89 cb                	mov    %ecx,%ebx
   140007408:	31 c9                	xor    %ecx,%ecx
   14000740a:	e8 c1 fe ff ff       	call   1400072d0 <dtoa_lock>
   14000740f:	83 fb 09             	cmp    $0x9,%ebx
   140007412:	7f 3c                	jg     140007450 <__Balloc_D2A+0x50>
   140007414:	48 8d 15 a5 7a 00 00 	lea    0x7aa5(%rip),%rdx        # 14000eec0 <freelist>
   14000741b:	48 63 cb             	movslq %ebx,%rcx
   14000741e:	48 8b 04 ca          	mov    (%rdx,%rcx,8),%rax
   140007422:	48 85 c0             	test   %rax,%rax
   140007425:	74 79                	je     1400074a0 <__Balloc_D2A+0xa0>
   140007427:	4c 8b 00             	mov    (%rax),%r8
   14000742a:	83 3d df 7a 00 00 02 	cmpl   $0x2,0x7adf(%rip)        # 14000ef10 <dtoa_CS_init>
   140007431:	4c 89 04 ca          	mov    %r8,(%rdx,%rcx,8)
   140007435:	75 50                	jne    140007487 <__Balloc_D2A+0x87>
   140007437:	48 89 44 24 28       	mov    %rax,0x28(%rsp)
   14000743c:	48 8d 0d dd 7a 00 00 	lea    0x7add(%rip),%rcx        # 14000ef20 <dtoa_CritSec>
   140007443:	ff 15 0f 7e 00 00    	call   *0x7e0f(%rip)        # 14000f258 <__imp_LeaveCriticalSection>
   140007449:	48 8b 44 24 28       	mov    0x28(%rsp),%rax
   14000744e:	eb 37                	jmp    140007487 <__Balloc_D2A+0x87>
   140007450:	89 d9                	mov    %ebx,%ecx
   140007452:	be 01 00 00 00       	mov    $0x1,%esi
   140007457:	d3 e6                	shl    %cl,%esi
   140007459:	48 63 c6             	movslq %esi,%rax
   14000745c:	48 8d 0c 85 23 00 00 	lea    0x23(,%rax,4),%rcx
   140007463:	00 
   140007464:	48 c1 e9 03          	shr    $0x3,%rcx
   140007468:	89 c9                	mov    %ecx,%ecx
   14000746a:	48 c1 e1 03          	shl    $0x3,%rcx
   14000746e:	e8 1d 12 00 00       	call   140008690 <malloc>
   140007473:	48 85 c0             	test   %rax,%rax
   140007476:	74 17                	je     14000748f <__Balloc_D2A+0x8f>
   140007478:	83 3d 91 7a 00 00 02 	cmpl   $0x2,0x7a91(%rip)        # 14000ef10 <dtoa_CS_init>
   14000747f:	89 58 08             	mov    %ebx,0x8(%rax)
   140007482:	89 70 0c             	mov    %esi,0xc(%rax)
   140007485:	74 b0                	je     140007437 <__Balloc_D2A+0x37>
   140007487:	48 c7 40 10 00 00 00 	movq   $0x0,0x10(%rax)
   14000748e:	00 
   14000748f:	48 83 c4 38          	add    $0x38,%rsp
   140007493:	5b                   	pop    %rbx
   140007494:	5e                   	pop    %rsi
   140007495:	c3                   	ret
   140007496:	66 2e 0f 1f 84 00 00 	cs nopw 0x0(%rax,%rax,1)
   14000749d:	00 00 00 
   1400074a0:	89 d9                	mov    %ebx,%ecx
   1400074a2:	be 01 00 00 00       	mov    $0x1,%esi
   1400074a7:	4c 8d 05 12 71 00 00 	lea    0x7112(%rip),%r8        # 14000e5c0 <private_mem>
   1400074ae:	d3 e6                	shl    %cl,%esi
   1400074b0:	8d 46 09             	lea    0x9(%rsi),%eax
   1400074b3:	48 98                	cltq
   1400074b5:	48 8d 0c 85 ff ff ff 	lea    -0x1(,%rax,4),%rcx
   1400074bc:	ff 
   1400074bd:	48 8b 05 bc 1b 00 00 	mov    0x1bbc(%rip),%rax        # 140009080 <pmem_next>
   1400074c4:	48 c1 e9 03          	shr    $0x3,%rcx
   1400074c8:	48 89 c2             	mov    %rax,%rdx
   1400074cb:	4c 29 c2             	sub    %r8,%rdx
   1400074ce:	48 c1 fa 03          	sar    $0x3,%rdx
   1400074d2:	48 01 ca             	add    %rcx,%rdx
   1400074d5:	48 81 fa 20 01 00 00 	cmp    $0x120,%rdx
   1400074dc:	77 8c                	ja     14000746a <__Balloc_D2A+0x6a>
   1400074de:	48 8d 14 c8          	lea    (%rax,%rcx,8),%rdx
   1400074e2:	48 89 15 97 1b 00 00 	mov    %rdx,0x1b97(%rip)        # 140009080 <pmem_next>
   1400074e9:	eb 8d                	jmp    140007478 <__Balloc_D2A+0x78>
   1400074eb:	0f 1f 44 00 00       	nopl   0x0(%rax,%rax,1)

00000001400074f0 <__Bfree_D2A>:
   1400074f0:	53                   	push   %rbx
   1400074f1:	48 83 ec 20          	sub    $0x20,%rsp
   1400074f5:	48 89 cb             	mov    %rcx,%rbx
   1400074f8:	48 85 c9             	test   %rcx,%rcx
   1400074fb:	74 39                	je     140007536 <__Bfree_D2A+0x46>
   1400074fd:	83 79 08 09          	cmpl   $0x9,0x8(%rcx)
   140007501:	7e 0d                	jle    140007510 <__Bfree_D2A+0x20>
   140007503:	48 83 c4 20          	add    $0x20,%rsp
   140007507:	5b                   	pop    %rbx
   140007508:	e9 6b 11 00 00       	jmp    140008678 <free>
   14000750d:	0f 1f 00             	nopl   (%rax)
   140007510:	31 c9                	xor    %ecx,%ecx
   140007512:	e8 b9 fd ff ff       	call   1400072d0 <dtoa_lock>
   140007517:	48 63 53 08          	movslq 0x8(%rbx),%rdx
   14000751b:	48 8d 05 9e 79 00 00 	lea    0x799e(%rip),%rax        # 14000eec0 <freelist>
   140007522:	83 3d e7 79 00 00 02 	cmpl   $0x2,0x79e7(%rip)        # 14000ef10 <dtoa_CS_init>
   140007529:	48 8b 0c d0          	mov    (%rax,%rdx,8),%rcx
   14000752d:	48 89 1c d0          	mov    %rbx,(%rax,%rdx,8)
   140007531:	48 89 0b             	mov    %rcx,(%rbx)
   140007534:	74 0a                	je     140007540 <__Bfree_D2A+0x50>
   140007536:	48 83 c4 20          	add    $0x20,%rsp
   14000753a:	5b                   	pop    %rbx
   14000753b:	c3                   	ret
   14000753c:	0f 1f 40 00          	nopl   0x0(%rax)
   140007540:	48 8d 0d d9 79 00 00 	lea    0x79d9(%rip),%rcx        # 14000ef20 <dtoa_CritSec>
   140007547:	48 83 c4 20          	add    $0x20,%rsp
   14000754b:	5b                   	pop    %rbx
   14000754c:	48 ff 25 05 7d 00 00 	rex.W jmp *0x7d05(%rip)        # 14000f258 <__imp_LeaveCriticalSection>
   140007553:	66 66 2e 0f 1f 84 00 	data16 cs nopw 0x0(%rax,%rax,1)
   14000755a:	00 00 00 00 
   14000755e:	66 90                	xchg   %ax,%ax

0000000140007560 <__multadd_D2A>:
   140007560:	55                   	push   %rbp
   140007561:	57                   	push   %rdi
   140007562:	56                   	push   %rsi
   140007563:	53                   	push   %rbx
   140007564:	48 83 ec 28          	sub    $0x28,%rsp
   140007568:	8b 79 14             	mov    0x14(%rcx),%edi
   14000756b:	48 89 cb             	mov    %rcx,%rbx
   14000756e:	49 63 f0             	movslq %r8d,%rsi
   140007571:	48 63 d2             	movslq %edx,%rdx
   140007574:	31 c9                	xor    %ecx,%ecx
   140007576:	66 2e 0f 1f 84 00 00 	cs nopw 0x0(%rax,%rax,1)
   14000757d:	00 00 00 
   140007580:	8b 44 8b 18          	mov    0x18(%rbx,%rcx,4),%eax
   140007584:	48 0f af c2          	imul   %rdx,%rax
   140007588:	48 01 f0             	add    %rsi,%rax
   14000758b:	89 44 8b 18          	mov    %eax,0x18(%rbx,%rcx,4)
   14000758f:	48 89 c6             	mov    %rax,%rsi
   140007592:	48 83 c1 01          	add    $0x1,%rcx
   140007596:	48 c1 ee 20          	shr    $0x20,%rsi
   14000759a:	39 cf                	cmp    %ecx,%edi
   14000759c:	7f e2                	jg     140007580 <__multadd_D2A+0x20>
   14000759e:	48 89 dd             	mov    %rbx,%rbp
   1400075a1:	48 85 f6             	test   %rsi,%rsi
   1400075a4:	74 15                	je     1400075bb <__multadd_D2A+0x5b>
   1400075a6:	39 7b 0c             	cmp    %edi,0xc(%rbx)
   1400075a9:	7e 25                	jle    1400075d0 <__multadd_D2A+0x70>
   1400075ab:	48 63 c7             	movslq %edi,%rax
   1400075ae:	83 c7 01             	add    $0x1,%edi
   1400075b1:	48 89 dd             	mov    %rbx,%rbp
   1400075b4:	89 74 83 18          	mov    %esi,0x18(%rbx,%rax,4)
   1400075b8:	89 7b 14             	mov    %edi,0x14(%rbx)
   1400075bb:	48 89 e8             	mov    %rbp,%rax
   1400075be:	48 83 c4 28          	add    $0x28,%rsp
   1400075c2:	5b                   	pop    %rbx
   1400075c3:	5e                   	pop    %rsi
   1400075c4:	5f                   	pop    %rdi
   1400075c5:	5d                   	pop    %rbp
   1400075c6:	c3                   	ret
   1400075c7:	66 0f 1f 84 00 00 00 	nopw   0x0(%rax,%rax,1)
   1400075ce:	00 00 
   1400075d0:	8b 43 08             	mov    0x8(%rbx),%eax
   1400075d3:	8d 48 01             	lea    0x1(%rax),%ecx
   1400075d6:	e8 25 fe ff ff       	call   140007400 <__Balloc_D2A>
   1400075db:	48 89 c5             	mov    %rax,%rbp
   1400075de:	48 85 c0             	test   %rax,%rax
   1400075e1:	74 d8                	je     1400075bb <__multadd_D2A+0x5b>
   1400075e3:	48 8d 48 10          	lea    0x10(%rax),%rcx
   1400075e7:	48 63 43 14          	movslq 0x14(%rbx),%rax
   1400075eb:	48 8d 53 10          	lea    0x10(%rbx),%rdx
   1400075ef:	4c 8d 04 85 08 00 00 	lea    0x8(,%rax,4),%r8
   1400075f6:	00 
   1400075f7:	e8 9c 10 00 00       	call   140008698 <memcpy>
   1400075fc:	48 89 d9             	mov    %rbx,%rcx
   1400075ff:	48 89 eb             	mov    %rbp,%rbx
   140007602:	e8 e9 fe ff ff       	call   1400074f0 <__Bfree_D2A>
   140007607:	48 63 c7             	movslq %edi,%rax
   14000760a:	83 c7 01             	add    $0x1,%edi
   14000760d:	48 89 dd             	mov    %rbx,%rbp
   140007610:	89 74 83 18          	mov    %esi,0x18(%rbx,%rax,4)
   140007614:	89 7b 14             	mov    %edi,0x14(%rbx)
   140007617:	eb a2                	jmp    1400075bb <__multadd_D2A+0x5b>
   140007619:	0f 1f 80 00 00 00 00 	nopl   0x0(%rax)

0000000140007620 <__i2b_D2A>:
   140007620:	53                   	push   %rbx
   140007621:	48 83 ec 30          	sub    $0x30,%rsp
   140007625:	89 cb                	mov    %ecx,%ebx
   140007627:	31 c9                	xor    %ecx,%ecx
   140007629:	e8 a2 fc ff ff       	call   1400072d0 <dtoa_lock>
   14000762e:	48 8b 05 93 78 00 00 	mov    0x7893(%rip),%rax        # 14000eec8 <freelist+0x8>
   140007635:	48 85 c0             	test   %rax,%rax
   140007638:	74 2e                	je     140007668 <__i2b_D2A+0x48>
   14000763a:	48 8b 10             	mov    (%rax),%rdx
   14000763d:	83 3d cc 78 00 00 02 	cmpl   $0x2,0x78cc(%rip)        # 14000ef10 <dtoa_CS_init>
   140007644:	48 89 15 7d 78 00 00 	mov    %rdx,0x787d(%rip)        # 14000eec8 <freelist+0x8>
   14000764b:	74 63                	je     1400076b0 <__i2b_D2A+0x90>
   14000764d:	48 8b 15 bc 31 00 00 	mov    0x31bc(%rip),%rdx        # 14000a810 <__bigtens_D2A+0x30>
   140007654:	89 58 18             	mov    %ebx,0x18(%rax)
   140007657:	48 89 50 10          	mov    %rdx,0x10(%rax)
   14000765b:	48 83 c4 30          	add    $0x30,%rsp
   14000765f:	5b                   	pop    %rbx
   140007660:	c3                   	ret
   140007661:	0f 1f 80 00 00 00 00 	nopl   0x0(%rax)
   140007668:	48 8b 05 11 1a 00 00 	mov    0x1a11(%rip),%rax        # 140009080 <pmem_next>
   14000766f:	48 8d 0d 4a 6f 00 00 	lea    0x6f4a(%rip),%rcx        # 14000e5c0 <private_mem>
   140007676:	48 89 c2             	mov    %rax,%rdx
   140007679:	48 29 ca             	sub    %rcx,%rdx
   14000767c:	48 c1 fa 03          	sar    $0x3,%rdx
   140007680:	48 83 c2 05          	add    $0x5,%rdx
   140007684:	48 81 fa 20 01 00 00 	cmp    $0x120,%rdx
   14000768b:	76 43                	jbe    1400076d0 <__i2b_D2A+0xb0>
   14000768d:	b9 28 00 00 00       	mov    $0x28,%ecx
   140007692:	e8 f9 0f 00 00       	call   140008690 <malloc>
   140007697:	48 85 c0             	test   %rax,%rax
   14000769a:	74 bf                	je     14000765b <__i2b_D2A+0x3b>
   14000769c:	48 8b 15 65 31 00 00 	mov    0x3165(%rip),%rdx        # 14000a808 <__bigtens_D2A+0x28>
   1400076a3:	83 3d 66 78 00 00 02 	cmpl   $0x2,0x7866(%rip)        # 14000ef10 <dtoa_CS_init>
   1400076aa:	48 89 50 08          	mov    %rdx,0x8(%rax)
   1400076ae:	75 9d                	jne    14000764d <__i2b_D2A+0x2d>
   1400076b0:	48 89 44 24 28       	mov    %rax,0x28(%rsp)
   1400076b5:	48 8d 0d 64 78 00 00 	lea    0x7864(%rip),%rcx        # 14000ef20 <dtoa_CritSec>
   1400076bc:	ff 15 96 7b 00 00    	call   *0x7b96(%rip)        # 14000f258 <__imp_LeaveCriticalSection>
   1400076c2:	48 8b 44 24 28       	mov    0x28(%rsp),%rax
   1400076c7:	eb 84                	jmp    14000764d <__i2b_D2A+0x2d>
   1400076c9:	0f 1f 80 00 00 00 00 	nopl   0x0(%rax)
   1400076d0:	48 8d 50 28          	lea    0x28(%rax),%rdx
   1400076d4:	48 89 15 a5 19 00 00 	mov    %rdx,0x19a5(%rip)        # 140009080 <pmem_next>
   1400076db:	eb bf                	jmp    14000769c <__i2b_D2A+0x7c>
   1400076dd:	0f 1f 00             	nopl   (%rax)

00000001400076e0 <__mult_D2A>:
   1400076e0:	41 57                	push   %r15
   1400076e2:	41 56                	push   %r14
   1400076e4:	41 55                	push   %r13
   1400076e6:	41 54                	push   %r12
   1400076e8:	55                   	push   %rbp
   1400076e9:	57                   	push   %rdi
   1400076ea:	56                   	push   %rsi
   1400076eb:	53                   	push   %rbx
   1400076ec:	48 83 ec 28          	sub    $0x28,%rsp
   1400076f0:	4c 63 61 14          	movslq 0x14(%rcx),%r12
   1400076f4:	48 63 6a 14          	movslq 0x14(%rdx),%rbp
   1400076f8:	49 89 cd             	mov    %rcx,%r13
   1400076fb:	49 89 d7             	mov    %rdx,%r15
   1400076fe:	41 39 ec             	cmp    %ebp,%r12d
   140007701:	7c 0e                	jl     140007711 <__mult_D2A+0x31>
   140007703:	89 e8                	mov    %ebp,%eax
   140007705:	49 89 cf             	mov    %rcx,%r15
   140007708:	49 63 ec             	movslq %r12d,%rbp
   14000770b:	49 89 d5             	mov    %rdx,%r13
   14000770e:	4c 63 e0             	movslq %eax,%r12
   140007711:	41 8b 4f 08          	mov    0x8(%r15),%ecx
   140007715:	42 8d 5c 25 00       	lea    0x0(%rbp,%r12,1),%ebx
   14000771a:	41 39 5f 0c          	cmp    %ebx,0xc(%r15)
   14000771e:	7d 03                	jge    140007723 <__mult_D2A+0x43>
   140007720:	83 c1 01             	add    $0x1,%ecx
   140007723:	e8 d8 fc ff ff       	call   140007400 <__Balloc_D2A>
   140007728:	48 89 c7             	mov    %rax,%rdi
   14000772b:	48 85 c0             	test   %rax,%rax
   14000772e:	0f 84 ef 00 00 00    	je     140007823 <__mult_D2A+0x143>
   140007734:	4c 8d 58 18          	lea    0x18(%rax),%r11
   140007738:	48 63 c3             	movslq %ebx,%rax
   14000773b:	49 8d 34 83          	lea    (%r11,%rax,4),%rsi
   14000773f:	49 39 f3             	cmp    %rsi,%r11
   140007742:	73 23                	jae    140007767 <__mult_D2A+0x87>
   140007744:	48 89 f0             	mov    %rsi,%rax
   140007747:	4c 89 d9             	mov    %r11,%rcx
   14000774a:	31 d2                	xor    %edx,%edx
   14000774c:	48 29 f8             	sub    %rdi,%rax
   14000774f:	48 83 e8 19          	sub    $0x19,%rax
   140007753:	48 c1 e8 02          	shr    $0x2,%rax
   140007757:	4c 8d 04 85 04 00 00 	lea    0x4(,%rax,4),%r8
   14000775e:	00 
   14000775f:	e8 3c 0f 00 00       	call   1400086a0 <memset>
   140007764:	49 89 c3             	mov    %rax,%r11
   140007767:	4d 8d 4d 18          	lea    0x18(%r13),%r9
   14000776b:	4d 8d 77 18          	lea    0x18(%r15),%r14
   14000776f:	4f 8d 24 a1          	lea    (%r9,%r12,4),%r12
   140007773:	49 8d 2c ae          	lea    (%r14,%rbp,4),%rbp
   140007777:	4d 39 e1             	cmp    %r12,%r9
   14000777a:	0f 83 83 00 00 00    	jae    140007803 <__mult_D2A+0x123>
   140007780:	48 89 e8             	mov    %rbp,%rax
   140007783:	4c 29 f8             	sub    %r15,%rax
   140007786:	49 83 c7 19          	add    $0x19,%r15
   14000778a:	48 83 e8 19          	sub    $0x19,%rax
   14000778e:	48 c1 e8 02          	shr    $0x2,%rax
   140007792:	4c 39 fd             	cmp    %r15,%rbp
   140007795:	4c 8d 2c 85 04 00 00 	lea    0x4(,%rax,4),%r13
   14000779c:	00 
   14000779d:	b8 04 00 00 00       	mov    $0x4,%eax
   1400077a2:	4c 0f 42 e8          	cmovb  %rax,%r13
   1400077a6:	eb 11                	jmp    1400077b9 <__mult_D2A+0xd9>
   1400077a8:	0f 1f 84 00 00 00 00 	nopl   0x0(%rax,%rax,1)
   1400077af:	00 
   1400077b0:	49 83 c3 04          	add    $0x4,%r11
   1400077b4:	4d 39 e1             	cmp    %r12,%r9
   1400077b7:	73 4a                	jae    140007803 <__mult_D2A+0x123>
   1400077b9:	45 8b 11             	mov    (%r9),%r10d
   1400077bc:	49 83 c1 04          	add    $0x4,%r9
   1400077c0:	45 85 d2             	test   %r10d,%r10d
   1400077c3:	74 eb                	je     1400077b0 <__mult_D2A+0xd0>
   1400077c5:	4c 89 d9             	mov    %r11,%rcx
   1400077c8:	4c 89 f2             	mov    %r14,%rdx
   1400077cb:	45 31 c0             	xor    %r8d,%r8d
   1400077ce:	66 90                	xchg   %ax,%ax
   1400077d0:	8b 02                	mov    (%rdx),%eax
   1400077d2:	44 8b 39             	mov    (%rcx),%r15d
   1400077d5:	48 83 c2 04          	add    $0x4,%rdx
   1400077d9:	48 83 c1 04          	add    $0x4,%rcx
   1400077dd:	49 0f af c2          	imul   %r10,%rax
   1400077e1:	4c 01 f8             	add    %r15,%rax
   1400077e4:	4c 01 c0             	add    %r8,%rax
   1400077e7:	49 89 c0             	mov    %rax,%r8
   1400077ea:	89 41 fc             	mov    %eax,-0x4(%rcx)
   1400077ed:	49 c1 e8 20          	shr    $0x20,%r8
   1400077f1:	48 39 ea             	cmp    %rbp,%rdx
   1400077f4:	72 da                	jb     1400077d0 <__mult_D2A+0xf0>
   1400077f6:	47 89 04 2b          	mov    %r8d,(%r11,%r13,1)
   1400077fa:	49 83 c3 04          	add    $0x4,%r11
   1400077fe:	4d 39 e1             	cmp    %r12,%r9
   140007801:	72 b6                	jb     1400077b9 <__mult_D2A+0xd9>
   140007803:	85 db                	test   %ebx,%ebx
   140007805:	7f 0e                	jg     140007815 <__mult_D2A+0x135>
   140007807:	eb 17                	jmp    140007820 <__mult_D2A+0x140>
   140007809:	0f 1f 80 00 00 00 00 	nopl   0x0(%rax)
   140007810:	83 eb 01             	sub    $0x1,%ebx
   140007813:	74 0b                	je     140007820 <__mult_D2A+0x140>
   140007815:	8b 46 fc             	mov    -0x4(%rsi),%eax
   140007818:	48 83 ee 04          	sub    $0x4,%rsi
   14000781c:	85 c0                	test   %eax,%eax
   14000781e:	74 f0                	je     140007810 <__mult_D2A+0x130>
   140007820:	89 5f 14             	mov    %ebx,0x14(%rdi)
   140007823:	48 89 f8             	mov    %rdi,%rax
   140007826:	48 83 c4 28          	add    $0x28,%rsp
   14000782a:	5b                   	pop    %rbx
   14000782b:	5e                   	pop    %rsi
   14000782c:	5f                   	pop    %rdi
   14000782d:	5d                   	pop    %rbp
   14000782e:	41 5c                	pop    %r12
   140007830:	41 5d                	pop    %r13
   140007832:	41 5e                	pop    %r14
   140007834:	41 5f                	pop    %r15
   140007836:	c3                   	ret
   140007837:	66 0f 1f 84 00 00 00 	nopw   0x0(%rax,%rax,1)
   14000783e:	00 00 

0000000140007840 <__pow5mult_D2A>:
   140007840:	55                   	push   %rbp
   140007841:	57                   	push   %rdi
   140007842:	56                   	push   %rsi
   140007843:	53                   	push   %rbx
   140007844:	48 83 ec 28          	sub    $0x28,%rsp
   140007848:	89 d0                	mov    %edx,%eax
   14000784a:	48 89 ce             	mov    %rcx,%rsi
   14000784d:	89 d3                	mov    %edx,%ebx
   14000784f:	83 e0 03             	and    $0x3,%eax
   140007852:	0f 85 b8 00 00 00    	jne    140007910 <__pow5mult_D2A+0xd0>
   140007858:	c1 fb 02             	sar    $0x2,%ebx
   14000785b:	48 89 f5             	mov    %rsi,%rbp
   14000785e:	74 52                	je     1400078b2 <__pow5mult_D2A+0x72>
   140007860:	48 8b 3d 39 6d 00 00 	mov    0x6d39(%rip),%rdi        # 14000e5a0 <p5s>
   140007867:	48 85 ff             	test   %rdi,%rdi
   14000786a:	0f 84 d0 00 00 00    	je     140007940 <__pow5mult_D2A+0x100>
   140007870:	48 89 f5             	mov    %rsi,%rbp
   140007873:	eb 12                	jmp    140007887 <__pow5mult_D2A+0x47>
   140007875:	0f 1f 00             	nopl   (%rax)
   140007878:	d1 fb                	sar    %ebx
   14000787a:	74 36                	je     1400078b2 <__pow5mult_D2A+0x72>
   14000787c:	48 8b 37             	mov    (%rdi),%rsi
   14000787f:	48 85 f6             	test   %rsi,%rsi
   140007882:	74 3c                	je     1400078c0 <__pow5mult_D2A+0x80>
   140007884:	48 89 f7             	mov    %rsi,%rdi
   140007887:	f6 c3 01             	test   $0x1,%bl
   14000788a:	74 ec                	je     140007878 <__pow5mult_D2A+0x38>
   14000788c:	48 89 fa             	mov    %rdi,%rdx
   14000788f:	48 89 e9             	mov    %rbp,%rcx
   140007892:	e8 49 fe ff ff       	call   1400076e0 <__mult_D2A>
   140007897:	48 89 c6             	mov    %rax,%rsi
   14000789a:	48 85 c0             	test   %rax,%rax
   14000789d:	0f 84 90 00 00 00    	je     140007933 <__pow5mult_D2A+0xf3>
   1400078a3:	48 89 e9             	mov    %rbp,%rcx
   1400078a6:	48 89 f5             	mov    %rsi,%rbp
   1400078a9:	e8 42 fc ff ff       	call   1400074f0 <__Bfree_D2A>
   1400078ae:	d1 fb                	sar    %ebx
   1400078b0:	75 ca                	jne    14000787c <__pow5mult_D2A+0x3c>
   1400078b2:	48 89 e8             	mov    %rbp,%rax
   1400078b5:	48 83 c4 28          	add    $0x28,%rsp
   1400078b9:	5b                   	pop    %rbx
   1400078ba:	5e                   	pop    %rsi
   1400078bb:	5f                   	pop    %rdi
   1400078bc:	5d                   	pop    %rbp
   1400078bd:	c3                   	ret
   1400078be:	66 90                	xchg   %ax,%ax
   1400078c0:	b9 01 00 00 00       	mov    $0x1,%ecx
   1400078c5:	e8 06 fa ff ff       	call   1400072d0 <dtoa_lock>
   1400078ca:	48 8b 37             	mov    (%rdi),%rsi
   1400078cd:	48 85 f6             	test   %rsi,%rsi
   1400078d0:	74 1e                	je     1400078f0 <__pow5mult_D2A+0xb0>
   1400078d2:	83 3d 37 76 00 00 02 	cmpl   $0x2,0x7637(%rip)        # 14000ef10 <dtoa_CS_init>
   1400078d9:	75 a9                	jne    140007884 <__pow5mult_D2A+0x44>
   1400078db:	48 8d 0d 66 76 00 00 	lea    0x7666(%rip),%rcx        # 14000ef48 <dtoa_CritSec+0x28>
   1400078e2:	ff 15 70 79 00 00    	call   *0x7970(%rip)        # 14000f258 <__imp_LeaveCriticalSection>
   1400078e8:	eb 9a                	jmp    140007884 <__pow5mult_D2A+0x44>
   1400078ea:	66 0f 1f 44 00 00    	nopw   0x0(%rax,%rax,1)
   1400078f0:	48 89 fa             	mov    %rdi,%rdx
   1400078f3:	48 89 f9             	mov    %rdi,%rcx
   1400078f6:	e8 e5 fd ff ff       	call   1400076e0 <__mult_D2A>
   1400078fb:	48 89 07             	mov    %rax,(%rdi)
   1400078fe:	48 89 c6             	mov    %rax,%rsi
   140007901:	48 85 c0             	test   %rax,%rax
   140007904:	74 2d                	je     140007933 <__pow5mult_D2A+0xf3>
   140007906:	48 c7 00 00 00 00 00 	movq   $0x0,(%rax)
   14000790d:	eb c3                	jmp    1400078d2 <__pow5mult_D2A+0x92>
   14000790f:	90                   	nop
   140007910:	83 e8 01             	sub    $0x1,%eax
   140007913:	48 8d 15 a6 2d 00 00 	lea    0x2da6(%rip),%rdx        # 14000a6c0 <p05.0>
   14000791a:	45 31 c0             	xor    %r8d,%r8d
   14000791d:	48 98                	cltq
   14000791f:	8b 14 82             	mov    (%rdx,%rax,4),%edx
   140007922:	e8 39 fc ff ff       	call   140007560 <__multadd_D2A>
   140007927:	48 89 c6             	mov    %rax,%rsi
   14000792a:	48 85 c0             	test   %rax,%rax
   14000792d:	0f 85 25 ff ff ff    	jne    140007858 <__pow5mult_D2A+0x18>
   140007933:	31 ed                	xor    %ebp,%ebp
   140007935:	e9 78 ff ff ff       	jmp    1400078b2 <__pow5mult_D2A+0x72>
   14000793a:	66 0f 1f 44 00 00    	nopw   0x0(%rax,%rax,1)
   140007940:	b9 01 00 00 00       	mov    $0x1,%ecx
   140007945:	e8 86 f9 ff ff       	call   1400072d0 <dtoa_lock>
   14000794a:	48 8b 3d 4f 6c 00 00 	mov    0x6c4f(%rip),%rdi        # 14000e5a0 <p5s>
   140007951:	48 85 ff             	test   %rdi,%rdi
   140007954:	74 1f                	je     140007975 <__pow5mult_D2A+0x135>
   140007956:	83 3d b3 75 00 00 02 	cmpl   $0x2,0x75b3(%rip)        # 14000ef10 <dtoa_CS_init>
   14000795d:	0f 85 0d ff ff ff    	jne    140007870 <__pow5mult_D2A+0x30>
   140007963:	48 8d 0d de 75 00 00 	lea    0x75de(%rip),%rcx        # 14000ef48 <dtoa_CritSec+0x28>
   14000796a:	ff 15 e8 78 00 00    	call   *0x78e8(%rip)        # 14000f258 <__imp_LeaveCriticalSection>
   140007970:	e9 fb fe ff ff       	jmp    140007870 <__pow5mult_D2A+0x30>
   140007975:	b9 01 00 00 00       	mov    $0x1,%ecx
   14000797a:	e8 81 fa ff ff       	call   140007400 <__Balloc_D2A>
   14000797f:	48 89 c7             	mov    %rax,%rdi
   140007982:	48 85 c0             	test   %rax,%rax
   140007985:	74 1e                	je     1400079a5 <__pow5mult_D2A+0x165>
   140007987:	48 b8 01 00 00 00 71 	movabs $0x27100000001,%rax
   14000798e:	02 00 00 
   140007991:	48 89 3d 08 6c 00 00 	mov    %rdi,0x6c08(%rip)        # 14000e5a0 <p5s>
   140007998:	48 89 47 14          	mov    %rax,0x14(%rdi)
   14000799c:	48 c7 07 00 00 00 00 	movq   $0x0,(%rdi)
   1400079a3:	eb b1                	jmp    140007956 <__pow5mult_D2A+0x116>
   1400079a5:	48 c7 05 f0 6b 00 00 	movq   $0x0,0x6bf0(%rip)        # 14000e5a0 <p5s>
   1400079ac:	00 00 00 00 
   1400079b0:	31 ed                	xor    %ebp,%ebp
   1400079b2:	e9 fb fe ff ff       	jmp    1400078b2 <__pow5mult_D2A+0x72>
   1400079b7:	66 0f 1f 84 00 00 00 	nopw   0x0(%rax,%rax,1)
   1400079be:	00 00 

00000001400079c0 <__lshift_D2A>:
   1400079c0:	41 56                	push   %r14
   1400079c2:	41 55                	push   %r13
   1400079c4:	41 54                	push   %r12
   1400079c6:	55                   	push   %rbp
   1400079c7:	57                   	push   %rdi
   1400079c8:	56                   	push   %rsi
   1400079c9:	53                   	push   %rbx
   1400079ca:	48 83 ec 20          	sub    $0x20,%rsp
   1400079ce:	49 89 cc             	mov    %rcx,%r12
   1400079d1:	89 d6                	mov    %edx,%esi
   1400079d3:	8b 49 08             	mov    0x8(%rcx),%ecx
   1400079d6:	89 d5                	mov    %edx,%ebp
   1400079d8:	41 8b 5c 24 14       	mov    0x14(%r12),%ebx
   1400079dd:	c1 fe 05             	sar    $0x5,%esi
   1400079e0:	41 8b 44 24 0c       	mov    0xc(%r12),%eax
   1400079e5:	01 f3                	add    %esi,%ebx
   1400079e7:	44 8d 6b 01          	lea    0x1(%rbx),%r13d
   1400079eb:	41 39 c5             	cmp    %eax,%r13d
   1400079ee:	7e 0a                	jle    1400079fa <__lshift_D2A+0x3a>
   1400079f0:	01 c0                	add    %eax,%eax
   1400079f2:	83 c1 01             	add    $0x1,%ecx
   1400079f5:	41 39 c5             	cmp    %eax,%r13d
   1400079f8:	7f f6                	jg     1400079f0 <__lshift_D2A+0x30>
   1400079fa:	e8 01 fa ff ff       	call   140007400 <__Balloc_D2A>
   1400079ff:	49 89 c6             	mov    %rax,%r14
   140007a02:	48 85 c0             	test   %rax,%rax
   140007a05:	0f 84 a3 00 00 00    	je     140007aae <__lshift_D2A+0xee>
   140007a0b:	48 8d 78 18          	lea    0x18(%rax),%rdi
   140007a0f:	85 f6                	test   %esi,%esi
   140007a11:	7e 14                	jle    140007a27 <__lshift_D2A+0x67>
   140007a13:	48 c1 e6 02          	shl    $0x2,%rsi
   140007a17:	48 89 f9             	mov    %rdi,%rcx
   140007a1a:	31 d2                	xor    %edx,%edx
   140007a1c:	49 89 f0             	mov    %rsi,%r8
   140007a1f:	48 01 f7             	add    %rsi,%rdi
   140007a22:	e8 79 0c 00 00       	call   1400086a0 <memset>
   140007a27:	49 63 44 24 14       	movslq 0x14(%r12),%rax
   140007a2c:	49 8d 74 24 18       	lea    0x18(%r12),%rsi
   140007a31:	4c 8d 0c 86          	lea    (%rsi,%rax,4),%r9
   140007a35:	83 e5 1f             	and    $0x1f,%ebp
   140007a38:	0f 84 82 00 00 00    	je     140007ac0 <__lshift_D2A+0x100>
   140007a3e:	41 ba 20 00 00 00    	mov    $0x20,%r10d
   140007a44:	49 89 f8             	mov    %rdi,%r8
   140007a47:	31 d2                	xor    %edx,%edx
   140007a49:	41 29 ea             	sub    %ebp,%r10d
   140007a4c:	0f 1f 40 00          	nopl   0x0(%rax)
   140007a50:	8b 06                	mov    (%rsi),%eax
   140007a52:	89 e9                	mov    %ebp,%ecx
   140007a54:	49 83 c0 04          	add    $0x4,%r8
   140007a58:	48 83 c6 04          	add    $0x4,%rsi
   140007a5c:	d3 e0                	shl    %cl,%eax
   140007a5e:	44 89 d1             	mov    %r10d,%ecx
   140007a61:	09 d0                	or     %edx,%eax
   140007a63:	41 89 40 fc          	mov    %eax,-0x4(%r8)
   140007a67:	8b 56 fc             	mov    -0x4(%rsi),%edx
   140007a6a:	d3 ea                	shr    %cl,%edx
   140007a6c:	4c 39 ce             	cmp    %r9,%rsi
   140007a6f:	72 df                	jb     140007a50 <__lshift_D2A+0x90>
   140007a71:	4c 89 c8             	mov    %r9,%rax
   140007a74:	49 8d 4c 24 19       	lea    0x19(%r12),%rcx
   140007a79:	4c 29 e0             	sub    %r12,%rax
   140007a7c:	48 83 e8 19          	sub    $0x19,%rax
   140007a80:	48 c1 e8 02          	shr    $0x2,%rax
   140007a84:	49 39 c9             	cmp    %rcx,%r9
   140007a87:	b9 04 00 00 00       	mov    $0x4,%ecx
   140007a8c:	48 8d 04 85 04 00 00 	lea    0x4(,%rax,4),%rax
   140007a93:	00 
   140007a94:	48 0f 42 c1          	cmovb  %rcx,%rax
   140007a98:	89 14 07             	mov    %edx,(%rdi,%rax,1)
   140007a9b:	85 d2                	test   %edx,%edx
   140007a9d:	75 03                	jne    140007aa2 <__lshift_D2A+0xe2>
   140007a9f:	41 89 dd             	mov    %ebx,%r13d
   140007aa2:	45 89 6e 14          	mov    %r13d,0x14(%r14)
   140007aa6:	4c 89 e1             	mov    %r12,%rcx
   140007aa9:	e8 42 fa ff ff       	call   1400074f0 <__Bfree_D2A>
   140007aae:	4c 89 f0             	mov    %r14,%rax
   140007ab1:	48 83 c4 20          	add    $0x20,%rsp
   140007ab5:	5b                   	pop    %rbx
   140007ab6:	5e                   	pop    %rsi
   140007ab7:	5f                   	pop    %rdi
   140007ab8:	5d                   	pop    %rbp
   140007ab9:	41 5c                	pop    %r12
   140007abb:	41 5d                	pop    %r13
   140007abd:	41 5e                	pop    %r14
   140007abf:	c3                   	ret
   140007ac0:	a5                   	movsl  %ds:(%rsi),%es:(%rdi)
   140007ac1:	4c 39 ce             	cmp    %r9,%rsi
   140007ac4:	73 d9                	jae    140007a9f <__lshift_D2A+0xdf>
   140007ac6:	a5                   	movsl  %ds:(%rsi),%es:(%rdi)
   140007ac7:	4c 39 ce             	cmp    %r9,%rsi
   140007aca:	72 f4                	jb     140007ac0 <__lshift_D2A+0x100>
   140007acc:	eb d1                	jmp    140007a9f <__lshift_D2A+0xdf>
   140007ace:	66 90                	xchg   %ax,%ax

0000000140007ad0 <__cmp_D2A>:
   140007ad0:	48 63 42 14          	movslq 0x14(%rdx),%rax
   140007ad4:	44 8b 49 14          	mov    0x14(%rcx),%r9d
   140007ad8:	41 29 c1             	sub    %eax,%r9d
   140007adb:	75 37                	jne    140007b14 <__cmp_D2A+0x44>
   140007add:	4c 8d 04 85 00 00 00 	lea    0x0(,%rax,4),%r8
   140007ae4:	00 
   140007ae5:	48 83 c1 18          	add    $0x18,%rcx
   140007ae9:	4a 8d 04 01          	lea    (%rcx,%r8,1),%rax
   140007aed:	4a 8d 54 02 18       	lea    0x18(%rdx,%r8,1),%rdx
   140007af2:	eb 09                	jmp    140007afd <__cmp_D2A+0x2d>
   140007af4:	0f 1f 40 00          	nopl   0x0(%rax)
   140007af8:	48 39 c1             	cmp    %rax,%rcx
   140007afb:	73 17                	jae    140007b14 <__cmp_D2A+0x44>
   140007afd:	48 83 e8 04          	sub    $0x4,%rax
   140007b01:	48 83 ea 04          	sub    $0x4,%rdx
   140007b05:	44 8b 12             	mov    (%rdx),%r10d
   140007b08:	44 39 10             	cmp    %r10d,(%rax)
   140007b0b:	74 eb                	je     140007af8 <__cmp_D2A+0x28>
   140007b0d:	45 19 c9             	sbb    %r9d,%r9d
   140007b10:	41 83 c9 01          	or     $0x1,%r9d
   140007b14:	44 89 c8             	mov    %r9d,%eax
   140007b17:	c3                   	ret
   140007b18:	0f 1f 84 00 00 00 00 	nopl   0x0(%rax,%rax,1)
   140007b1f:	00 

0000000140007b20 <__diff_D2A>:
   140007b20:	41 56                	push   %r14
   140007b22:	41 55                	push   %r13
   140007b24:	41 54                	push   %r12
   140007b26:	55                   	push   %rbp
   140007b27:	57                   	push   %rdi
   140007b28:	56                   	push   %rsi
   140007b29:	53                   	push   %rbx
   140007b2a:	48 83 ec 20          	sub    $0x20,%rsp
   140007b2e:	48 63 42 14          	movslq 0x14(%rdx),%rax
   140007b32:	8b 79 14             	mov    0x14(%rcx),%edi
   140007b35:	48 89 ce             	mov    %rcx,%rsi
   140007b38:	48 89 d3             	mov    %rdx,%rbx
   140007b3b:	29 c7                	sub    %eax,%edi
   140007b3d:	0f 85 55 01 00 00    	jne    140007c98 <__diff_D2A+0x178>
   140007b43:	48 8d 14 85 00 00 00 	lea    0x0(,%rax,4),%rdx
   140007b4a:	00 
   140007b4b:	48 8d 49 18          	lea    0x18(%rcx),%rcx
   140007b4f:	48 8d 04 11          	lea    (%rcx,%rdx,1),%rax
   140007b53:	48 8d 54 13 18       	lea    0x18(%rbx,%rdx,1),%rdx
   140007b58:	eb 0f                	jmp    140007b69 <__diff_D2A+0x49>
   140007b5a:	66 0f 1f 44 00 00    	nopw   0x0(%rax,%rax,1)
   140007b60:	48 39 c1             	cmp    %rax,%rcx
   140007b63:	0f 83 57 01 00 00    	jae    140007cc0 <__diff_D2A+0x1a0>
   140007b69:	48 83 e8 04          	sub    $0x4,%rax
   140007b6d:	48 83 ea 04          	sub    $0x4,%rdx
   140007b71:	44 8b 32             	mov    (%rdx),%r14d
   140007b74:	44 39 30             	cmp    %r14d,(%rax)
   140007b77:	74 e7                	je     140007b60 <__diff_D2A+0x40>
   140007b79:	0f 82 24 01 00 00    	jb     140007ca3 <__diff_D2A+0x183>
   140007b7f:	90                   	nop
   140007b80:	8b 4e 08             	mov    0x8(%rsi),%ecx
   140007b83:	e8 78 f8 ff ff       	call   140007400 <__Balloc_D2A>
   140007b88:	49 89 c1             	mov    %rax,%r9
   140007b8b:	48 85 c0             	test   %rax,%rax
   140007b8e:	0f 84 ef 00 00 00    	je     140007c83 <__diff_D2A+0x163>
   140007b94:	89 78 10             	mov    %edi,0x10(%rax)
   140007b97:	48 63 46 14          	movslq 0x14(%rsi),%rax
   140007b9b:	4c 8d 6e 18          	lea    0x18(%rsi),%r13
   140007b9f:	4d 8d 61 18          	lea    0x18(%r9),%r12
   140007ba3:	b9 18 00 00 00       	mov    $0x18,%ecx
   140007ba8:	31 d2                	xor    %edx,%edx
   140007baa:	49 89 c2             	mov    %rax,%r10
   140007bad:	49 8d 7c 85 00       	lea    0x0(%r13,%rax,4),%rdi
   140007bb2:	48 63 43 14          	movslq 0x14(%rbx),%rax
   140007bb6:	48 8d 6c 83 18       	lea    0x18(%rbx,%rax,4),%rbp
   140007bbb:	0f 1f 44 00 00       	nopl   0x0(%rax,%rax,1)
   140007bc0:	8b 04 0e             	mov    (%rsi,%rcx,1),%eax
   140007bc3:	44 8b 04 0b          	mov    (%rbx,%rcx,1),%r8d
   140007bc7:	4c 29 c0             	sub    %r8,%rax
   140007bca:	48 29 d0             	sub    %rdx,%rax
   140007bcd:	41 89 04 09          	mov    %eax,(%r9,%rcx,1)
   140007bd1:	48 89 c2             	mov    %rax,%rdx
   140007bd4:	48 83 c1 04          	add    $0x4,%rcx
   140007bd8:	41 89 c3             	mov    %eax,%r11d
   140007bdb:	48 c1 ea 20          	shr    $0x20,%rdx
   140007bdf:	48 8d 04 19          	lea    (%rcx,%rbx,1),%rax
   140007be3:	83 e2 01             	and    $0x1,%edx
   140007be6:	48 39 e8             	cmp    %rbp,%rax
   140007be9:	72 d5                	jb     140007bc0 <__diff_D2A+0xa0>
   140007beb:	48 89 e8             	mov    %rbp,%rax
   140007bee:	48 8d 73 19          	lea    0x19(%rbx),%rsi
   140007bf2:	b9 04 00 00 00       	mov    $0x4,%ecx
   140007bf7:	48 29 d8             	sub    %rbx,%rax
   140007bfa:	4c 8d 70 e7          	lea    -0x19(%rax),%r14
   140007bfe:	49 c1 ee 02          	shr    $0x2,%r14
   140007c02:	48 39 f5             	cmp    %rsi,%rbp
   140007c05:	4a 8d 04 b5 04 00 00 	lea    0x4(,%r14,4),%rax
   140007c0c:	00 
   140007c0d:	48 0f 42 c1          	cmovb  %rcx,%rax
   140007c11:	49 01 c5             	add    %rax,%r13
   140007c14:	4d 8d 04 04          	lea    (%r12,%rax,1),%r8
   140007c18:	4c 89 c3             	mov    %r8,%rbx
   140007c1b:	4c 89 e9             	mov    %r13,%rcx
   140007c1e:	49 39 fd             	cmp    %rdi,%r13
   140007c21:	0f 83 b9 00 00 00    	jae    140007ce0 <__diff_D2A+0x1c0>
   140007c27:	66 0f 1f 84 00 00 00 	nopw   0x0(%rax,%rax,1)
   140007c2e:	00 00 
   140007c30:	8b 01                	mov    (%rcx),%eax
   140007c32:	48 83 c1 04          	add    $0x4,%rcx
   140007c36:	48 83 c3 04          	add    $0x4,%rbx
   140007c3a:	48 29 d0             	sub    %rdx,%rax
   140007c3d:	48 89 c2             	mov    %rax,%rdx
   140007c40:	89 43 fc             	mov    %eax,-0x4(%rbx)
   140007c43:	41 89 c3             	mov    %eax,%r11d
   140007c46:	48 c1 ea 20          	shr    $0x20,%rdx
   140007c4a:	83 e2 01             	and    $0x1,%edx
   140007c4d:	48 39 f9             	cmp    %rdi,%rcx
   140007c50:	72 de                	jb     140007c30 <__diff_D2A+0x110>
   140007c52:	48 83 ef 01          	sub    $0x1,%rdi
   140007c56:	4c 29 ef             	sub    %r13,%rdi
   140007c59:	48 83 e7 fc          	and    $0xfffffffffffffffc,%rdi
   140007c5d:	49 8d 04 38          	lea    (%r8,%rdi,1),%rax
   140007c61:	45 85 db             	test   %r11d,%r11d
   140007c64:	75 19                	jne    140007c7f <__diff_D2A+0x15f>
   140007c66:	66 2e 0f 1f 84 00 00 	cs nopw 0x0(%rax,%rax,1)
   140007c6d:	00 00 00 
   140007c70:	8b 50 fc             	mov    -0x4(%rax),%edx
   140007c73:	48 83 e8 04          	sub    $0x4,%rax
   140007c77:	41 83 ea 01          	sub    $0x1,%r10d
   140007c7b:	85 d2                	test   %edx,%edx
   140007c7d:	74 f1                	je     140007c70 <__diff_D2A+0x150>
   140007c7f:	45 89 51 14          	mov    %r10d,0x14(%r9)
   140007c83:	4c 89 c8             	mov    %r9,%rax
   140007c86:	48 83 c4 20          	add    $0x20,%rsp
   140007c8a:	5b                   	pop    %rbx
   140007c8b:	5e                   	pop    %rsi
   140007c8c:	5f                   	pop    %rdi
   140007c8d:	5d                   	pop    %rbp
   140007c8e:	41 5c                	pop    %r12
   140007c90:	41 5d                	pop    %r13
   140007c92:	41 5e                	pop    %r14
   140007c94:	c3                   	ret
   140007c95:	0f 1f 00             	nopl   (%rax)
   140007c98:	bf 00 00 00 00       	mov    $0x0,%edi
   140007c9d:	0f 89 dd fe ff ff    	jns    140007b80 <__diff_D2A+0x60>
   140007ca3:	48 89 f0             	mov    %rsi,%rax
   140007ca6:	bf 01 00 00 00       	mov    $0x1,%edi
   140007cab:	48 89 de             	mov    %rbx,%rsi
   140007cae:	48 89 c3             	mov    %rax,%rbx
   140007cb1:	e9 ca fe ff ff       	jmp    140007b80 <__diff_D2A+0x60>
   140007cb6:	66 2e 0f 1f 84 00 00 	cs nopw 0x0(%rax,%rax,1)
   140007cbd:	00 00 00 
   140007cc0:	31 c9                	xor    %ecx,%ecx
   140007cc2:	e8 39 f7 ff ff       	call   140007400 <__Balloc_D2A>
   140007cc7:	49 89 c1             	mov    %rax,%r9
   140007cca:	48 85 c0             	test   %rax,%rax
   140007ccd:	74 b4                	je     140007c83 <__diff_D2A+0x163>
   140007ccf:	48 c7 40 14 01 00 00 	movq   $0x1,0x14(%rax)
   140007cd6:	00 
   140007cd7:	eb aa                	jmp    140007c83 <__diff_D2A+0x163>
   140007cd9:	0f 1f 80 00 00 00 00 	nopl   0x0(%rax)
   140007ce0:	31 c0                	xor    %eax,%eax
   140007ce2:	49 c1 e6 02          	shl    $0x2,%r14
   140007ce6:	48 39 f5             	cmp    %rsi,%rbp
   140007ce9:	4c 0f 42 f0          	cmovb  %rax,%r14
   140007ced:	4b 8d 04 34          	lea    (%r12,%r14,1),%rax
   140007cf1:	e9 6b ff ff ff       	jmp    140007c61 <__diff_D2A+0x141>
   140007cf6:	66 2e 0f 1f 84 00 00 	cs nopw 0x0(%rax,%rax,1)
   140007cfd:	00 00 00 

0000000140007d00 <__b2d_D2A>:
   140007d00:	57                   	push   %rdi
   140007d01:	56                   	push   %rsi
   140007d02:	53                   	push   %rbx
   140007d03:	48 63 41 14          	movslq 0x14(%rcx),%rax
   140007d07:	4c 8d 51 18          	lea    0x18(%rcx),%r10
   140007d0b:	49 8d 1c 82          	lea    (%r10,%rax,4),%rbx
   140007d0f:	44 8b 5b fc          	mov    -0x4(%rbx),%r11d
   140007d13:	48 8d 73 fc          	lea    -0x4(%rbx),%rsi
   140007d17:	41 0f bd cb          	bsr    %r11d,%ecx
   140007d1b:	89 cf                	mov    %ecx,%edi
   140007d1d:	b9 20 00 00 00       	mov    $0x20,%ecx
   140007d22:	83 f7 1f             	xor    $0x1f,%edi
   140007d25:	41 89 c8             	mov    %ecx,%r8d
   140007d28:	41 29 f8             	sub    %edi,%r8d
   140007d2b:	44 89 02             	mov    %r8d,(%rdx)
   140007d2e:	83 ff 0a             	cmp    $0xa,%edi
   140007d31:	7e 7d                	jle    140007db0 <__b2d_D2A+0xb0>
   140007d33:	44 8d 4f f5          	lea    -0xb(%rdi),%r9d
   140007d37:	49 39 f2             	cmp    %rsi,%r10
   140007d3a:	73 54                	jae    140007d90 <__b2d_D2A+0x90>
   140007d3c:	8b 53 f8             	mov    -0x8(%rbx),%edx
   140007d3f:	45 85 c9             	test   %r9d,%r9d
   140007d42:	74 53                	je     140007d97 <__b2d_D2A+0x97>
   140007d44:	44 29 c9             	sub    %r9d,%ecx
   140007d47:	44 89 d8             	mov    %r11d,%eax
   140007d4a:	89 d6                	mov    %edx,%esi
   140007d4c:	41 89 c8             	mov    %ecx,%r8d
   140007d4f:	44 89 c9             	mov    %r9d,%ecx
   140007d52:	d3 e0                	shl    %cl,%eax
   140007d54:	44 89 c1             	mov    %r8d,%ecx
   140007d57:	d3 ee                	shr    %cl,%esi
   140007d59:	44 89 c9             	mov    %r9d,%ecx
   140007d5c:	09 f0                	or     %esi,%eax
   140007d5e:	d3 e2                	shl    %cl,%edx
   140007d60:	48 8d 4b f8          	lea    -0x8(%rbx),%rcx
   140007d64:	0d 00 00 f0 3f       	or     $0x3ff00000,%eax
   140007d69:	48 c1 e0 20          	shl    $0x20,%rax
   140007d6d:	49 39 ca             	cmp    %rcx,%r10
   140007d70:	73 31                	jae    140007da3 <__b2d_D2A+0xa3>
   140007d72:	44 8b 4b f4          	mov    -0xc(%rbx),%r9d
   140007d76:	44 89 c1             	mov    %r8d,%ecx
   140007d79:	41 d3 e9             	shr    %cl,%r9d
   140007d7c:	44 09 ca             	or     %r9d,%edx
   140007d7f:	48 09 d0             	or     %rdx,%rax
   140007d82:	66 48 0f 6e c0       	movq   %rax,%xmm0
   140007d87:	5b                   	pop    %rbx
   140007d88:	5e                   	pop    %rsi
   140007d89:	5f                   	pop    %rdi
   140007d8a:	c3                   	ret
   140007d8b:	0f 1f 44 00 00       	nopl   0x0(%rax,%rax,1)
   140007d90:	31 d2                	xor    %edx,%edx
   140007d92:	83 ff 0b             	cmp    $0xb,%edi
   140007d95:	75 59                	jne    140007df0 <__b2d_D2A+0xf0>
   140007d97:	44 89 d8             	mov    %r11d,%eax
   140007d9a:	0d 00 00 f0 3f       	or     $0x3ff00000,%eax
   140007d9f:	48 c1 e0 20          	shl    $0x20,%rax
   140007da3:	48 09 d0             	or     %rdx,%rax
   140007da6:	66 48 0f 6e c0       	movq   %rax,%xmm0
   140007dab:	5b                   	pop    %rbx
   140007dac:	5e                   	pop    %rsi
   140007dad:	5f                   	pop    %rdi
   140007dae:	c3                   	ret
   140007daf:	90                   	nop
   140007db0:	b9 0b 00 00 00       	mov    $0xb,%ecx
   140007db5:	44 89 d8             	mov    %r11d,%eax
   140007db8:	45 31 c0             	xor    %r8d,%r8d
   140007dbb:	29 f9                	sub    %edi,%ecx
   140007dbd:	d3 e8                	shr    %cl,%eax
   140007dbf:	0d 00 00 f0 3f       	or     $0x3ff00000,%eax
   140007dc4:	48 c1 e0 20          	shl    $0x20,%rax
   140007dc8:	49 39 f2             	cmp    %rsi,%r10
   140007dcb:	73 07                	jae    140007dd4 <__b2d_D2A+0xd4>
   140007dcd:	44 8b 43 f8          	mov    -0x8(%rbx),%r8d
   140007dd1:	41 d3 e8             	shr    %cl,%r8d
   140007dd4:	8d 4f 15             	lea    0x15(%rdi),%ecx
   140007dd7:	44 89 da             	mov    %r11d,%edx
   140007dda:	d3 e2                	shl    %cl,%edx
   140007ddc:	44 09 c2             	or     %r8d,%edx
   140007ddf:	48 09 d0             	or     %rdx,%rax
   140007de2:	66 48 0f 6e c0       	movq   %rax,%xmm0
   140007de7:	5b                   	pop    %rbx
   140007de8:	5e                   	pop    %rsi
   140007de9:	5f                   	pop    %rdi
   140007dea:	c3                   	ret
   140007deb:	0f 1f 44 00 00       	nopl   0x0(%rax,%rax,1)
   140007df0:	44 89 d8             	mov    %r11d,%eax
   140007df3:	44 89 c9             	mov    %r9d,%ecx
   140007df6:	31 d2                	xor    %edx,%edx
   140007df8:	d3 e0                	shl    %cl,%eax
   140007dfa:	0d 00 00 f0 3f       	or     $0x3ff00000,%eax
   140007dff:	48 c1 e0 20          	shl    $0x20,%rax
   140007e03:	48 09 d0             	or     %rdx,%rax
   140007e06:	66 48 0f 6e c0       	movq   %rax,%xmm0
   140007e0b:	5b                   	pop    %rbx
   140007e0c:	5e                   	pop    %rsi
   140007e0d:	5f                   	pop    %rdi
   140007e0e:	c3                   	ret
   140007e0f:	90                   	nop

0000000140007e10 <__d2b_D2A>:
   140007e10:	57                   	push   %rdi
   140007e11:	56                   	push   %rsi
   140007e12:	53                   	push   %rbx
   140007e13:	48 83 ec 20          	sub    $0x20,%rsp
   140007e17:	b9 01 00 00 00       	mov    $0x1,%ecx
   140007e1c:	48 89 d6             	mov    %rdx,%rsi
   140007e1f:	66 48 0f 7e c3       	movq   %xmm0,%rbx
   140007e24:	4c 89 c7             	mov    %r8,%rdi
   140007e27:	e8 d4 f5 ff ff       	call   140007400 <__Balloc_D2A>
   140007e2c:	48 89 c2             	mov    %rax,%rdx
   140007e2f:	48 85 c0             	test   %rax,%rax
   140007e32:	0f 84 90 00 00 00    	je     140007ec8 <__d2b_D2A+0xb8>
   140007e38:	48 89 d9             	mov    %rbx,%rcx
   140007e3b:	48 89 d8             	mov    %rbx,%rax
   140007e3e:	48 c1 e9 20          	shr    $0x20,%rcx
   140007e42:	41 89 c9             	mov    %ecx,%r9d
   140007e45:	c1 e9 14             	shr    $0x14,%ecx
   140007e48:	41 81 e1 ff ff 0f 00 	and    $0xfffff,%r9d
   140007e4f:	45 89 c8             	mov    %r9d,%r8d
   140007e52:	41 81 c8 00 00 10 00 	or     $0x100000,%r8d
   140007e59:	81 e1 ff 07 00 00    	and    $0x7ff,%ecx
   140007e5f:	45 0f 45 c8          	cmovne %r8d,%r9d
   140007e63:	41 89 ca             	mov    %ecx,%r10d
   140007e66:	85 db                	test   %ebx,%ebx
   140007e68:	74 6e                	je     140007ed8 <__d2b_D2A+0xc8>
   140007e6a:	45 31 c0             	xor    %r8d,%r8d
   140007e6d:	f3 44 0f bc c3       	tzcnt  %ebx,%r8d
   140007e72:	44 89 c1             	mov    %r8d,%ecx
   140007e75:	d3 e8                	shr    %cl,%eax
   140007e77:	45 85 c0             	test   %r8d,%r8d
   140007e7a:	74 15                	je     140007e91 <__d2b_D2A+0x81>
   140007e7c:	b9 20 00 00 00       	mov    $0x20,%ecx
   140007e81:	44 89 cb             	mov    %r9d,%ebx
   140007e84:	44 29 c1             	sub    %r8d,%ecx
   140007e87:	d3 e3                	shl    %cl,%ebx
   140007e89:	44 89 c1             	mov    %r8d,%ecx
   140007e8c:	09 d8                	or     %ebx,%eax
   140007e8e:	41 d3 e9             	shr    %cl,%r9d
   140007e91:	89 42 18             	mov    %eax,0x18(%rdx)
   140007e94:	41 83 f9 01          	cmp    $0x1,%r9d
   140007e98:	b8 01 00 00 00       	mov    $0x1,%eax
   140007e9d:	83 d8 ff             	sbb    $0xffffffff,%eax
   140007ea0:	44 89 4a 1c          	mov    %r9d,0x1c(%rdx)
   140007ea4:	89 42 14             	mov    %eax,0x14(%rdx)
   140007ea7:	45 85 d2             	test   %r10d,%r10d
   140007eaa:	75 4b                	jne    140007ef7 <__d2b_D2A+0xe7>
   140007eac:	48 63 c8             	movslq %eax,%rcx
   140007eaf:	41 81 e8 32 04 00 00 	sub    $0x432,%r8d
   140007eb6:	0f bd 4c 8a 14       	bsr    0x14(%rdx,%rcx,4),%ecx
   140007ebb:	c1 e0 05             	shl    $0x5,%eax
   140007ebe:	44 89 06             	mov    %r8d,(%rsi)
   140007ec1:	83 f1 1f             	xor    $0x1f,%ecx
   140007ec4:	29 c8                	sub    %ecx,%eax
   140007ec6:	89 07                	mov    %eax,(%rdi)
   140007ec8:	48 89 d0             	mov    %rdx,%rax
   140007ecb:	48 83 c4 20          	add    $0x20,%rsp
   140007ecf:	5b                   	pop    %rbx
   140007ed0:	5e                   	pop    %rsi
   140007ed1:	5f                   	pop    %rdi
   140007ed2:	c3                   	ret
   140007ed3:	0f 1f 44 00 00       	nopl   0x0(%rax,%rax,1)
   140007ed8:	31 c9                	xor    %ecx,%ecx
   140007eda:	b8 01 00 00 00       	mov    $0x1,%eax
   140007edf:	f3 41 0f bc c9       	tzcnt  %r9d,%ecx
   140007ee4:	89 42 14             	mov    %eax,0x14(%rdx)
   140007ee7:	41 d3 e9             	shr    %cl,%r9d
   140007eea:	44 8d 41 20          	lea    0x20(%rcx),%r8d
   140007eee:	44 89 4a 18          	mov    %r9d,0x18(%rdx)
   140007ef2:	45 85 d2             	test   %r10d,%r10d
   140007ef5:	74 b5                	je     140007eac <__d2b_D2A+0x9c>
   140007ef7:	43 8d 84 02 cd fb ff 	lea    -0x433(%r10,%r8,1),%eax
   140007efe:	ff 
   140007eff:	89 06                	mov    %eax,(%rsi)
   140007f01:	b8 35 00 00 00       	mov    $0x35,%eax
   140007f06:	44 29 c0             	sub    %r8d,%eax
   140007f09:	89 07                	mov    %eax,(%rdi)
   140007f0b:	eb bb                	jmp    140007ec8 <__d2b_D2A+0xb8>
   140007f0d:	0f 1f 00             	nopl   (%rax)

0000000140007f10 <__strcp_D2A>:
   140007f10:	48 89 c8             	mov    %rcx,%rax
   140007f13:	48 8d 4a 01          	lea    0x1(%rdx),%rcx
   140007f17:	0f b6 12             	movzbl (%rdx),%edx
   140007f1a:	88 10                	mov    %dl,(%rax)
   140007f1c:	84 d2                	test   %dl,%dl
   140007f1e:	74 11                	je     140007f31 <__strcp_D2A+0x21>
   140007f20:	0f b6 11             	movzbl (%rcx),%edx
   140007f23:	48 83 c0 01          	add    $0x1,%rax
   140007f27:	48 83 c1 01          	add    $0x1,%rcx
   140007f2b:	88 10                	mov    %dl,(%rax)
   140007f2d:	84 d2                	test   %dl,%dl
   140007f2f:	75 ef                	jne    140007f20 <__strcp_D2A+0x10>
   140007f31:	c3                   	ret
   140007f32:	90                   	nop
   140007f33:	90                   	nop
   140007f34:	90                   	nop
   140007f35:	90                   	nop
   140007f36:	90                   	nop
   140007f37:	90                   	nop
   140007f38:	90                   	nop
   140007f39:	90                   	nop
   140007f3a:	90                   	nop
   140007f3b:	90                   	nop
   140007f3c:	90                   	nop
   140007f3d:	90                   	nop
   140007f3e:	90                   	nop
   140007f3f:	90                   	nop

0000000140007f40 <strnlen>:
   140007f40:	45 31 c0             	xor    %r8d,%r8d
   140007f43:	48 89 c8             	mov    %rcx,%rax
   140007f46:	48 85 d2             	test   %rdx,%rdx
   140007f49:	75 14                	jne    140007f5f <strnlen+0x1f>
   140007f4b:	eb 17                	jmp    140007f64 <strnlen+0x24>
   140007f4d:	0f 1f 00             	nopl   (%rax)
   140007f50:	48 83 c0 01          	add    $0x1,%rax
   140007f54:	49 89 c0             	mov    %rax,%r8
   140007f57:	49 29 c8             	sub    %rcx,%r8
   140007f5a:	49 39 d0             	cmp    %rdx,%r8
   140007f5d:	73 05                	jae    140007f64 <strnlen+0x24>
   140007f5f:	80 38 00             	cmpb   $0x0,(%rax)
   140007f62:	75 ec                	jne    140007f50 <strnlen+0x10>
   140007f64:	4c 89 c0             	mov    %r8,%rax
   140007f67:	c3                   	ret
   140007f68:	90                   	nop
   140007f69:	90                   	nop
   140007f6a:	90                   	nop
   140007f6b:	90                   	nop
   140007f6c:	90                   	nop
   140007f6d:	90                   	nop
   140007f6e:	90                   	nop
   140007f6f:	90                   	nop

0000000140007f70 <wcsnlen>:
   140007f70:	45 31 c0             	xor    %r8d,%r8d
   140007f73:	48 89 d0             	mov    %rdx,%rax
   140007f76:	48 85 d2             	test   %rdx,%rdx
   140007f79:	75 0e                	jne    140007f89 <wcsnlen+0x19>
   140007f7b:	eb 17                	jmp    140007f94 <wcsnlen+0x24>
   140007f7d:	0f 1f 00             	nopl   (%rax)
   140007f80:	49 83 c0 01          	add    $0x1,%r8
   140007f84:	4c 39 c0             	cmp    %r8,%rax
   140007f87:	74 0b                	je     140007f94 <wcsnlen+0x24>
   140007f89:	66 42 83 3c 41 00    	cmpw   $0x0,(%rcx,%r8,2)
   140007f8f:	75 ef                	jne    140007f80 <wcsnlen+0x10>
   140007f91:	4c 89 c0             	mov    %r8,%rax
   140007f94:	c3                   	ret
   140007f95:	90                   	nop
   140007f96:	90                   	nop
   140007f97:	90                   	nop
   140007f98:	90                   	nop
   140007f99:	90                   	nop
   140007f9a:	90                   	nop
   140007f9b:	90                   	nop
   140007f9c:	90                   	nop
   140007f9d:	90                   	nop
   140007f9e:	90                   	nop
   140007f9f:	90                   	nop

0000000140007fa0 <__p__fmode>:
   140007fa0:	48 8b 05 09 29 00 00 	mov    0x2909(%rip),%rax        # 14000a8b0 <.refptr.__imp__fmode>
   140007fa7:	48 8b 00             	mov    (%rax),%rax
   140007faa:	c3                   	ret
   140007fab:	90                   	nop
   140007fac:	90                   	nop
   140007fad:	90                   	nop
   140007fae:	90                   	nop
   140007faf:	90                   	nop

0000000140007fb0 <__p__commode>:
   140007fb0:	48 8b 05 e9 28 00 00 	mov    0x28e9(%rip),%rax        # 14000a8a0 <.refptr.__imp__commode>
   140007fb7:	48 8b 00             	mov    (%rax),%rax
   140007fba:	c3                   	ret
   140007fbb:	90                   	nop
   140007fbc:	90                   	nop
   140007fbd:	90                   	nop
   140007fbe:	90                   	nop
   140007fbf:	90                   	nop

0000000140007fc0 <_lock_file>:
   140007fc0:	53                   	push   %rbx
   140007fc1:	48 83 ec 20          	sub    $0x20,%rsp
   140007fc5:	48 89 cb             	mov    %rcx,%rbx
   140007fc8:	31 c9                	xor    %ecx,%ecx
   140007fca:	e8 e1 00 00 00       	call   1400080b0 <__acrt_iob_func>
   140007fcf:	48 39 c3             	cmp    %rax,%rbx
   140007fd2:	72 0f                	jb     140007fe3 <_lock_file+0x23>
   140007fd4:	b9 13 00 00 00       	mov    $0x13,%ecx
   140007fd9:	e8 d2 00 00 00       	call   1400080b0 <__acrt_iob_func>
   140007fde:	48 39 c3             	cmp    %rax,%rbx
   140007fe1:	76 15                	jbe    140007ff8 <_lock_file+0x38>
   140007fe3:	48 8d 4b 30          	lea    0x30(%rbx),%rcx
   140007fe7:	48 83 c4 20          	add    $0x20,%rsp
   140007feb:	5b                   	pop    %rbx
   140007fec:	48 ff 25 3d 72 00 00 	rex.W jmp *0x723d(%rip)        # 14000f230 <__imp_EnterCriticalSection>
   140007ff3:	0f 1f 44 00 00       	nopl   0x0(%rax,%rax,1)
   140007ff8:	31 c9                	xor    %ecx,%ecx
   140007ffa:	e8 b1 00 00 00       	call   1400080b0 <__acrt_iob_func>
   140007fff:	48 89 c2             	mov    %rax,%rdx
   140008002:	48 89 d8             	mov    %rbx,%rax
   140008005:	48 29 d0             	sub    %rdx,%rax
   140008008:	48 c1 f8 04          	sar    $0x4,%rax
   14000800c:	69 c0 ab aa aa aa    	imul   $0xaaaaaaab,%eax,%eax
   140008012:	8d 48 10             	lea    0x10(%rax),%ecx
   140008015:	e8 1e 06 00 00       	call   140008638 <_lock>
   14000801a:	81 4b 18 00 80 00 00 	orl    $0x8000,0x18(%rbx)
   140008021:	48 83 c4 20          	add    $0x20,%rsp
   140008025:	5b                   	pop    %rbx
   140008026:	c3                   	ret
   140008027:	66 0f 1f 84 00 00 00 	nopw   0x0(%rax,%rax,1)
   14000802e:	00 00 

0000000140008030 <_unlock_file>:
   140008030:	53                   	push   %rbx
   140008031:	48 83 ec 20          	sub    $0x20,%rsp
   140008035:	48 89 cb             	mov    %rcx,%rbx
   140008038:	31 c9                	xor    %ecx,%ecx
   14000803a:	e8 71 00 00 00       	call   1400080b0 <__acrt_iob_func>
   14000803f:	48 39 c3             	cmp    %rax,%rbx
   140008042:	72 0f                	jb     140008053 <_unlock_file+0x23>
   140008044:	b9 13 00 00 00       	mov    $0x13,%ecx
   140008049:	e8 62 00 00 00       	call   1400080b0 <__acrt_iob_func>
   14000804e:	48 39 c3             	cmp    %rax,%rbx
   140008051:	76 15                	jbe    140008068 <_unlock_file+0x38>
   140008053:	48 8d 4b 30          	lea    0x30(%rbx),%rcx
   140008057:	48 83 c4 20          	add    $0x20,%rsp
   14000805b:	5b                   	pop    %rbx
   14000805c:	48 ff 25 f5 71 00 00 	rex.W jmp *0x71f5(%rip)        # 14000f258 <__imp_LeaveCriticalSection>
   140008063:	0f 1f 44 00 00       	nopl   0x0(%rax,%rax,1)
   140008068:	81 63 18 ff 7f ff ff 	andl   $0xffff7fff,0x18(%rbx)
   14000806f:	31 c9                	xor    %ecx,%ecx
   140008071:	e8 3a 00 00 00       	call   1400080b0 <__acrt_iob_func>
   140008076:	48 29 c3             	sub    %rax,%rbx
   140008079:	48 c1 fb 04          	sar    $0x4,%rbx
   14000807d:	69 db ab aa aa aa    	imul   $0xaaaaaaab,%ebx,%ebx
   140008083:	8d 4b 10             	lea    0x10(%rbx),%ecx
   140008086:	48 83 c4 20          	add    $0x20,%rsp
   14000808a:	5b                   	pop    %rbx
   14000808b:	e9 b8 05 00 00       	jmp    140008648 <_unlock>

0000000140008090 <_get_invalid_parameter_handler>:
   140008090:	48 8b 05 e9 6e 00 00 	mov    0x6ee9(%rip),%rax        # 14000ef80 <handler>
   140008097:	c3                   	ret
   140008098:	0f 1f 84 00 00 00 00 	nopl   0x0(%rax,%rax,1)
   14000809f:	00 

00000001400080a0 <_set_invalid_parameter_handler>:
   1400080a0:	48 89 c8             	mov    %rcx,%rax
   1400080a3:	48 87 05 d6 6e 00 00 	xchg   %rax,0x6ed6(%rip)        # 14000ef80 <handler>
   1400080aa:	c3                   	ret
   1400080ab:	90                   	nop
   1400080ac:	90                   	nop
   1400080ad:	90                   	nop
   1400080ae:	90                   	nop
   1400080af:	90                   	nop

00000001400080b0 <__acrt_iob_func>:
   1400080b0:	53                   	push   %rbx
   1400080b1:	48 83 ec 20          	sub    $0x20,%rsp
   1400080b5:	89 cb                	mov    %ecx,%ebx
   1400080b7:	e8 44 05 00 00       	call   140008600 <__iob_func>
   1400080bc:	89 d9                	mov    %ebx,%ecx
   1400080be:	48 8d 14 49          	lea    (%rcx,%rcx,2),%rdx
   1400080c2:	48 c1 e2 04          	shl    $0x4,%rdx
   1400080c6:	48 01 d0             	add    %rdx,%rax
   1400080c9:	48 83 c4 20          	add    $0x20,%rsp
   1400080cd:	5b                   	pop    %rbx
   1400080ce:	c3                   	ret
   1400080cf:	90                   	nop

00000001400080d0 <__wcrtomb_cp>:
   1400080d0:	48 83 ec 58          	sub    $0x58,%rsp
   1400080d4:	48 89 c8             	mov    %rcx,%rax
   1400080d7:	66 89 54 24 68       	mov    %dx,0x68(%rsp)
   1400080dc:	44 89 c1             	mov    %r8d,%ecx
   1400080df:	45 85 c0             	test   %r8d,%r8d
   1400080e2:	75 1c                	jne    140008100 <__wcrtomb_cp+0x30>
   1400080e4:	66 81 fa ff 00       	cmp    $0xff,%dx
   1400080e9:	77 59                	ja     140008144 <__wcrtomb_cp+0x74>
   1400080eb:	88 10                	mov    %dl,(%rax)
   1400080ed:	b8 01 00 00 00       	mov    $0x1,%eax
   1400080f2:	48 83 c4 58          	add    $0x58,%rsp
   1400080f6:	c3                   	ret
   1400080f7:	66 0f 1f 84 00 00 00 	nopw   0x0(%rax,%rax,1)
   1400080fe:	00 00 
   140008100:	48 8d 54 24 4c       	lea    0x4c(%rsp),%rdx
   140008105:	44 89 4c 24 28       	mov    %r9d,0x28(%rsp)
   14000810a:	4c 8d 44 24 68       	lea    0x68(%rsp),%r8
   14000810f:	41 b9 01 00 00 00    	mov    $0x1,%r9d
   140008115:	48 89 54 24 38       	mov    %rdx,0x38(%rsp)
   14000811a:	31 d2                	xor    %edx,%edx
   14000811c:	c7 44 24 4c 00 00 00 	movl   $0x0,0x4c(%rsp)
   140008123:	00 
   140008124:	48 c7 44 24 30 00 00 	movq   $0x0,0x30(%rsp)
   14000812b:	00 00 
   14000812d:	48 89 44 24 20       	mov    %rax,0x20(%rsp)
   140008132:	ff 15 68 71 00 00    	call   *0x7168(%rip)        # 14000f2a0 <__imp_WideCharToMultiByte>
   140008138:	85 c0                	test   %eax,%eax
   14000813a:	74 08                	je     140008144 <__wcrtomb_cp+0x74>
   14000813c:	8b 54 24 4c          	mov    0x4c(%rsp),%edx
   140008140:	85 d2                	test   %edx,%edx
   140008142:	74 ae                	je     1400080f2 <__wcrtomb_cp+0x22>
   140008144:	e8 df 04 00 00       	call   140008628 <_errno>
   140008149:	c7 00 2a 00 00 00    	movl   $0x2a,(%rax)
   14000814f:	b8 ff ff ff ff       	mov    $0xffffffff,%eax
   140008154:	48 83 c4 58          	add    $0x58,%rsp
   140008158:	c3                   	ret
   140008159:	0f 1f 80 00 00 00 00 	nopl   0x0(%rax)

0000000140008160 <wcrtomb>:
   140008160:	57                   	push   %rdi
   140008161:	56                   	push   %rsi
   140008162:	53                   	push   %rbx
   140008163:	48 83 ec 30          	sub    $0x30,%rsp
   140008167:	48 85 c9             	test   %rcx,%rcx
   14000816a:	48 89 cb             	mov    %rcx,%rbx
   14000816d:	48 8d 44 24 2b       	lea    0x2b(%rsp),%rax
   140008172:	89 d6                	mov    %edx,%esi
   140008174:	48 0f 44 d8          	cmove  %rax,%rbx
   140008178:	e8 73 04 00 00       	call   1400085f0 <___mb_cur_max_func>
   14000817d:	89 c7                	mov    %eax,%edi
   14000817f:	e8 64 04 00 00       	call   1400085e8 <___lc_codepage_func>
   140008184:	0f b7 d6             	movzwl %si,%edx
   140008187:	41 89 f9             	mov    %edi,%r9d
   14000818a:	48 89 d9             	mov    %rbx,%rcx
   14000818d:	41 89 c0             	mov    %eax,%r8d
   140008190:	e8 3b ff ff ff       	call   1400080d0 <__wcrtomb_cp>
   140008195:	48 98                	cltq
   140008197:	48 83 c4 30          	add    $0x30,%rsp
   14000819b:	5b                   	pop    %rbx
   14000819c:	5e                   	pop    %rsi
   14000819d:	5f                   	pop    %rdi
   14000819e:	c3                   	ret
   14000819f:	90                   	nop

00000001400081a0 <wcsrtombs>:
   1400081a0:	41 56                	push   %r14
   1400081a2:	41 55                	push   %r13
   1400081a4:	41 54                	push   %r12
   1400081a6:	55                   	push   %rbp
   1400081a7:	57                   	push   %rdi
   1400081a8:	56                   	push   %rsi
   1400081a9:	53                   	push   %rbx
   1400081aa:	48 83 ec 30          	sub    $0x30,%rsp
   1400081ae:	45 31 f6             	xor    %r14d,%r14d
   1400081b1:	49 89 d4             	mov    %rdx,%r12
   1400081b4:	48 89 cb             	mov    %rcx,%rbx
   1400081b7:	4c 89 c5             	mov    %r8,%rbp
   1400081ba:	e8 29 04 00 00       	call   1400085e8 <___lc_codepage_func>
   1400081bf:	89 c6                	mov    %eax,%esi
   1400081c1:	e8 2a 04 00 00       	call   1400085f0 <___mb_cur_max_func>
   1400081c6:	4d 8b 2c 24          	mov    (%r12),%r13
   1400081ca:	89 c7                	mov    %eax,%edi
   1400081cc:	4d 85 ed             	test   %r13,%r13
   1400081cf:	74 48                	je     140008219 <wcsrtombs+0x79>
   1400081d1:	48 85 db             	test   %rbx,%rbx
   1400081d4:	74 5a                	je     140008230 <wcsrtombs+0x90>
   1400081d6:	48 85 ed             	test   %rbp,%rbp
   1400081d9:	75 20                	jne    1400081fb <wcsrtombs+0x5b>
   1400081db:	e9 90 00 00 00       	jmp    140008270 <wcsrtombs+0xd0>
   1400081e0:	48 98                	cltq
   1400081e2:	48 01 c3             	add    %rax,%rbx
   1400081e5:	49 01 c6             	add    %rax,%r14
   1400081e8:	80 7b ff 00          	cmpb   $0x0,-0x1(%rbx)
   1400081ec:	0f 84 8e 00 00 00    	je     140008280 <wcsrtombs+0xe0>
   1400081f2:	49 83 c5 02          	add    $0x2,%r13
   1400081f6:	49 39 ee             	cmp    %rbp,%r14
   1400081f9:	73 75                	jae    140008270 <wcsrtombs+0xd0>
   1400081fb:	41 0f b7 55 00       	movzwl 0x0(%r13),%edx
   140008200:	41 89 f9             	mov    %edi,%r9d
   140008203:	41 89 f0             	mov    %esi,%r8d
   140008206:	48 89 d9             	mov    %rbx,%rcx
   140008209:	e8 c2 fe ff ff       	call   1400080d0 <__wcrtomb_cp>
   14000820e:	85 c0                	test   %eax,%eax
   140008210:	7f ce                	jg     1400081e0 <wcsrtombs+0x40>
   140008212:	49 c7 c6 ff ff ff ff 	mov    $0xffffffffffffffff,%r14
   140008219:	4c 89 f0             	mov    %r14,%rax
   14000821c:	48 83 c4 30          	add    $0x30,%rsp
   140008220:	5b                   	pop    %rbx
   140008221:	5e                   	pop    %rsi
   140008222:	5f                   	pop    %rdi
   140008223:	5d                   	pop    %rbp
   140008224:	41 5c                	pop    %r12
   140008226:	41 5d                	pop    %r13
   140008228:	41 5e                	pop    %r14
   14000822a:	c3                   	ret
   14000822b:	0f 1f 44 00 00       	nopl   0x0(%rax,%rax,1)
   140008230:	48 8d 6c 24 2b       	lea    0x2b(%rsp),%rbp
   140008235:	eb 1f                	jmp    140008256 <wcsrtombs+0xb6>
   140008237:	66 0f 1f 84 00 00 00 	nopw   0x0(%rax,%rax,1)
   14000823e:	00 00 
   140008240:	48 63 d0             	movslq %eax,%rdx
   140008243:	83 e8 01             	sub    $0x1,%eax
   140008246:	48 98                	cltq
   140008248:	49 01 d6             	add    %rdx,%r14
   14000824b:	80 7c 04 2b 00       	cmpb   $0x0,0x2b(%rsp,%rax,1)
   140008250:	74 3e                	je     140008290 <wcsrtombs+0xf0>
   140008252:	49 83 c5 02          	add    $0x2,%r13
   140008256:	41 0f b7 55 00       	movzwl 0x0(%r13),%edx
   14000825b:	41 89 f9             	mov    %edi,%r9d
   14000825e:	41 89 f0             	mov    %esi,%r8d
   140008261:	48 89 e9             	mov    %rbp,%rcx
   140008264:	e8 67 fe ff ff       	call   1400080d0 <__wcrtomb_cp>
   140008269:	85 c0                	test   %eax,%eax
   14000826b:	7f d3                	jg     140008240 <wcsrtombs+0xa0>
   14000826d:	eb a3                	jmp    140008212 <wcsrtombs+0x72>
   14000826f:	90                   	nop
   140008270:	4d 89 2c 24          	mov    %r13,(%r12)
   140008274:	eb a3                	jmp    140008219 <wcsrtombs+0x79>
   140008276:	66 2e 0f 1f 84 00 00 	cs nopw 0x0(%rax,%rax,1)
   14000827d:	00 00 00 
   140008280:	49 c7 04 24 00 00 00 	movq   $0x0,(%r12)
   140008287:	00 
   140008288:	49 83 ee 01          	sub    $0x1,%r14
   14000828c:	eb 8b                	jmp    140008219 <wcsrtombs+0x79>
   14000828e:	66 90                	xchg   %ax,%ax
   140008290:	49 83 ee 01          	sub    $0x1,%r14
   140008294:	eb 83                	jmp    140008219 <wcsrtombs+0x79>
   140008296:	90                   	nop
   140008297:	90                   	nop
   140008298:	90                   	nop
   140008299:	90                   	nop
   14000829a:	90                   	nop
   14000829b:	90                   	nop
   14000829c:	90                   	nop
   14000829d:	90                   	nop
   14000829e:	90                   	nop
   14000829f:	90                   	nop

00000001400082a0 <__mbrtowc_cp>:
   1400082a0:	57                   	push   %rdi
   1400082a1:	53                   	push   %rbx
   1400082a2:	48 83 ec 48          	sub    $0x48,%rsp
   1400082a6:	48 89 cf             	mov    %rcx,%rdi
   1400082a9:	48 89 d3             	mov    %rdx,%rbx
   1400082ac:	48 85 d2             	test   %rdx,%rdx
   1400082af:	0f 84 c8 00 00 00    	je     14000837d <__mbrtowc_cp+0xdd>
   1400082b5:	4d 85 c0             	test   %r8,%r8
   1400082b8:	0f 84 36 01 00 00    	je     1400083f4 <__mbrtowc_cp+0x154>
   1400082be:	41 8b 01             	mov    (%r9),%eax
   1400082c1:	0f b6 12             	movzbl (%rdx),%edx
   1400082c4:	41 c7 01 00 00 00 00 	movl   $0x0,(%r9)
   1400082cb:	89 44 24 3c          	mov    %eax,0x3c(%rsp)
   1400082cf:	84 d2                	test   %dl,%dl
   1400082d1:	0f 84 a1 00 00 00    	je     140008378 <__mbrtowc_cp+0xd8>
   1400082d7:	83 bc 24 88 00 00 00 	cmpl   $0x1,0x88(%rsp)
   1400082de:	01 
   1400082df:	76 77                	jbe    140008358 <__mbrtowc_cp+0xb8>
   1400082e1:	84 c0                	test   %al,%al
   1400082e3:	0f 85 a7 00 00 00    	jne    140008390 <__mbrtowc_cp+0xf0>
   1400082e9:	4c 89 4c 24 78       	mov    %r9,0x78(%rsp)
   1400082ee:	8b 8c 24 80 00 00 00 	mov    0x80(%rsp),%ecx
   1400082f5:	4c 89 44 24 70       	mov    %r8,0x70(%rsp)
   1400082fa:	ff 15 50 6f 00 00    	call   *0x6f50(%rip)        # 14000f250 <__imp_IsDBCSLeadByteEx>
   140008300:	85 c0                	test   %eax,%eax
   140008302:	74 54                	je     140008358 <__mbrtowc_cp+0xb8>
   140008304:	4c 8b 44 24 70       	mov    0x70(%rsp),%r8
   140008309:	4c 8b 4c 24 78       	mov    0x78(%rsp),%r9
   14000830e:	49 83 f8 01          	cmp    $0x1,%r8
   140008312:	0f 84 d6 00 00 00    	je     1400083ee <__mbrtowc_cp+0x14e>
   140008318:	48 89 7c 24 20       	mov    %rdi,0x20(%rsp)
   14000831d:	41 b9 02 00 00 00    	mov    $0x2,%r9d
   140008323:	49 89 d8             	mov    %rbx,%r8
   140008326:	c7 44 24 28 01 00 00 	movl   $0x1,0x28(%rsp)
   14000832d:	00 
   14000832e:	8b 8c 24 80 00 00 00 	mov    0x80(%rsp),%ecx
   140008335:	ba 08 00 00 00       	mov    $0x8,%edx
   14000833a:	ff 15 20 6f 00 00    	call   *0x6f20(%rip)        # 14000f260 <__imp_MultiByteToWideChar>
   140008340:	85 c0                	test   %eax,%eax
   140008342:	0f 84 94 00 00 00    	je     1400083dc <__mbrtowc_cp+0x13c>
   140008348:	b8 02 00 00 00       	mov    $0x2,%eax
   14000834d:	48 83 c4 48          	add    $0x48,%rsp
   140008351:	5b                   	pop    %rbx
   140008352:	5f                   	pop    %rdi
   140008353:	c3                   	ret
   140008354:	0f 1f 40 00          	nopl   0x0(%rax)
   140008358:	8b 84 24 80 00 00 00 	mov    0x80(%rsp),%eax
   14000835f:	85 c0                	test   %eax,%eax
   140008361:	75 4d                	jne    1400083b0 <__mbrtowc_cp+0x110>
   140008363:	0f b6 03             	movzbl (%rbx),%eax
   140008366:	66 89 07             	mov    %ax,(%rdi)
   140008369:	b8 01 00 00 00       	mov    $0x1,%eax
   14000836e:	48 83 c4 48          	add    $0x48,%rsp
   140008372:	5b                   	pop    %rbx
   140008373:	5f                   	pop    %rdi
   140008374:	c3                   	ret
   140008375:	0f 1f 00             	nopl   (%rax)
   140008378:	31 d2                	xor    %edx,%edx
   14000837a:	66 89 11             	mov    %dx,(%rcx)
   14000837d:	31 c0                	xor    %eax,%eax
   14000837f:	48 83 c4 48          	add    $0x48,%rsp
   140008383:	5b                   	pop    %rbx
   140008384:	5f                   	pop    %rdi
   140008385:	c3                   	ret
   140008386:	66 2e 0f 1f 84 00 00 	cs nopw 0x0(%rax,%rax,1)
   14000838d:	00 00 00 
   140008390:	88 54 24 3d          	mov    %dl,0x3d(%rsp)
   140008394:	41 b9 02 00 00 00    	mov    $0x2,%r9d
   14000839a:	4c 8d 44 24 3c       	lea    0x3c(%rsp),%r8
   14000839f:	c7 44 24 28 01 00 00 	movl   $0x1,0x28(%rsp)
   1400083a6:	00 
   1400083a7:	48 89 4c 24 20       	mov    %rcx,0x20(%rsp)
   1400083ac:	eb 80                	jmp    14000832e <__mbrtowc_cp+0x8e>
   1400083ae:	66 90                	xchg   %ax,%ax
   1400083b0:	c7 44 24 28 01 00 00 	movl   $0x1,0x28(%rsp)
   1400083b7:	00 
   1400083b8:	8b 8c 24 80 00 00 00 	mov    0x80(%rsp),%ecx
   1400083bf:	49 89 d8             	mov    %rbx,%r8
   1400083c2:	41 b9 01 00 00 00    	mov    $0x1,%r9d
   1400083c8:	48 89 7c 24 20       	mov    %rdi,0x20(%rsp)
   1400083cd:	ba 08 00 00 00       	mov    $0x8,%edx
   1400083d2:	ff 15 88 6e 00 00    	call   *0x6e88(%rip)        # 14000f260 <__imp_MultiByteToWideChar>
   1400083d8:	85 c0                	test   %eax,%eax
   1400083da:	75 8d                	jne    140008369 <__mbrtowc_cp+0xc9>
   1400083dc:	e8 47 02 00 00       	call   140008628 <_errno>
   1400083e1:	c7 00 2a 00 00 00    	movl   $0x2a,(%rax)
   1400083e7:	b8 ff ff ff ff       	mov    $0xffffffff,%eax
   1400083ec:	eb 91                	jmp    14000837f <__mbrtowc_cp+0xdf>
   1400083ee:	0f b6 03             	movzbl (%rbx),%eax
   1400083f1:	41 88 01             	mov    %al,(%r9)
   1400083f4:	b8 fe ff ff ff       	mov    $0xfffffffe,%eax
   1400083f9:	eb 84                	jmp    14000837f <__mbrtowc_cp+0xdf>
   1400083fb:	0f 1f 44 00 00       	nopl   0x0(%rax,%rax,1)

0000000140008400 <mbrtowc>:
   140008400:	41 54                	push   %r12
   140008402:	55                   	push   %rbp
   140008403:	57                   	push   %rdi
   140008404:	56                   	push   %rsi
   140008405:	53                   	push   %rbx
   140008406:	48 83 ec 40          	sub    $0x40,%rsp
   14000840a:	31 c0                	xor    %eax,%eax
   14000840c:	48 89 cb             	mov    %rcx,%rbx
   14000840f:	48 85 c9             	test   %rcx,%rcx
   140008412:	66 89 44 24 3e       	mov    %ax,0x3e(%rsp)
   140008417:	48 8d 44 24 3e       	lea    0x3e(%rsp),%rax
   14000841c:	4c 89 ce             	mov    %r9,%rsi
   14000841f:	48 0f 44 d8          	cmove  %rax,%rbx
   140008423:	48 89 d7             	mov    %rdx,%rdi
   140008426:	4c 89 c5             	mov    %r8,%rbp
   140008429:	e8 c2 01 00 00       	call   1400085f0 <___mb_cur_max_func>
   14000842e:	41 89 c4             	mov    %eax,%r12d
   140008431:	e8 b2 01 00 00       	call   1400085e8 <___lc_codepage_func>
   140008436:	48 85 f6             	test   %rsi,%rsi
   140008439:	44 89 64 24 28       	mov    %r12d,0x28(%rsp)
   14000843e:	49 89 e8             	mov    %rbp,%r8
   140008441:	89 44 24 20          	mov    %eax,0x20(%rsp)
   140008445:	4c 8d 0d 4c 6b 00 00 	lea    0x6b4c(%rip),%r9        # 14000ef98 <internal_mbstate.2>
   14000844c:	48 89 fa             	mov    %rdi,%rdx
   14000844f:	48 89 d9             	mov    %rbx,%rcx
   140008452:	4c 0f 45 ce          	cmovne %rsi,%r9
   140008456:	e8 45 fe ff ff       	call   1400082a0 <__mbrtowc_cp>
   14000845b:	48 98                	cltq
   14000845d:	48 83 c4 40          	add    $0x40,%rsp
   140008461:	5b                   	pop    %rbx
   140008462:	5e                   	pop    %rsi
   140008463:	5f                   	pop    %rdi
   140008464:	5d                   	pop    %rbp
   140008465:	41 5c                	pop    %r12
   140008467:	c3                   	ret
   140008468:	0f 1f 84 00 00 00 00 	nopl   0x0(%rax,%rax,1)
   14000846f:	00 

0000000140008470 <mbsrtowcs>:
   140008470:	41 56                	push   %r14
   140008472:	41 55                	push   %r13
   140008474:	41 54                	push   %r12
   140008476:	55                   	push   %rbp
   140008477:	57                   	push   %rdi
   140008478:	56                   	push   %rsi
   140008479:	53                   	push   %rbx
   14000847a:	48 83 ec 40          	sub    $0x40,%rsp
   14000847e:	48 8d 05 0f 6b 00 00 	lea    0x6b0f(%rip),%rax        # 14000ef94 <internal_mbstate.1>
   140008485:	4c 89 ce             	mov    %r9,%rsi
   140008488:	4d 85 c9             	test   %r9,%r9
   14000848b:	49 89 ce             	mov    %rcx,%r14
   14000848e:	48 89 d3             	mov    %rdx,%rbx
   140008491:	48 0f 44 f0          	cmove  %rax,%rsi
   140008495:	4c 89 c7             	mov    %r8,%rdi
   140008498:	e8 4b 01 00 00       	call   1400085e8 <___lc_codepage_func>
   14000849d:	41 89 c4             	mov    %eax,%r12d
   1400084a0:	e8 4b 01 00 00       	call   1400085f0 <___mb_cur_max_func>
   1400084a5:	89 c5                	mov    %eax,%ebp
   1400084a7:	48 85 db             	test   %rbx,%rbx
   1400084aa:	0f 84 c0 00 00 00    	je     140008570 <mbsrtowcs+0x100>
   1400084b0:	48 8b 13             	mov    (%rbx),%rdx
   1400084b3:	48 85 d2             	test   %rdx,%rdx
   1400084b6:	0f 84 b4 00 00 00    	je     140008570 <mbsrtowcs+0x100>
   1400084bc:	4d 85 f6             	test   %r14,%r14
   1400084bf:	74 6f                	je     140008530 <mbsrtowcs+0xc0>
   1400084c1:	45 31 ed             	xor    %r13d,%r13d
   1400084c4:	48 85 ff             	test   %rdi,%rdi
   1400084c7:	75 1e                	jne    1400084e7 <mbsrtowcs+0x77>
   1400084c9:	eb 4a                	jmp    140008515 <mbsrtowcs+0xa5>
   1400084cb:	0f 1f 44 00 00       	nopl   0x0(%rax,%rax,1)
   1400084d0:	48 8b 13             	mov    (%rbx),%rdx
   1400084d3:	48 98                	cltq
   1400084d5:	49 83 c6 02          	add    $0x2,%r14
   1400084d9:	49 01 c5             	add    %rax,%r13
   1400084dc:	48 01 c2             	add    %rax,%rdx
   1400084df:	48 89 13             	mov    %rdx,(%rbx)
   1400084e2:	49 39 fd             	cmp    %rdi,%r13
   1400084e5:	73 2e                	jae    140008515 <mbsrtowcs+0xa5>
   1400084e7:	89 6c 24 28          	mov    %ebp,0x28(%rsp)
   1400084eb:	49 89 f8             	mov    %rdi,%r8
   1400084ee:	49 89 f1             	mov    %rsi,%r9
   1400084f1:	4c 89 f1             	mov    %r14,%rcx
   1400084f4:	44 89 64 24 20       	mov    %r12d,0x20(%rsp)
   1400084f9:	4d 29 e8             	sub    %r13,%r8
   1400084fc:	e8 9f fd ff ff       	call   1400082a0 <__mbrtowc_cp>
   140008501:	85 c0                	test   %eax,%eax
   140008503:	7f cb                	jg     1400084d0 <mbsrtowcs+0x60>
   140008505:	49 39 fd             	cmp    %rdi,%r13
   140008508:	73 0b                	jae    140008515 <mbsrtowcs+0xa5>
   14000850a:	85 c0                	test   %eax,%eax
   14000850c:	75 07                	jne    140008515 <mbsrtowcs+0xa5>
   14000850e:	48 c7 03 00 00 00 00 	movq   $0x0,(%rbx)
   140008515:	4c 89 e8             	mov    %r13,%rax
   140008518:	48 83 c4 40          	add    $0x40,%rsp
   14000851c:	5b                   	pop    %rbx
   14000851d:	5e                   	pop    %rsi
   14000851e:	5f                   	pop    %rdi
   14000851f:	5d                   	pop    %rbp
   140008520:	41 5c                	pop    %r12
   140008522:	41 5d                	pop    %r13
   140008524:	41 5e                	pop    %r14
   140008526:	c3                   	ret
   140008527:	66 0f 1f 84 00 00 00 	nopw   0x0(%rax,%rax,1)
   14000852e:	00 00 
   140008530:	31 c0                	xor    %eax,%eax
   140008532:	41 89 ee             	mov    %ebp,%r14d
   140008535:	48 8d 7c 24 3e       	lea    0x3e(%rsp),%rdi
   14000853a:	45 31 ed             	xor    %r13d,%r13d
   14000853d:	66 89 44 24 3e       	mov    %ax,0x3e(%rsp)
   140008542:	eb 0c                	jmp    140008550 <mbsrtowcs+0xe0>
   140008544:	0f 1f 40 00          	nopl   0x0(%rax)
   140008548:	48 98                	cltq
   14000854a:	48 8b 13             	mov    (%rbx),%rdx
   14000854d:	49 01 c5             	add    %rax,%r13
   140008550:	89 6c 24 28          	mov    %ebp,0x28(%rsp)
   140008554:	4c 01 ea             	add    %r13,%rdx
   140008557:	49 89 f1             	mov    %rsi,%r9
   14000855a:	4d 89 f0             	mov    %r14,%r8
   14000855d:	44 89 64 24 20       	mov    %r12d,0x20(%rsp)
   140008562:	48 89 f9             	mov    %rdi,%rcx
   140008565:	e8 36 fd ff ff       	call   1400082a0 <__mbrtowc_cp>
   14000856a:	85 c0                	test   %eax,%eax
   14000856c:	7f da                	jg     140008548 <mbsrtowcs+0xd8>
   14000856e:	eb a5                	jmp    140008515 <mbsrtowcs+0xa5>
   140008570:	45 31 ed             	xor    %r13d,%r13d
   140008573:	eb a0                	jmp    140008515 <mbsrtowcs+0xa5>
   140008575:	66 66 2e 0f 1f 84 00 	data16 cs nopw 0x0(%rax,%rax,1)
   14000857c:	00 00 00 00 

0000000140008580 <mbrlen>:
   140008580:	55                   	push   %rbp
   140008581:	57                   	push   %rdi
   140008582:	56                   	push   %rsi
   140008583:	53                   	push   %rbx
   140008584:	48 83 ec 48          	sub    $0x48,%rsp
   140008588:	31 c0                	xor    %eax,%eax
   14000858a:	48 89 ce             	mov    %rcx,%rsi
   14000858d:	48 89 d7             	mov    %rdx,%rdi
   140008590:	4c 89 c3             	mov    %r8,%rbx
   140008593:	66 89 44 24 3e       	mov    %ax,0x3e(%rsp)
   140008598:	e8 53 00 00 00       	call   1400085f0 <___mb_cur_max_func>
   14000859d:	89 c5                	mov    %eax,%ebp
   14000859f:	e8 44 00 00 00       	call   1400085e8 <___lc_codepage_func>
   1400085a4:	48 85 db             	test   %rbx,%rbx
   1400085a7:	89 6c 24 28          	mov    %ebp,0x28(%rsp)
   1400085ab:	49 89 f8             	mov    %rdi,%r8
   1400085ae:	48 8d 15 db 69 00 00 	lea    0x69db(%rip),%rdx        # 14000ef90 <s_mbstate.0>
   1400085b5:	89 44 24 20          	mov    %eax,0x20(%rsp)
   1400085b9:	48 8d 4c 24 3e       	lea    0x3e(%rsp),%rcx
   1400085be:	48 0f 44 da          	cmove  %rdx,%rbx
   1400085c2:	48 89 f2             	mov    %rsi,%rdx
   1400085c5:	49 89 d9             	mov    %rbx,%r9
   1400085c8:	e8 d3 fc ff ff       	call   1400082a0 <__mbrtowc_cp>
   1400085cd:	48 98                	cltq
   1400085cf:	48 83 c4 48          	add    $0x48,%rsp
   1400085d3:	5b                   	pop    %rbx
   1400085d4:	5e                   	pop    %rsi
   1400085d5:	5f                   	pop    %rdi
   1400085d6:	5d                   	pop    %rbp
   1400085d7:	c3                   	ret
   1400085d8:	90                   	nop
   1400085d9:	90                   	nop
   1400085da:	90                   	nop
   1400085db:	90                   	nop
   1400085dc:	90                   	nop
   1400085dd:	90                   	nop
   1400085de:	90                   	nop
   1400085df:	90                   	nop

00000001400085e0 <__C_specific_handler>:
   1400085e0:	ff 25 ca 6c 00 00    	jmp    *0x6cca(%rip)        # 14000f2b0 <__imp___C_specific_handler>
   1400085e6:	90                   	nop
   1400085e7:	90                   	nop

00000001400085e8 <___lc_codepage_func>:
   1400085e8:	ff 25 ca 6c 00 00    	jmp    *0x6cca(%rip)        # 14000f2b8 <__imp____lc_codepage_func>
   1400085ee:	90                   	nop
   1400085ef:	90                   	nop

00000001400085f0 <___mb_cur_max_func>:
   1400085f0:	ff 25 ca 6c 00 00    	jmp    *0x6cca(%rip)        # 14000f2c0 <__imp____mb_cur_max_func>
   1400085f6:	90                   	nop
   1400085f7:	90                   	nop

00000001400085f8 <__getmainargs>:
   1400085f8:	ff 25 ca 6c 00 00    	jmp    *0x6cca(%rip)        # 14000f2c8 <__imp___getmainargs>
   1400085fe:	90                   	nop
   1400085ff:	90                   	nop

0000000140008600 <__iob_func>:
   140008600:	ff 25 d2 6c 00 00    	jmp    *0x6cd2(%rip)        # 14000f2d8 <__imp___iob_func>
   140008606:	90                   	nop
   140008607:	90                   	nop

0000000140008608 <__set_app_type>:
   140008608:	ff 25 d2 6c 00 00    	jmp    *0x6cd2(%rip)        # 14000f2e0 <__imp___set_app_type>
   14000860e:	90                   	nop
   14000860f:	90                   	nop

0000000140008610 <__setusermatherr>:
   140008610:	ff 25 d2 6c 00 00    	jmp    *0x6cd2(%rip)        # 14000f2e8 <__imp___setusermatherr>
   140008616:	90                   	nop
   140008617:	90                   	nop

0000000140008618 <_amsg_exit>:
   140008618:	ff 25 d2 6c 00 00    	jmp    *0x6cd2(%rip)        # 14000f2f0 <__imp__amsg_exit>
   14000861e:	90                   	nop
   14000861f:	90                   	nop

0000000140008620 <_cexit>:
   140008620:	ff 25 d2 6c 00 00    	jmp    *0x6cd2(%rip)        # 14000f2f8 <__imp__cexit>
   140008626:	90                   	nop
   140008627:	90                   	nop

0000000140008628 <_errno>:
   140008628:	ff 25 da 6c 00 00    	jmp    *0x6cda(%rip)        # 14000f308 <__imp__errno>
   14000862e:	90                   	nop
   14000862f:	90                   	nop

0000000140008630 <_initterm>:
   140008630:	ff 25 e2 6c 00 00    	jmp    *0x6ce2(%rip)        # 14000f318 <__imp__initterm>
   140008636:	90                   	nop
   140008637:	90                   	nop

0000000140008638 <_lock>:
   140008638:	ff 25 e2 6c 00 00    	jmp    *0x6ce2(%rip)        # 14000f320 <__imp__lock>
   14000863e:	90                   	nop
   14000863f:	90                   	nop

0000000140008640 <_onexit>:
   140008640:	ff 25 e2 6c 00 00    	jmp    *0x6ce2(%rip)        # 14000f328 <__imp__onexit>
   140008646:	90                   	nop
   140008647:	90                   	nop

0000000140008648 <_unlock>:
   140008648:	ff 25 e2 6c 00 00    	jmp    *0x6ce2(%rip)        # 14000f330 <__imp__unlock>
   14000864e:	90                   	nop
   14000864f:	90                   	nop

0000000140008650 <abort>:
   140008650:	ff 25 e2 6c 00 00    	jmp    *0x6ce2(%rip)        # 14000f338 <__imp_abort>
   140008656:	90                   	nop
   140008657:	90                   	nop

0000000140008658 <calloc>:
   140008658:	ff 25 e2 6c 00 00    	jmp    *0x6ce2(%rip)        # 14000f340 <__imp_calloc>
   14000865e:	90                   	nop
   14000865f:	90                   	nop

0000000140008660 <exit>:
   140008660:	ff 25 e2 6c 00 00    	jmp    *0x6ce2(%rip)        # 14000f348 <__imp_exit>
   140008666:	90                   	nop
   140008667:	90                   	nop

0000000140008668 <fprintf>:
   140008668:	ff 25 e2 6c 00 00    	jmp    *0x6ce2(%rip)        # 14000f350 <__imp_fprintf>
   14000866e:	90                   	nop
   14000866f:	90                   	nop

0000000140008670 <fputc>:
   140008670:	ff 25 e2 6c 00 00    	jmp    *0x6ce2(%rip)        # 14000f358 <__imp_fputc>
   140008676:	90                   	nop
   140008677:	90                   	nop

0000000140008678 <free>:
   140008678:	ff 25 e2 6c 00 00    	jmp    *0x6ce2(%rip)        # 14000f360 <__imp_free>
   14000867e:	90                   	nop
   14000867f:	90                   	nop

0000000140008680 <fwrite>:
   140008680:	ff 25 e2 6c 00 00    	jmp    *0x6ce2(%rip)        # 14000f368 <__imp_fwrite>
   140008686:	90                   	nop
   140008687:	90                   	nop

0000000140008688 <localeconv>:
   140008688:	ff 25 e2 6c 00 00    	jmp    *0x6ce2(%rip)        # 14000f370 <__imp_localeconv>
   14000868e:	90                   	nop
   14000868f:	90                   	nop

0000000140008690 <malloc>:
   140008690:	ff 25 e2 6c 00 00    	jmp    *0x6ce2(%rip)        # 14000f378 <__imp_malloc>
   140008696:	90                   	nop
   140008697:	90                   	nop

0000000140008698 <memcpy>:
   140008698:	ff 25 e2 6c 00 00    	jmp    *0x6ce2(%rip)        # 14000f380 <__imp_memcpy>
   14000869e:	90                   	nop
   14000869f:	90                   	nop

00000001400086a0 <memset>:
   1400086a0:	ff 25 e2 6c 00 00    	jmp    *0x6ce2(%rip)        # 14000f388 <__imp_memset>
   1400086a6:	90                   	nop
   1400086a7:	90                   	nop

00000001400086a8 <signal>:
   1400086a8:	ff 25 e2 6c 00 00    	jmp    *0x6ce2(%rip)        # 14000f390 <__imp_signal>
   1400086ae:	90                   	nop
   1400086af:	90                   	nop

00000001400086b0 <strerror>:
   1400086b0:	ff 25 e2 6c 00 00    	jmp    *0x6ce2(%rip)        # 14000f398 <__imp_strerror>
   1400086b6:	90                   	nop
   1400086b7:	90                   	nop

00000001400086b8 <strlen>:
   1400086b8:	ff 25 e2 6c 00 00    	jmp    *0x6ce2(%rip)        # 14000f3a0 <__imp_strlen>
   1400086be:	90                   	nop
   1400086bf:	90                   	nop

00000001400086c0 <strncmp>:
   1400086c0:	ff 25 e2 6c 00 00    	jmp    *0x6ce2(%rip)        # 14000f3a8 <__imp_strncmp>
   1400086c6:	90                   	nop
   1400086c7:	90                   	nop

00000001400086c8 <vfprintf>:
   1400086c8:	ff 25 e2 6c 00 00    	jmp    *0x6ce2(%rip)        # 14000f3b0 <__imp_vfprintf>
   1400086ce:	90                   	nop
   1400086cf:	90                   	nop

00000001400086d0 <wcslen>:
   1400086d0:	ff 25 e2 6c 00 00    	jmp    *0x6ce2(%rip)        # 14000f3b8 <__imp_wcslen>
   1400086d6:	90                   	nop
   1400086d7:	90                   	nop
   1400086d8:	0f 1f 84 00 00 00 00 	nopl   0x0(%rax,%rax,1)
   1400086df:	00 

00000001400086e0 <WideCharToMultiByte>:
   1400086e0:	ff 25 ba 6b 00 00    	jmp    *0x6bba(%rip)        # 14000f2a0 <__imp_WideCharToMultiByte>
   1400086e6:	90                   	nop
   1400086e7:	90                   	nop

00000001400086e8 <WaitForSingleObject>:
   1400086e8:	ff 25 aa 6b 00 00    	jmp    *0x6baa(%rip)        # 14000f298 <__imp_WaitForSingleObject>
   1400086ee:	90                   	nop
   1400086ef:	90                   	nop

00000001400086f0 <VirtualQuery>:
   1400086f0:	ff 25 9a 6b 00 00    	jmp    *0x6b9a(%rip)        # 14000f290 <__imp_VirtualQuery>
   1400086f6:	90                   	nop
   1400086f7:	90                   	nop

00000001400086f8 <VirtualProtect>:
   1400086f8:	ff 25 8a 6b 00 00    	jmp    *0x6b8a(%rip)        # 14000f288 <__imp_VirtualProtect>
   1400086fe:	90                   	nop
   1400086ff:	90                   	nop

0000000140008700 <TlsGetValue>:
   140008700:	ff 25 7a 6b 00 00    	jmp    *0x6b7a(%rip)        # 14000f280 <__imp_TlsGetValue>
   140008706:	90                   	nop
   140008707:	90                   	nop

0000000140008708 <Sleep>:
   140008708:	ff 25 6a 6b 00 00    	jmp    *0x6b6a(%rip)        # 14000f278 <__imp_Sleep>
   14000870e:	90                   	nop
   14000870f:	90                   	nop

0000000140008710 <SetUnhandledExceptionFilter>:
   140008710:	ff 25 5a 6b 00 00    	jmp    *0x6b5a(%rip)        # 14000f270 <__imp_SetUnhandledExceptionFilter>
   140008716:	90                   	nop
   140008717:	90                   	nop

0000000140008718 <ReadFile>:
   140008718:	ff 25 4a 6b 00 00    	jmp    *0x6b4a(%rip)        # 14000f268 <__imp_ReadFile>
   14000871e:	90                   	nop
   14000871f:	90                   	nop

0000000140008720 <MultiByteToWideChar>:
   140008720:	ff 25 3a 6b 00 00    	jmp    *0x6b3a(%rip)        # 14000f260 <__imp_MultiByteToWideChar>
   140008726:	90                   	nop
   140008727:	90                   	nop

0000000140008728 <LeaveCriticalSection>:
   140008728:	ff 25 2a 6b 00 00    	jmp    *0x6b2a(%rip)        # 14000f258 <__imp_LeaveCriticalSection>
   14000872e:	90                   	nop
   14000872f:	90                   	nop

0000000140008730 <IsDBCSLeadByteEx>:
   140008730:	ff 25 1a 6b 00 00    	jmp    *0x6b1a(%rip)        # 14000f250 <__imp_IsDBCSLeadByteEx>
   140008736:	90                   	nop
   140008737:	90                   	nop

0000000140008738 <InitializeCriticalSection>:
   140008738:	ff 25 0a 6b 00 00    	jmp    *0x6b0a(%rip)        # 14000f248 <__imp_InitializeCriticalSection>
   14000873e:	90                   	nop
   14000873f:	90                   	nop

0000000140008740 <GetOverlappedResult>:
   140008740:	ff 25 fa 6a 00 00    	jmp    *0x6afa(%rip)        # 14000f240 <__imp_GetOverlappedResult>
   140008746:	90                   	nop
   140008747:	90                   	nop

0000000140008748 <GetLastError>:
   140008748:	ff 25 ea 6a 00 00    	jmp    *0x6aea(%rip)        # 14000f238 <__imp_GetLastError>
   14000874e:	90                   	nop
   14000874f:	90                   	nop

0000000140008750 <EnterCriticalSection>:
   140008750:	ff 25 da 6a 00 00    	jmp    *0x6ada(%rip)        # 14000f230 <__imp_EnterCriticalSection>
   140008756:	90                   	nop
   140008757:	90                   	nop

0000000140008758 <DeleteCriticalSection>:
   140008758:	ff 25 ca 6a 00 00    	jmp    *0x6aca(%rip)        # 14000f228 <__imp_DeleteCriticalSection>
   14000875e:	90                   	nop
   14000875f:	90                   	nop

0000000140008760 <CreateFileA>:
   140008760:	ff 25 ba 6a 00 00    	jmp    *0x6aba(%rip)        # 14000f220 <__imp_CreateFileA>
   140008766:	90                   	nop
   140008767:	90                   	nop

0000000140008768 <CreateEventA>:
   140008768:	ff 25 aa 6a 00 00    	jmp    *0x6aaa(%rip)        # 14000f218 <__IAT_start__>
   14000876e:	90                   	nop
   14000876f:	90                   	nop

0000000140008770 <pthread_testcancel>:
   140008770:	ff 25 5a 6c 00 00    	jmp    *0x6c5a(%rip)        # 14000f3d0 <__imp_pthread_testcancel>
   140008776:	90                   	nop
   140008777:	90                   	nop

0000000140008778 <pthread_delay_np>:
   140008778:	ff 25 4a 6c 00 00    	jmp    *0x6c4a(%rip)        # 14000f3c8 <__imp_pthread_delay_np>
   14000877e:	90                   	nop
   14000877f:	90                   	nop

0000000140008780 <register_frame_ctor>:
   140008780:	e9 ab 8c ff ff       	jmp    140001430 <__gcc_register_frame>
   140008785:	90                   	nop
   140008786:	90                   	nop
   140008787:	90                   	nop
   140008788:	90                   	nop
   140008789:	90                   	nop
   14000878a:	90                   	nop
   14000878b:	90                   	nop
   14000878c:	90                   	nop
   14000878d:	90                   	nop
   14000878e:	90                   	nop
   14000878f:	90                   	nop

0000000140008790 <__CTOR_LIST__>:
   140008790:	ff                   	(bad)
   140008791:	ff                   	(bad)
   140008792:	ff                   	(bad)
   140008793:	ff                   	(bad)
   140008794:	ff                   	(bad)
   140008795:	ff                   	(bad)
   140008796:	ff                   	(bad)
   140008797:	ff                   	.byte 0xff

0000000140008798 <.ctors.65535>:
   140008798:	80 87 00 40 01 00 00 	addb   $0x0,0x14000(%rdi)
	...

00000001400087a8 <__DTOR_LIST__>:
   1400087a8:	ff                   	(bad)
   1400087a9:	ff                   	(bad)
   1400087aa:	ff                   	(bad)
   1400087ab:	ff                   	(bad)
   1400087ac:	ff                   	(bad)
   1400087ad:	ff                   	(bad)
   1400087ae:	ff                   	(bad)
   1400087af:	ff 00                	incl   (%rax)
   1400087b1:	00 00                	add    %al,(%rax)
   1400087b3:	00 00                	add    %al,(%rax)
   1400087b5:	00 00                	add    %al,(%rax)
	...
